EXPORTS
 "_rcpp_module_boot_stan_fit4stan_boeck_2012_mod"
 "_rcpp_module_boot_stan_fit4stan_boeck_ext_HH_mod"
 "_rcpp_module_boot_stan_fit4stan_boeck_ext_mod"
 "_rcpp_module_boot_stan_fit4stan_boeck_ext2_mod"
 "_rcpp_module_boot_stan_fit4stan_boeck_shift_mod"
 "_rcpp_module_boot_stan_fit4stan_pcm_mod"
 "_rcpp_module_boot_stan_fit4stan_steps_mod"
 "_Z13get_last_callv"
 "_Z19string_to_try_errorRKSs"
 "_Z24exception_to_r_conditionRKSt9exception"
 "_Z29rcpp_exception_to_r_conditionRKN4Rcpp9exceptionE"
 "_Z39_rcpp_module_stan_fit4stan_pcm_mod_initv"
 "_Z41_rcpp_module_stan_fit4stan_steps_mod_initv"
 "_Z45_rcpp_module_stan_fit4stan_boeck_ext_mod_initv"
 "_Z46_rcpp_module_stan_fit4stan_boeck_2012_mod_initv"
 "_Z46_rcpp_module_stan_fit4stan_boeck_ext2_mod_initv"
 "_Z47_rcpp_module_stan_fit4stan_boeck_shift_mod_initv"
 "_Z48_rcpp_module_stan_fit4stan_boeck_ext_HH_mod_initv"
 "_Z7dataptrP7SEXPREC"
 "_ZGVN4stan4math20AutodiffStackStorageINS0_4variENS0_15chainable_allocEE10var_stack_E"
 "_ZGVN4stan4math20AutodiffStackStorageINS0_4variENS0_15chainable_allocEE16var_alloc_stack_E"
 "_ZGVN4stan4math20AutodiffStackStorageINS0_4variENS0_15chainable_allocEE18var_nochain_stack_E"
 "_ZGVN4stan4math20AutodiffStackStorageINS0_4variENS0_15chainable_allocEE23nested_var_stack_sizes_E"
 "_ZGVN4stan4math20AutodiffStackStorageINS0_4variENS0_15chainable_allocEE30nested_var_alloc_stack_starts_E"
 "_ZGVN4stan4math20AutodiffStackStorageINS0_4variENS0_15chainable_allocEE31nested_var_nochain_stack_sizes_E"
 "_ZGVN4stan4math20AutodiffStackStorageINS0_4variENS0_15chainable_allocEE9memalloc_E"
 "_ZGVN5boost16exception_detail37exception_ptr_static_exception_objectINS0_10bad_alloc_EE1eE"
 "_ZGVN5boost16exception_detail37exception_ptr_static_exception_objectINS0_14bad_exception_EE1eE"
 "_ZGVN5boost4math6detail15erf_initializerIeNS0_8policies6policyINS3_10pole_errorILNS3_17error_policy_typeE1EEENS3_14overflow_errorILS6_1EEENS3_13promote_floatILb0EEENS3_14promote_doubleILb0EEENS3_14default_policyESE_SE_SE_SE_SE_SE_SE_SE_EEN4mpl_4int_ILi53EEEE11initializerE"
 "_ZGVN5boost4math6detail15erf_initializerIeNS0_8policies6policyINS3_10pole_errorILNS3_17error_policy_typeE1EEENS3_14overflow_errorILS6_1EEENS3_13promote_floatILb0EEENS3_14promote_doubleILb0EEENS3_14default_policyESE_SE_SE_SE_SE_SE_SE_SE_EEN4mpl_4int_ILi64EEEE11initializerE"
 "_ZGVN5boost4math6detail15erf_initializerIeNS0_8policies6policyINS3_13promote_floatILb0EEENS3_14promote_doubleILb0EEENS3_14default_policyES9_S9_S9_S9_S9_S9_S9_S9_S9_S9_EEN4mpl_4int_ILi53EEEE11initializerE"
 "_ZGVN5boost4math6detail15erf_initializerIeNS0_8policies6policyINS3_13promote_floatILb0EEENS3_14promote_doubleILb0EEENS3_14default_policyES9_S9_S9_S9_S9_S9_S9_S9_S9_S9_EEN4mpl_4int_ILi64EEEE11initializerE"
 "_ZGVN5boost4math6detail17expm1_initializerIeNS0_8policies6policyINS3_10pole_errorILNS3_17error_policy_typeE1EEENS3_14overflow_errorILS6_1EEENS3_13promote_floatILb0EEENS3_14promote_doubleILb0EEENS3_14default_policyESE_SE_SE_SE_SE_SE_SE_SE_EEN4mpl_4int_ILi53EEEE11initializerE"
 "_ZGVN5boost4math6detail17expm1_initializerIeNS0_8policies6policyINS3_10pole_errorILNS3_17error_policy_typeE1EEENS3_14overflow_errorILS6_1EEENS3_13promote_floatILb0EEENS3_14promote_doubleILb0EEENS3_14default_policyESE_SE_SE_SE_SE_SE_SE_SE_EEN4mpl_4int_ILi64EEEE11initializerE"
 "_ZGVN5boost4math6detail17expm1_initializerIeNS0_8policies6policyINS3_13promote_floatILb0EEENS3_14promote_doubleILb0EEENS3_14default_policyES9_S9_S9_S9_S9_S9_S9_S9_S9_S9_EEN4mpl_4int_ILi64EEEE11initializerE"
 "_ZGVN5boost4math6detail17log1p_initializerIeNS0_8policies6policyINS3_10pole_errorILNS3_17error_policy_typeE1EEENS3_14overflow_errorILS6_1EEENS3_13promote_floatILb0EEENS3_14promote_doubleILb0EEENS3_14default_policyESE_SE_SE_SE_SE_SE_SE_SE_EEN4mpl_4int_ILi53EEEE11initializerE"
 "_ZGVN5boost4math6detail17log1p_initializerIeNS0_8policies6policyINS3_10pole_errorILNS3_17error_policy_typeE1EEENS3_14overflow_errorILS6_1EEENS3_13promote_floatILb0EEENS3_14promote_doubleILb0EEENS3_14default_policyESE_SE_SE_SE_SE_SE_SE_SE_EEN4mpl_4int_ILi64EEEE11initializerE"
 "_ZGVN5boost4math6detail17log1p_initializerIeNS0_8policies6policyINS3_13promote_floatILb0EEENS3_14promote_doubleILb0EEENS3_14default_policyES9_S9_S9_S9_S9_S9_S9_S9_S9_S9_EEN4mpl_4int_ILi64EEEE11initializerE"
 "_ZGVN5boost4math6detail18igamma_initializerIeNS0_8policies6policyINS3_13promote_floatILb0EEENS3_14promote_doubleILb0EEENS3_14default_policyES9_S9_S9_S9_S9_S9_S9_S9_S9_S9_EEE11initializerE"
 "_ZGVN5boost4math6detail18lgamma_initializerIeNS0_8policies6policyINS3_10pole_errorILNS3_17error_policy_typeE1EEENS3_14overflow_errorILS6_1EEENS3_13promote_floatILb0EEENS3_14promote_doubleILb0EEENS3_14default_policyESE_SE_SE_SE_SE_SE_SE_SE_EEE11initializerE"
 "_ZGVN5boost4math6detail18lgamma_initializerIeNS0_8policies6policyINS3_13promote_floatILb0EEENS3_14promote_doubleILb0EEENS3_14default_policyES9_S9_S9_S9_S9_S9_S9_S9_S9_S9_EEE11initializerE"
 "_ZGVN5boost4math6detail19digamma_initializerIeNS0_8policies6policyINS3_10pole_errorILNS3_17error_policy_typeE1EEENS3_14overflow_errorILS6_1EEENS3_13promote_floatILb0EEENS3_14promote_doubleILb0EEENS3_14default_policyESE_SE_SE_SE_SE_SE_SE_SE_EEE11initializerE"
 "_ZGVN5boost4math6detail19digamma_initializerIeNS0_8policies6policyINS3_13promote_floatILb0EEENS3_14promote_doubleILb0EEENS3_14default_policyES9_S9_S9_S9_S9_S9_S9_S9_S9_S9_EEE11initializerE"
 "_ZGVN5boost4math6detail19owens_t_initializerIdNS0_8policies6policyINS3_14default_policyES5_S5_S5_S5_S5_S5_S5_S5_S5_S5_S5_S5_EEN4mpl_4int_ILi64EEEE11initializerE"
 "_ZGVN5boost4math6detail21bessel_i0_initializerIeN4mpl_4int_ILi64EEEE11initializerE"
 "_ZGVN5boost4math6detail21bessel_i1_initializerIeN4mpl_4int_ILi64EEEE11initializerE"
 "_ZGVN5boost4math6detail21bessel_j0_initializerIeE11initializerE"
 "_ZGVN5boost4math6detail21bessel_j1_initializerIeE11initializerE"
 "_ZGVN5boost4math6detail21bessel_k0_initializerIeN4mpl_4int_ILi64EEEE11initializerE"
 "_ZGVN5boost4math6detail21bessel_k1_initializerIeN4mpl_4int_ILi64EEEE11initializerE"
 "_ZGVN5boost4math6detail21bessel_y0_initializerIeNS0_8policies6policyINS3_13promote_floatILb0EEENS3_14promote_doubleILb0EEENS3_14default_policyES9_S9_S9_S9_S9_S9_S9_S9_S9_S9_EEE11initializerE"
 "_ZGVN5boost4math6detail21bessel_y1_initializerIeNS0_8policies6policyINS3_13promote_floatILb0EEENS3_14promote_doubleILb0EEENS3_14default_policyES9_S9_S9_S9_S9_S9_S9_S9_S9_S9_EEE11initializerE"
 "_ZGVN5boost4math7lanczos19lanczos_initializerINS1_12lanczos17m64EeE11initializerE"
 "_ZGVZ11stack_tracePKciE3fun"
 "_ZGVZ15getCurrentScopevE3fun"
 "_ZGVZ15setCurrentScopePN4Rcpp6ModuleEE3fun"
 "_ZGVZ19char_get_string_eltP7SEXPRECxE3fun"
 "_ZGVZ20rcpp_get_stack_tracevE3fun"
 "_ZGVZ20rcpp_set_stack_traceP7SEXPRECE3fun"
 "_ZGVZ7dataptrP7SEXPRECE3fun"
 "_ZGVZ8demangleRKSsE3fun"
 "_ZGVZN4Rcpp8internal18get_Rcpp_namespaceEvE3fun"
 "_ZGVZN5boost16exception_detail27get_static_exception_objectINS0_10bad_alloc_EEENS_13exception_ptrEvE2ep"
 "_ZGVZN5boost16exception_detail27get_static_exception_objectINS0_14bad_exception_EEENS_13exception_ptrEvE2ep"
 "_ZGVZN5boost4math6detail13bessel_i0_impIeEET_RKS3_RKN4mpl_4int_ILi64EEEE1P"
 "_ZGVZN5boost4math6detail13bessel_i0_impIeEET_RKS3_RKN4mpl_4int_ILi64EEEE1P_0"
 "_ZGVZN5boost4math6detail13bessel_i0_impIeEET_RKS3_RKN4mpl_4int_ILi64EEEE1P_1"
 "_ZGVZN5boost4math6detail13bessel_i0_impIeEET_RKS3_RKN4mpl_4int_ILi64EEEE1P_2"
 "_ZGVZN5boost4math6detail13bessel_i0_impIeEET_RKS3_RKN4mpl_4int_ILi64EEEE1P_3"
 "_ZGVZN5boost4math6detail13bessel_i1_impIeEET_RKS3_RKN4mpl_4int_ILi64EEEE1P"
 "_ZGVZN5boost4math6detail13bessel_i1_impIeEET_RKS3_RKN4mpl_4int_ILi64EEEE1P_0"
 "_ZGVZN5boost4math6detail13bessel_i1_impIeEET_RKS3_RKN4mpl_4int_ILi64EEEE1P_1"
 "_ZGVZN5boost4math6detail13bessel_i1_impIeEET_RKS3_RKN4mpl_4int_ILi64EEEE1P_2"
 "_ZGVZN5boost4math6detail13bessel_k0_impIeEET_RKS3_RKN4mpl_4int_ILi64EEEE1P"
 "_ZGVZN5boost4math6detail13bessel_k0_impIeEET_RKS3_RKN4mpl_4int_ILi64EEEE1P_0"
 "_ZGVZN5boost4math6detail13bessel_k0_impIeEET_RKS3_RKN4mpl_4int_ILi64EEEE1Q"
 "_ZGVZN5boost4math6detail13bessel_k0_impIeEET_RKS3_RKN4mpl_4int_ILi64EEEE1Q_0"
 "_ZGVZN5boost4math6detail13bessel_k0_impIeEET_RKS3_RKN4mpl_4int_ILi64EEEE2P2"
 "_ZGVZN5boost4math6detail13bessel_k0_impIeEET_RKS3_RKN4mpl_4int_ILi64EEEE2Q2"
 "_ZGVZN5boost4math6detail13bessel_k1_impIeEET_RKS3_RKN4mpl_4int_ILi64EEEE1P"
 "_ZGVZN5boost4math6detail13bessel_k1_impIeEET_RKS3_RKN4mpl_4int_ILi64EEEE1P_0"
 "_ZGVZN5boost4math6detail13bessel_k1_impIeEET_RKS3_RKN4mpl_4int_ILi64EEEE1Q"
 "_ZGVZN5boost4math6detail13bessel_k1_impIeEET_RKS3_RKN4mpl_4int_ILi64EEEE1Q_0"
 "_ZGVZN5boost4math6detail13bessel_k1_impIeEET_RKS3_RKN4mpl_4int_ILi64EEEE2P2"
 "_ZGVZN5boost4math6detail13bessel_k1_impIeEET_RKS3_RKN4mpl_4int_ILi64EEEE2Q2"
 "_ZGVZN5boost4math6detail14owens_t_T3_impIeEET_S3_S3_S3_RKN4mpl_4int_ILi64EEEE2c2"
 "_ZGVZN5boost4math6detail14owens_t_T5_impIeEET_S3_S3_RKN4mpl_4int_ILi64EEEE3pts"
 "_ZGVZN5boost4math6detail14owens_t_T5_impIeEET_S3_S3_RKN4mpl_4int_ILi64EEEE3wts"
 "_ZGVZN5boost4math6detail15digamma_imp_1_2IeEET_S3_PKN4mpl_4int_ILi64EEEE1P"
 "_ZGVZN5boost4math6detail15digamma_imp_1_2IeEET_S3_PKN4mpl_4int_ILi64EEEE1Q"
 "_ZGVZN5boost4math6detail15digamma_imp_1_2IeEET_S3_PKN4mpl_4int_ILi64EEEE5root3"
 "_ZGVZN5boost4math6detail16lgamma_small_impIeNS0_8policies6policyINS3_10pole_errorILNS3_17error_policy_typeE1EEENS3_14overflow_errorILS6_1EEENS3_13promote_floatILb0EEENS3_14promote_doubleILb0EEENS3_14default_policyESE_SE_SE_SE_SE_SE_SE_SE_EENS0_7lanczos12lanczos17m64EEET_SI_SI_SI_RKN4mpl_4int_ILi64EEERKT0_RKT1_E1P"
 "_ZGVZN5boost4math6detail16lgamma_small_impIeNS0_8policies6policyINS3_10pole_errorILNS3_17error_policy_typeE1EEENS3_14overflow_errorILS6_1EEENS3_13promote_floatILb0EEENS3_14promote_doubleILb0EEENS3_14default_policyESE_SE_SE_SE_SE_SE_SE_SE_EENS0_7lanczos12lanczos17m64EEET_SI_SI_SI_RKN4mpl_4int_ILi64EEERKT0_RKT1_E1P_0"
 "_ZGVZN5boost4math6detail16lgamma_small_impIeNS0_8policies6policyINS3_10pole_errorILNS3_17error_policy_typeE1EEENS3_14overflow_errorILS6_1EEENS3_13promote_floatILb0EEENS3_14promote_doubleILb0EEENS3_14default_policyESE_SE_SE_SE_SE_SE_SE_SE_EENS0_7lanczos12lanczos17m64EEET_SI_SI_SI_RKN4mpl_4int_ILi64EEERKT0_RKT1_E1P_1"
 "_ZGVZN5boost4math6detail16lgamma_small_impIeNS0_8policies6policyINS3_10pole_errorILNS3_17error_policy_typeE1EEENS3_14overflow_errorILS6_1EEENS3_13promote_floatILb0EEENS3_14promote_doubleILb0EEENS3_14default_policyESE_SE_SE_SE_SE_SE_SE_SE_EENS0_7lanczos12lanczos17m64EEET_SI_SI_SI_RKN4mpl_4int_ILi64EEERKT0_RKT1_E1Q"
 "_ZGVZN5boost4math6detail16lgamma_small_impIeNS0_8policies6policyINS3_10pole_errorILNS3_17error_policy_typeE1EEENS3_14overflow_errorILS6_1EEENS3_13promote_floatILb0EEENS3_14promote_doubleILb0EEENS3_14default_policyESE_SE_SE_SE_SE_SE_SE_SE_EENS0_7lanczos12lanczos17m64EEET_SI_SI_SI_RKN4mpl_4int_ILi64EEERKT0_RKT1_E1Q_0"
 "_ZGVZN5boost4math6detail16lgamma_small_impIeNS0_8policies6policyINS3_10pole_errorILNS3_17error_policy_typeE1EEENS3_14overflow_errorILS6_1EEENS3_13promote_floatILb0EEENS3_14promote_doubleILb0EEENS3_14default_policyESE_SE_SE_SE_SE_SE_SE_SE_EENS0_7lanczos12lanczos17m64EEET_SI_SI_SI_RKN4mpl_4int_ILi64EEERKT0_RKT1_E1Q_1"
 "_ZGVZN5boost4math6detail16lgamma_small_impIeNS0_8policies6policyINS3_13promote_floatILb0EEENS3_14promote_doubleILb0EEENS3_14default_policyES9_S9_S9_S9_S9_S9_S9_S9_S9_S9_EENS0_7lanczos12lanczos17m64EEET_SD_SD_SD_RKN4mpl_4int_ILi64EEERKT0_RKT1_E1P"
 "_ZGVZN5boost4math6detail16lgamma_small_impIeNS0_8policies6policyINS3_13promote_floatILb0EEENS3_14promote_doubleILb0EEENS3_14default_policyES9_S9_S9_S9_S9_S9_S9_S9_S9_S9_EENS0_7lanczos12lanczos17m64EEET_SD_SD_SD_RKN4mpl_4int_ILi64EEERKT0_RKT1_E1P_0"
 "_ZGVZN5boost4math6detail16lgamma_small_impIeNS0_8policies6policyINS3_13promote_floatILb0EEENS3_14promote_doubleILb0EEENS3_14default_policyES9_S9_S9_S9_S9_S9_S9_S9_S9_S9_EENS0_7lanczos12lanczos17m64EEET_SD_SD_SD_RKN4mpl_4int_ILi64EEERKT0_RKT1_E1P_1"
 "_ZGVZN5boost4math6detail16lgamma_small_impIeNS0_8policies6policyINS3_13promote_floatILb0EEENS3_14promote_doubleILb0EEENS3_14default_policyES9_S9_S9_S9_S9_S9_S9_S9_S9_S9_EENS0_7lanczos12lanczos17m64EEET_SD_SD_SD_RKN4mpl_4int_ILi64EEERKT0_RKT1_E1Q"
 "_ZGVZN5boost4math6detail16lgamma_small_impIeNS0_8policies6policyINS3_13promote_floatILb0EEENS3_14promote_doubleILb0EEENS3_14default_policyES9_S9_S9_S9_S9_S9_S9_S9_S9_S9_EENS0_7lanczos12lanczos17m64EEET_SD_SD_SD_RKN4mpl_4int_ILi64EEERKT0_RKT1_E1Q_0"
 "_ZGVZN5boost4math6detail16lgamma_small_impIeNS0_8policies6policyINS3_13promote_floatILb0EEENS3_14promote_doubleILb0EEENS3_14default_policyES9_S9_S9_S9_S9_S9_S9_S9_S9_S9_EENS0_7lanczos12lanczos17m64EEET_SD_SD_SD_RKN4mpl_4int_ILi64EEERKT0_RKT1_E1Q_1"
 "_ZGVZN5boost4math6detail17digamma_imp_largeIeEET_S3_PKN4mpl_4int_ILi64EEEE1P"
 "_ZGVZN5boost4math6detail18igamma_temme_largeIeNS0_8policies6policyINS3_13promote_floatILb0EEENS3_14promote_doubleILb0EEENS3_14default_policyES9_S9_S9_S9_S9_S9_S9_S9_S9_S9_EEEET_SB_SB_RKT0_PKN4mpl_4int_ILi64EEEE2C0"
 "_ZGVZN5boost4math6detail18igamma_temme_largeIeNS0_8policies6policyINS3_13promote_floatILb0EEENS3_14promote_doubleILb0EEENS3_14default_policyES9_S9_S9_S9_S9_S9_S9_S9_S9_S9_EEEET_SB_SB_RKT0_PKN4mpl_4int_ILi64EEEE2C1"
 "_ZGVZN5boost4math6detail18igamma_temme_largeIeNS0_8policies6policyINS3_13promote_floatILb0EEENS3_14promote_doubleILb0EEENS3_14default_policyES9_S9_S9_S9_S9_S9_S9_S9_S9_S9_EEEET_SB_SB_RKT0_PKN4mpl_4int_ILi64EEEE2C2"
 "_ZGVZN5boost4math6detail18igamma_temme_largeIeNS0_8policies6policyINS3_13promote_floatILb0EEENS3_14promote_doubleILb0EEENS3_14default_policyES9_S9_S9_S9_S9_S9_S9_S9_S9_S9_EEEET_SB_SB_RKT0_PKN4mpl_4int_ILi64EEEE2C3"
 "_ZGVZN5boost4math6detail18igamma_temme_largeIeNS0_8policies6policyINS3_13promote_floatILb0EEENS3_14promote_doubleILb0EEENS3_14default_policyES9_S9_S9_S9_S9_S9_S9_S9_S9_S9_EEEET_SB_SB_RKT0_PKN4mpl_4int_ILi64EEEE2C4"
 "_ZGVZN5boost4math6detail18igamma_temme_largeIeNS0_8policies6policyINS3_13promote_floatILb0EEENS3_14promote_doubleILb0EEENS3_14default_policyES9_S9_S9_S9_S9_S9_S9_S9_S9_S9_EEEET_SB_SB_RKT0_PKN4mpl_4int_ILi64EEEE2C5"
 "_ZGVZN5boost4math6detail18igamma_temme_largeIeNS0_8policies6policyINS3_13promote_floatILb0EEENS3_14promote_doubleILb0EEENS3_14default_policyES9_S9_S9_S9_S9_S9_S9_S9_S9_S9_EEEET_SB_SB_RKT0_PKN4mpl_4int_ILi64EEEE2C6"
 "_ZGVZN5boost4math6detail18igamma_temme_largeIeNS0_8policies6policyINS3_13promote_floatILb0EEENS3_14promote_doubleILb0EEENS3_14default_policyES9_S9_S9_S9_S9_S9_S9_S9_S9_S9_EEEET_SB_SB_RKT0_PKN4mpl_4int_ILi64EEEE2C7"
 "_ZGVZN5boost4math6detail18igamma_temme_largeIeNS0_8policies6policyINS3_13promote_floatILb0EEENS3_14promote_doubleILb0EEENS3_14default_policyES9_S9_S9_S9_S9_S9_S9_S9_S9_S9_EEEET_SB_SB_RKT0_PKN4mpl_4int_ILi64EEEE2C8"
 "_ZGVZN5boost4math6detail18igamma_temme_largeIeNS0_8policies6policyINS3_13promote_floatILb0EEENS3_14promote_doubleILb0EEENS3_14default_policyES9_S9_S9_S9_S9_S9_S9_S9_S9_S9_EEEET_SB_SB_RKT0_PKN4mpl_4int_ILi64EEEE2C9"
 "_ZGVZN5boost4math6detail18igamma_temme_largeIeNS0_8policies6policyINS3_13promote_floatILb0EEENS3_14promote_doubleILb0EEENS3_14default_policyES9_S9_S9_S9_S9_S9_S9_S9_S9_S9_EEEET_SB_SB_RKT0_PKN4mpl_4int_ILi64EEEE3C10"
 "_ZGVZN5boost4math6detail18igamma_temme_largeIeNS0_8policies6policyINS3_13promote_floatILb0EEENS3_14promote_doubleILb0EEENS3_14default_policyES9_S9_S9_S9_S9_S9_S9_S9_S9_S9_EEEET_SB_SB_RKT0_PKN4mpl_4int_ILi64EEEE3C11"
 "_ZGVZN5boost4math6detail18igamma_temme_largeIeNS0_8policies6policyINS3_13promote_floatILb0EEENS3_14promote_doubleILb0EEENS3_14default_policyES9_S9_S9_S9_S9_S9_S9_S9_S9_S9_EEEET_SB_SB_RKT0_PKN4mpl_4int_ILi64EEEE3C12"
 "_ZGVZN5boost4math6detail7erf_impIeNS0_8policies6policyINS3_10pole_errorILNS3_17error_policy_typeE1EEENS3_14overflow_errorILS6_1EEENS3_13promote_floatILb0EEENS3_14promote_doubleILb0EEENS3_14default_policyESE_SE_SE_SE_SE_SE_SE_SE_EEEET_SG_bRKT0_RKN4mpl_4int_ILi64EEEE1c"
 "_ZGVZN5boost4math6detail7erf_impIeNS0_8policies6policyINS3_10pole_errorILNS3_17error_policy_typeE1EEENS3_14overflow_errorILS6_1EEENS3_13promote_floatILb0EEENS3_14promote_doubleILb0EEENS3_14default_policyESE_SE_SE_SE_SE_SE_SE_SE_EEEET_SG_bRKT0_RKN4mpl_4int_ILi64EEEE1P"
 "_ZGVZN5boost4math6detail7erf_impIeNS0_8policies6policyINS3_10pole_errorILNS3_17error_policy_typeE1EEENS3_14overflow_errorILS6_1EEENS3_13promote_floatILb0EEENS3_14promote_doubleILb0EEENS3_14default_policyESE_SE_SE_SE_SE_SE_SE_SE_EEEET_SG_bRKT0_RKN4mpl_4int_ILi64EEEE1P_0"
 "_ZGVZN5boost4math6detail7erf_impIeNS0_8policies6policyINS3_10pole_errorILNS3_17error_policy_typeE1EEENS3_14overflow_errorILS6_1EEENS3_13promote_floatILb0EEENS3_14promote_doubleILb0EEENS3_14default_policyESE_SE_SE_SE_SE_SE_SE_SE_EEEET_SG_bRKT0_RKN4mpl_4int_ILi64EEEE1P_1"
 "_ZGVZN5boost4math6detail7erf_impIeNS0_8policies6policyINS3_10pole_errorILNS3_17error_policy_typeE1EEENS3_14overflow_errorILS6_1EEENS3_13promote_floatILb0EEENS3_14promote_doubleILb0EEENS3_14default_policyESE_SE_SE_SE_SE_SE_SE_SE_EEEET_SG_bRKT0_RKN4mpl_4int_ILi64EEEE1P_2"
 "_ZGVZN5boost4math6detail7erf_impIeNS0_8policies6policyINS3_10pole_errorILNS3_17error_policy_typeE1EEENS3_14overflow_errorILS6_1EEENS3_13promote_floatILb0EEENS3_14promote_doubleILb0EEENS3_14default_policyESE_SE_SE_SE_SE_SE_SE_SE_EEEET_SG_bRKT0_RKN4mpl_4int_ILi64EEEE1P_3"
 "_ZGVZN5boost4math6detail7erf_impIeNS0_8policies6policyINS3_10pole_errorILNS3_17error_policy_typeE1EEENS3_14overflow_errorILS6_1EEENS3_13promote_floatILb0EEENS3_14promote_doubleILb0EEENS3_14default_policyESE_SE_SE_SE_SE_SE_SE_SE_EEEET_SG_bRKT0_RKN4mpl_4int_ILi64EEEE1Q"
 "_ZGVZN5boost4math6detail7erf_impIeNS0_8policies6policyINS3_10pole_errorILNS3_17error_policy_typeE1EEENS3_14overflow_errorILS6_1EEENS3_13promote_floatILb0EEENS3_14promote_doubleILb0EEENS3_14default_policyESE_SE_SE_SE_SE_SE_SE_SE_EEEET_SG_bRKT0_RKN4mpl_4int_ILi64EEEE1Q_0"
 "_ZGVZN5boost4math6detail7erf_impIeNS0_8policies6policyINS3_10pole_errorILNS3_17error_policy_typeE1EEENS3_14overflow_errorILS6_1EEENS3_13promote_floatILb0EEENS3_14promote_doubleILb0EEENS3_14default_policyESE_SE_SE_SE_SE_SE_SE_SE_EEEET_SG_bRKT0_RKN4mpl_4int_ILi64EEEE1Q_1"
 "_ZGVZN5boost4math6detail7erf_impIeNS0_8policies6policyINS3_10pole_errorILNS3_17error_policy_typeE1EEENS3_14overflow_errorILS6_1EEENS3_13promote_floatILb0EEENS3_14promote_doubleILb0EEENS3_14default_policyESE_SE_SE_SE_SE_SE_SE_SE_EEEET_SG_bRKT0_RKN4mpl_4int_ILi64EEEE1Q_2"
 "_ZGVZN5boost4math6detail7erf_impIeNS0_8policies6policyINS3_10pole_errorILNS3_17error_policy_typeE1EEENS3_14overflow_errorILS6_1EEENS3_13promote_floatILb0EEENS3_14promote_doubleILb0EEENS3_14default_policyESE_SE_SE_SE_SE_SE_SE_SE_EEEET_SG_bRKT0_RKN4mpl_4int_ILi64EEEE1Q_3"
 "_ZGVZN5boost4math6detail7erf_impIeNS0_8policies6policyINS3_13promote_floatILb0EEENS3_14promote_doubleILb0EEENS3_14default_policyES9_S9_S9_S9_S9_S9_S9_S9_S9_S9_EEEET_SB_bRKT0_RKN4mpl_4int_ILi64EEEE1c"
 "_ZGVZN5boost4math6detail7erf_impIeNS0_8policies6policyINS3_13promote_floatILb0EEENS3_14promote_doubleILb0EEENS3_14default_policyES9_S9_S9_S9_S9_S9_S9_S9_S9_S9_EEEET_SB_bRKT0_RKN4mpl_4int_ILi64EEEE1P"
 "_ZGVZN5boost4math6detail7erf_impIeNS0_8policies6policyINS3_13promote_floatILb0EEENS3_14promote_doubleILb0EEENS3_14default_policyES9_S9_S9_S9_S9_S9_S9_S9_S9_S9_EEEET_SB_bRKT0_RKN4mpl_4int_ILi64EEEE1P_0"
 "_ZGVZN5boost4math6detail7erf_impIeNS0_8policies6policyINS3_13promote_floatILb0EEENS3_14promote_doubleILb0EEENS3_14default_policyES9_S9_S9_S9_S9_S9_S9_S9_S9_S9_EEEET_SB_bRKT0_RKN4mpl_4int_ILi64EEEE1P_1"
 "_ZGVZN5boost4math6detail7erf_impIeNS0_8policies6policyINS3_13promote_floatILb0EEENS3_14promote_doubleILb0EEENS3_14default_policyES9_S9_S9_S9_S9_S9_S9_S9_S9_S9_EEEET_SB_bRKT0_RKN4mpl_4int_ILi64EEEE1P_2"
 "_ZGVZN5boost4math6detail7erf_impIeNS0_8policies6policyINS3_13promote_floatILb0EEENS3_14promote_doubleILb0EEENS3_14default_policyES9_S9_S9_S9_S9_S9_S9_S9_S9_S9_EEEET_SB_bRKT0_RKN4mpl_4int_ILi64EEEE1P_3"
 "_ZGVZN5boost4math6detail7erf_impIeNS0_8policies6policyINS3_13promote_floatILb0EEENS3_14promote_doubleILb0EEENS3_14default_policyES9_S9_S9_S9_S9_S9_S9_S9_S9_S9_EEEET_SB_bRKT0_RKN4mpl_4int_ILi64EEEE1Q"
 "_ZGVZN5boost4math6detail7erf_impIeNS0_8policies6policyINS3_13promote_floatILb0EEENS3_14promote_doubleILb0EEENS3_14default_policyES9_S9_S9_S9_S9_S9_S9_S9_S9_S9_EEEET_SB_bRKT0_RKN4mpl_4int_ILi64EEEE1Q_0"
 "_ZGVZN5boost4math6detail7erf_impIeNS0_8policies6policyINS3_13promote_floatILb0EEENS3_14promote_doubleILb0EEENS3_14default_policyES9_S9_S9_S9_S9_S9_S9_S9_S9_S9_EEEET_SB_bRKT0_RKN4mpl_4int_ILi64EEEE1Q_1"
 "_ZGVZN5boost4math6detail7erf_impIeNS0_8policies6policyINS3_13promote_floatILb0EEENS3_14promote_doubleILb0EEENS3_14default_policyES9_S9_S9_S9_S9_S9_S9_S9_S9_S9_EEEET_SB_bRKT0_RKN4mpl_4int_ILi64EEEE1Q_2"
 "_ZGVZN5boost4math6detail7erf_impIeNS0_8policies6policyINS3_13promote_floatILb0EEENS3_14promote_doubleILb0EEENS3_14default_policyES9_S9_S9_S9_S9_S9_S9_S9_S9_S9_EEEET_SB_bRKT0_RKN4mpl_4int_ILi64EEEE1Q_3"
 "_ZGVZN5boost4math6detail9bessel_j0IeEET_S3_E2P1"
 "_ZGVZN5boost4math6detail9bessel_j0IeEET_S3_E2P2"
 "_ZGVZN5boost4math6detail9bessel_j0IeEET_S3_E2PC"
 "_ZGVZN5boost4math6detail9bessel_j0IeEET_S3_E2PS"
 "_ZGVZN5boost4math6detail9bessel_j0IeEET_S3_E2Q1"
 "_ZGVZN5boost4math6detail9bessel_j0IeEET_S3_E2Q2"
 "_ZGVZN5boost4math6detail9bessel_j0IeEET_S3_E2QC"
 "_ZGVZN5boost4math6detail9bessel_j0IeEET_S3_E2QS"
 "_ZGVZN5boost4math6detail9bessel_j0IeEET_S3_E2x1"
 "_ZGVZN5boost4math6detail9bessel_j0IeEET_S3_E2x2"
 "_ZGVZN5boost4math6detail9bessel_j0IeEET_S3_E3x11"
 "_ZGVZN5boost4math6detail9bessel_j0IeEET_S3_E3x12"
 "_ZGVZN5boost4math6detail9bessel_j0IeEET_S3_E3x21"
 "_ZGVZN5boost4math6detail9bessel_j0IeEET_S3_E3x22"
 "_ZGVZN5boost4math6detail9bessel_j1IeEET_S3_E2P1"
 "_ZGVZN5boost4math6detail9bessel_j1IeEET_S3_E2P2"
 "_ZGVZN5boost4math6detail9bessel_j1IeEET_S3_E2PC"
 "_ZGVZN5boost4math6detail9bessel_j1IeEET_S3_E2PS"
 "_ZGVZN5boost4math6detail9bessel_j1IeEET_S3_E2Q1"
 "_ZGVZN5boost4math6detail9bessel_j1IeEET_S3_E2Q2"
 "_ZGVZN5boost4math6detail9bessel_j1IeEET_S3_E2QC"
 "_ZGVZN5boost4math6detail9bessel_j1IeEET_S3_E2QS"
 "_ZGVZN5boost4math6detail9bessel_j1IeEET_S3_E2x1"
 "_ZGVZN5boost4math6detail9bessel_j1IeEET_S3_E2x2"
 "_ZGVZN5boost4math6detail9bessel_j1IeEET_S3_E3x11"
 "_ZGVZN5boost4math6detail9bessel_j1IeEET_S3_E3x12"
 "_ZGVZN5boost4math6detail9bessel_j1IeEET_S3_E3x21"
 "_ZGVZN5boost4math6detail9bessel_j1IeEET_S3_E3x22"
 "_ZGVZN5boost4math6detail9bessel_y0IeNS0_8policies6policyINS3_13promote_floatILb0EEENS3_14promote_doubleILb0EEENS3_14default_policyES9_S9_S9_S9_S9_S9_S9_S9_S9_S9_EEEET_SB_RKT0_E2P1"
 "_ZGVZN5boost4math6detail9bessel_y0IeNS0_8policies6policyINS3_13promote_floatILb0EEENS3_14promote_doubleILb0EEENS3_14default_policyES9_S9_S9_S9_S9_S9_S9_S9_S9_S9_EEEET_SB_RKT0_E2P2"
 "_ZGVZN5boost4math6detail9bessel_y0IeNS0_8policies6policyINS3_13promote_floatILb0EEENS3_14promote_doubleILb0EEENS3_14default_policyES9_S9_S9_S9_S9_S9_S9_S9_S9_S9_EEEET_SB_RKT0_E2P3"
 "_ZGVZN5boost4math6detail9bessel_y0IeNS0_8policies6policyINS3_13promote_floatILb0EEENS3_14promote_doubleILb0EEENS3_14default_policyES9_S9_S9_S9_S9_S9_S9_S9_S9_S9_EEEET_SB_RKT0_E2PC"
 "_ZGVZN5boost4math6detail9bessel_y0IeNS0_8policies6policyINS3_13promote_floatILb0EEENS3_14promote_doubleILb0EEENS3_14default_policyES9_S9_S9_S9_S9_S9_S9_S9_S9_S9_EEEET_SB_RKT0_E2PS"
 "_ZGVZN5boost4math6detail9bessel_y0IeNS0_8policies6policyINS3_13promote_floatILb0EEENS3_14promote_doubleILb0EEENS3_14default_policyES9_S9_S9_S9_S9_S9_S9_S9_S9_S9_EEEET_SB_RKT0_E2Q1"
 "_ZGVZN5boost4math6detail9bessel_y0IeNS0_8policies6policyINS3_13promote_floatILb0EEENS3_14promote_doubleILb0EEENS3_14default_policyES9_S9_S9_S9_S9_S9_S9_S9_S9_S9_EEEET_SB_RKT0_E2Q2"
 "_ZGVZN5boost4math6detail9bessel_y0IeNS0_8policies6policyINS3_13promote_floatILb0EEENS3_14promote_doubleILb0EEENS3_14default_policyES9_S9_S9_S9_S9_S9_S9_S9_S9_S9_EEEET_SB_RKT0_E2Q3"
 "_ZGVZN5boost4math6detail9bessel_y0IeNS0_8policies6policyINS3_13promote_floatILb0EEENS3_14promote_doubleILb0EEENS3_14default_policyES9_S9_S9_S9_S9_S9_S9_S9_S9_S9_EEEET_SB_RKT0_E2QC"
 "_ZGVZN5boost4math6detail9bessel_y0IeNS0_8policies6policyINS3_13promote_floatILb0EEENS3_14promote_doubleILb0EEENS3_14default_policyES9_S9_S9_S9_S9_S9_S9_S9_S9_S9_EEEET_SB_RKT0_E2QS"
 "_ZGVZN5boost4math6detail9bessel_y0IeNS0_8policies6policyINS3_13promote_floatILb0EEENS3_14promote_doubleILb0EEENS3_14default_policyES9_S9_S9_S9_S9_S9_S9_S9_S9_S9_EEEET_SB_RKT0_E2x1"
 "_ZGVZN5boost4math6detail9bessel_y0IeNS0_8policies6policyINS3_13promote_floatILb0EEENS3_14promote_doubleILb0EEENS3_14default_policyES9_S9_S9_S9_S9_S9_S9_S9_S9_S9_EEEET_SB_RKT0_E2x2"
 "_ZGVZN5boost4math6detail9bessel_y0IeNS0_8policies6policyINS3_13promote_floatILb0EEENS3_14promote_doubleILb0EEENS3_14default_policyES9_S9_S9_S9_S9_S9_S9_S9_S9_S9_EEEET_SB_RKT0_E2x3"
 "_ZGVZN5boost4math6detail9bessel_y0IeNS0_8policies6policyINS3_13promote_floatILb0EEENS3_14promote_doubleILb0EEENS3_14default_policyES9_S9_S9_S9_S9_S9_S9_S9_S9_S9_EEEET_SB_RKT0_E3x11"
 "_ZGVZN5boost4math6detail9bessel_y0IeNS0_8policies6policyINS3_13promote_floatILb0EEENS3_14promote_doubleILb0EEENS3_14default_policyES9_S9_S9_S9_S9_S9_S9_S9_S9_S9_EEEET_SB_RKT0_E3x12"
 "_ZGVZN5boost4math6detail9bessel_y0IeNS0_8policies6policyINS3_13promote_floatILb0EEENS3_14promote_doubleILb0EEENS3_14default_policyES9_S9_S9_S9_S9_S9_S9_S9_S9_S9_EEEET_SB_RKT0_E3x21"
 "_ZGVZN5boost4math6detail9bessel_y0IeNS0_8policies6policyINS3_13promote_floatILb0EEENS3_14promote_doubleILb0EEENS3_14default_policyES9_S9_S9_S9_S9_S9_S9_S9_S9_S9_EEEET_SB_RKT0_E3x22"
 "_ZGVZN5boost4math6detail9bessel_y0IeNS0_8policies6policyINS3_13promote_floatILb0EEENS3_14promote_doubleILb0EEENS3_14default_policyES9_S9_S9_S9_S9_S9_S9_S9_S9_S9_EEEET_SB_RKT0_E3x31"
 "_ZGVZN5boost4math6detail9bessel_y0IeNS0_8policies6policyINS3_13promote_floatILb0EEENS3_14promote_doubleILb0EEENS3_14default_policyES9_S9_S9_S9_S9_S9_S9_S9_S9_S9_EEEET_SB_RKT0_E3x32"
 "_ZGVZN5boost4math6detail9bessel_y1IeNS0_8policies6policyINS3_13promote_floatILb0EEENS3_14promote_doubleILb0EEENS3_14default_policyES9_S9_S9_S9_S9_S9_S9_S9_S9_S9_EEEET_SB_RKT0_E2P1"
 "_ZGVZN5boost4math6detail9bessel_y1IeNS0_8policies6policyINS3_13promote_floatILb0EEENS3_14promote_doubleILb0EEENS3_14default_policyES9_S9_S9_S9_S9_S9_S9_S9_S9_S9_EEEET_SB_RKT0_E2P2"
 "_ZGVZN5boost4math6detail9bessel_y1IeNS0_8policies6policyINS3_13promote_floatILb0EEENS3_14promote_doubleILb0EEENS3_14default_policyES9_S9_S9_S9_S9_S9_S9_S9_S9_S9_EEEET_SB_RKT0_E2PC"
 "_ZGVZN5boost4math6detail9bessel_y1IeNS0_8policies6policyINS3_13promote_floatILb0EEENS3_14promote_doubleILb0EEENS3_14default_policyES9_S9_S9_S9_S9_S9_S9_S9_S9_S9_EEEET_SB_RKT0_E2PS"
 "_ZGVZN5boost4math6detail9bessel_y1IeNS0_8policies6policyINS3_13promote_floatILb0EEENS3_14promote_doubleILb0EEENS3_14default_policyES9_S9_S9_S9_S9_S9_S9_S9_S9_S9_EEEET_SB_RKT0_E2Q1"
 "_ZGVZN5boost4math6detail9bessel_y1IeNS0_8policies6policyINS3_13promote_floatILb0EEENS3_14promote_doubleILb0EEENS3_14default_policyES9_S9_S9_S9_S9_S9_S9_S9_S9_S9_EEEET_SB_RKT0_E2Q2"
 "_ZGVZN5boost4math6detail9bessel_y1IeNS0_8policies6policyINS3_13promote_floatILb0EEENS3_14promote_doubleILb0EEENS3_14default_policyES9_S9_S9_S9_S9_S9_S9_S9_S9_S9_EEEET_SB_RKT0_E2QC"
 "_ZGVZN5boost4math6detail9bessel_y1IeNS0_8policies6policyINS3_13promote_floatILb0EEENS3_14promote_doubleILb0EEENS3_14default_policyES9_S9_S9_S9_S9_S9_S9_S9_S9_S9_EEEET_SB_RKT0_E2QS"
 "_ZGVZN5boost4math6detail9bessel_y1IeNS0_8policies6policyINS3_13promote_floatILb0EEENS3_14promote_doubleILb0EEENS3_14default_policyES9_S9_S9_S9_S9_S9_S9_S9_S9_S9_EEEET_SB_RKT0_E2x1"
 "_ZGVZN5boost4math6detail9bessel_y1IeNS0_8policies6policyINS3_13promote_floatILb0EEENS3_14promote_doubleILb0EEENS3_14default_policyES9_S9_S9_S9_S9_S9_S9_S9_S9_S9_EEEET_SB_RKT0_E2x2"
 "_ZGVZN5boost4math6detail9bessel_y1IeNS0_8policies6policyINS3_13promote_floatILb0EEENS3_14promote_doubleILb0EEENS3_14default_policyES9_S9_S9_S9_S9_S9_S9_S9_S9_S9_EEEET_SB_RKT0_E3x11"
 "_ZGVZN5boost4math6detail9bessel_y1IeNS0_8policies6policyINS3_13promote_floatILb0EEENS3_14promote_doubleILb0EEENS3_14default_policyES9_S9_S9_S9_S9_S9_S9_S9_S9_S9_EEEET_SB_RKT0_E3x12"
 "_ZGVZN5boost4math6detail9bessel_y1IeNS0_8policies6policyINS3_13promote_floatILb0EEENS3_14promote_doubleILb0EEENS3_14default_policyES9_S9_S9_S9_S9_S9_S9_S9_S9_S9_EEEET_SB_RKT0_E3x21"
 "_ZGVZN5boost4math6detail9bessel_y1IeNS0_8policies6policyINS3_13promote_floatILb0EEENS3_14promote_doubleILb0EEENS3_14default_policyES9_S9_S9_S9_S9_S9_S9_S9_S9_S9_EEEET_SB_RKT0_E3x22"
 "_ZGVZN5boost4math6detail9expm1_impIeNS0_8policies6policyINS3_13promote_floatILb0EEENS3_14promote_doubleILb0EEENS3_14default_policyES9_S9_S9_S9_S9_S9_S9_S9_S9_S9_EEEET_SB_RKN4mpl_4int_ILi64EEERKT0_E1d"
 "_ZGVZN5boost4math6detail9expm1_impIeNS0_8policies6policyINS3_13promote_floatILb0EEENS3_14promote_doubleILb0EEENS3_14default_policyES9_S9_S9_S9_S9_S9_S9_S9_S9_S9_EEEET_SB_RKN4mpl_4int_ILi64EEERKT0_E1n"
 "_ZGVZN5boost4math6detail9log1p_impIeNS0_8policies6policyINS3_10pole_errorILNS3_17error_policy_typeE1EEENS3_14overflow_errorILS6_1EEENS3_13promote_floatILb0EEENS3_14promote_doubleILb0EEENS3_14default_policyESE_SE_SE_SE_SE_SE_SE_SE_EEEET_RKSG_RKT0_RKN4mpl_4int_ILi64EEEE1P"
 "_ZGVZN5boost4math6detail9log1p_impIeNS0_8policies6policyINS3_10pole_errorILNS3_17error_policy_typeE1EEENS3_14overflow_errorILS6_1EEENS3_13promote_floatILb0EEENS3_14promote_doubleILb0EEENS3_14default_policyESE_SE_SE_SE_SE_SE_SE_SE_EEEET_RKSG_RKT0_RKN4mpl_4int_ILi64EEEE1Q"
 "_ZGVZN5boost4math6detail9log1p_impIeNS0_8policies6policyINS3_13promote_floatILb0EEENS3_14promote_doubleILb0EEENS3_14default_policyES9_S9_S9_S9_S9_S9_S9_S9_S9_S9_EEEET_RKSB_RKT0_RKN4mpl_4int_ILi64EEEE1P"
 "_ZGVZN5boost4math6detail9log1p_impIeNS0_8policies6policyINS3_13promote_floatILb0EEENS3_14promote_doubleILb0EEENS3_14default_policyES9_S9_S9_S9_S9_S9_S9_S9_S9_S9_EEEET_RKSB_RKT0_RKN4mpl_4int_ILi64EEEE1Q"
 "_ZGVZN5boost4math7lanczos12lanczos17m6411lanczos_sumIeEET_RKS4_E3num"
 "_ZGVZN5boost4math7lanczos12lanczos17m6418lanczos_sum_near_1IeEET_RKS4_E1d"
 "_ZGVZN5boost4math7lanczos12lanczos17m6418lanczos_sum_near_2IeEET_RKS4_E1d"
 "_ZGVZN5boost4math7lanczos12lanczos17m6423lanczos_sum_expG_scaledIeEET_RKS4_E3num"
 "_ZGVZN5Eigen8internal20manage_caching_sizesENS_6ActionEPxS2_S2_E12m_cacheSizes"
 "_ZGVZN5Eigen8internal4pexpIU8__vectordEET_RKS3_E10p4i_1023_0"
 "_ZN10tinyformat6detail10formatImplERSoPKcPKNS0_9FormatArgEi"
 "_ZN10tinyformat6detail15formatTruncatedIiEEvRSoRKT_i"
 "_ZN10tinyformat6detail15formatTruncatedISsEEvRSoRKT_i"
 "_ZN10tinyformat6detail21streamStateFromFormatERSoRbRiPKcPKNS0_9FormatArgES3_i"
 "_ZN10tinyformat6detail9FormatArg10formatImplIiEEvRSoPKcS5_iPKv"
 "_ZN10tinyformat6detail9FormatArg10formatImplIPKcEEvRSoS4_S4_iPKv"
 "_ZN10tinyformat6detail9FormatArg10formatImplISsEEvRSoPKcS5_iPKv"
 "_ZN10tinyformat6detail9FormatArg9toIntImplIiEEiPKv"
 "_ZN10tinyformat6detail9FormatArg9toIntImplIPKcEEiPKv"
 "_ZN10tinyformat6detail9FormatArg9toIntImplISsEEiPKv"
 "_ZN10tinyformat6formatIIEEESsPKcDpRKT_"
 "_ZN10tinyformat6formatIIiEEESsPKcDpRKT_"
 "_ZN10tinyformat6formatIIPKcEEESsS2_DpRKT_"
 "_ZN10tinyformat6formatIIPKciEEESsS2_DpRKT_"
 "_ZN10tinyformat6formatIIPKcS2_EEESsS2_DpRKT_"
 "_ZN10tinyformat6formatIISsEEESsPKcDpRKT_"
 "_ZN24model_stan_pcm_namespace13prog_reader__Ev"
 "_ZN24model_stan_pcm_namespace14model_stan_pcm9ctor_bodyERN4stan2io11var_contextEjPSo"
 "_ZN24model_stan_pcm_namespace14model_stan_pcmD0Ev"
 "_ZN24model_stan_pcm_namespace14model_stan_pcmD1Ev"
 "_ZN24model_stan_pcm_namespace9pcm_probsIddiEEN5Eigen6MatrixIN5boost4math5tools12promote_argsIT_T0_T1_fffE4typeELin1ELi1ELi0ELin1ELi1EEERKS7_RKNS2_IS8_Li1ELin1ELi1ELi1ELin1EEERKS9_PSo"
 "_ZN24model_stan_pcm_namespace9pcm_probsIN4stan4math3varES3_iEEN5Eigen6MatrixIN5boost4math5tools12promote_argsIT_T0_T1_fffE4typeELin1ELi1ELi0ELin1ELi1EEERKSA_RKNS5_ISB_Li1ELin1ELi1ELi1ELin1EEERKSC_PSo"
 "_ZN26model_stan_steps_namespace13prog_reader__Ev"
 "_ZN26model_stan_steps_namespace16model_stan_steps9ctor_bodyERN4stan2io11var_contextEjPSo"
 "_ZN26model_stan_steps_namespace16model_stan_stepsD0Ev"
 "_ZN26model_stan_steps_namespace16model_stan_stepsD1Ev"
 "_ZN30model_stan_boeck_ext_namespace13prog_reader__Ev"
 "_ZN30model_stan_boeck_ext_namespace20model_stan_boeck_ext9ctor_bodyERN4stan2io11var_contextEjPSo"
 "_ZN30model_stan_boeck_ext_namespace20model_stan_boeck_extD0Ev"
 "_ZN30model_stan_boeck_ext_namespace20model_stan_boeck_extD1Ev"
 "_ZN31model_stan_boeck_2012_namespace13prog_reader__Ev"
 "_ZN31model_stan_boeck_2012_namespace21model_stan_boeck_20129ctor_bodyERN4stan2io11var_contextEjPSo"
 "_ZN31model_stan_boeck_2012_namespace21model_stan_boeck_2012D0Ev"
 "_ZN31model_stan_boeck_2012_namespace21model_stan_boeck_2012D1Ev"
 "_ZN31model_stan_boeck_ext2_namespace13prog_reader__Ev"
 "_ZN31model_stan_boeck_ext2_namespace21model_stan_boeck_ext29ctor_bodyERN4stan2io11var_contextEjPSo"
 "_ZN31model_stan_boeck_ext2_namespace21model_stan_boeck_ext2D0Ev"
 "_ZN31model_stan_boeck_ext2_namespace21model_stan_boeck_ext2D1Ev"
 "_ZN32model_stan_boeck_shift_namespace13prog_reader__Ev"
 "_ZN32model_stan_boeck_shift_namespace22model_stan_boeck_shift9ctor_bodyERN4stan2io11var_contextEjPSo"
 "_ZN32model_stan_boeck_shift_namespace22model_stan_boeck_shiftD0Ev"
 "_ZN32model_stan_boeck_shift_namespace22model_stan_boeck_shiftD1Ev"
 "_ZN33model_stan_boeck_ext_HH_namespace13prog_reader__Ev"
 "_ZN33model_stan_boeck_ext_HH_namespace23model_stan_boeck_ext_HH9ctor_bodyERN4stan2io11var_contextEjPSo"
 "_ZN33model_stan_boeck_ext_HH_namespace23model_stan_boeck_ext_HHD0Ev"
 "_ZN33model_stan_boeck_ext_HH_namespace23model_stan_boeck_ext_HHD1Ev"
 "_ZN4Rcpp10class_Base10getMethodsERKNS_4XPtrIS0_NS_15PreserveStorageEXadL_ZNS_25standard_delete_finalizerIS0_EEvPT_EELb0EEERSs"
 "_ZN4Rcpp10class_Base10has_methodERKSs"
 "_ZN4Rcpp10class_Base11getPropertyEP7SEXPRECS2_"
 "_ZN4Rcpp10class_Base11invoke_voidEP7SEXPRECS2_PS2_i"
 "_ZN4Rcpp10class_Base11newInstanceEPP7SEXPRECi"
 "_ZN4Rcpp10class_Base11setPropertyEP7SEXPRECS2_S2_"
 "_ZN4Rcpp10class_Base12has_propertyERKSs"
 "_ZN4Rcpp10class_Base12method_namesEv"
 "_ZN4Rcpp10class_Base13methods_arityEv"
 "_ZN4Rcpp10class_Base13run_finalizerEP7SEXPREC"
 "_ZN4Rcpp10class_Base14invoke_notvoidEP7SEXPRECS2_PS2_i"
 "_ZN4Rcpp10class_Base14property_classERKSs"
 "_ZN4Rcpp10class_Base14property_namesEv"
 "_ZN4Rcpp10class_Base15getConstructorsERKNS_4XPtrIS0_NS_15PreserveStorageEXadL_ZNS_25standard_delete_finalizerIS0_EEvPT_EELb0EEERSs"
 "_ZN4Rcpp10class_Base16methods_voidnessEv"
 "_ZN4Rcpp10class_Base16property_classesEv"
 "_ZN4Rcpp10class_Base17get_typeinfo_nameEv"
 "_ZN4Rcpp10class_Base20property_is_readonlyERKSs"
 "_ZN4Rcpp10class_Base23has_default_constructorEv"
 "_ZN4Rcpp10class_Base6fieldsERKNS_4XPtrIS0_NS_15PreserveStorageEXadL_ZNS_25standard_delete_finalizerIS0_EEvPT_EELb0EEE"
 "_ZN4Rcpp10class_Base6invokeEP7SEXPRECS2_PS2_i"
 "_ZN4Rcpp10class_Base8completeEv"
 "_ZN4Rcpp10class_BaseD0Ev"
 "_ZN4Rcpp10class_BaseD1Ev"
 "_ZN4Rcpp10class_BaseD2Ev"
 "_ZN4Rcpp10CppMethod0IN5rstan8stan_fitIN24model_stan_pcm_namespace14model_stan_pcmEN5boost6random23additive_combine_engineINS6_26linear_congruential_engineIjLj40014ELj0ELj2147483563EEENS8_IjLj40692ELj0ELj2147483399EEEEEEEP7SEXPRECE5nargsEv"
 "_ZN4Rcpp10CppMethod0IN5rstan8stan_fitIN24model_stan_pcm_namespace14model_stan_pcmEN5boost6random23additive_combine_engineINS6_26linear_congruential_engineIjLj40014ELj0ELj2147483563EEENS8_IjLj40692ELj0ELj2147483399EEEEEEEP7SEXPRECE7is_voidEv"
 "_ZN4Rcpp10CppMethod0IN5rstan8stan_fitIN24model_stan_pcm_namespace14model_stan_pcmEN5boost6random23additive_combine_engineINS6_26linear_congruential_engineIjLj40014ELj0ELj2147483563EEENS8_IjLj40692ELj0ELj2147483399EEEEEEEP7SEXPRECE8is_constEv"
 "_ZN4Rcpp10CppMethod0IN5rstan8stan_fitIN24model_stan_pcm_namespace14model_stan_pcmEN5boost6random23additive_combine_engineINS6_26linear_congruential_engineIjLj40014ELj0ELj2147483563EEENS8_IjLj40692ELj0ELj2147483399EEEEEEEP7SEXPRECE9signatureERSsPKc"
 "_ZN4Rcpp10CppMethod0IN5rstan8stan_fitIN24model_stan_pcm_namespace14model_stan_pcmEN5boost6random23additive_combine_engineINS6_26linear_congruential_engineIjLj40014ELj0ELj2147483563EEENS8_IjLj40692ELj0ELj2147483399EEEEEEEP7SEXPRECEclEPSC_PSE_"
 "_ZN4Rcpp10CppMethod0IN5rstan8stan_fitIN24model_stan_pcm_namespace14model_stan_pcmEN5boost6random23additive_combine_engineINS6_26linear_congruential_engineIjLj40014ELj0ELj2147483563EEENS8_IjLj40692ELj0ELj2147483399EEEEEEEP7SEXPRECED0Ev"
 "_ZN4Rcpp10CppMethod0IN5rstan8stan_fitIN24model_stan_pcm_namespace14model_stan_pcmEN5boost6random23additive_combine_engineINS6_26linear_congruential_engineIjLj40014ELj0ELj2147483563EEENS8_IjLj40692ELj0ELj2147483399EEEEEEEP7SEXPRECED1Ev"
 "_ZN4Rcpp10CppMethod0IN5rstan8stan_fitIN26model_stan_steps_namespace16model_stan_stepsEN5boost6random23additive_combine_engineINS6_26linear_congruential_engineIjLj40014ELj0ELj2147483563EEENS8_IjLj40692ELj0ELj2147483399EEEEEEEP7SEXPRECE5nargsEv"
 "_ZN4Rcpp10CppMethod0IN5rstan8stan_fitIN26model_stan_steps_namespace16model_stan_stepsEN5boost6random23additive_combine_engineINS6_26linear_congruential_engineIjLj40014ELj0ELj2147483563EEENS8_IjLj40692ELj0ELj2147483399EEEEEEEP7SEXPRECE7is_voidEv"
 "_ZN4Rcpp10CppMethod0IN5rstan8stan_fitIN26model_stan_steps_namespace16model_stan_stepsEN5boost6random23additive_combine_engineINS6_26linear_congruential_engineIjLj40014ELj0ELj2147483563EEENS8_IjLj40692ELj0ELj2147483399EEEEEEEP7SEXPRECE8is_constEv"
 "_ZN4Rcpp10CppMethod0IN5rstan8stan_fitIN26model_stan_steps_namespace16model_stan_stepsEN5boost6random23additive_combine_engineINS6_26linear_congruential_engineIjLj40014ELj0ELj2147483563EEENS8_IjLj40692ELj0ELj2147483399EEEEEEEP7SEXPRECE9signatureERSsPKc"
 "_ZN4Rcpp10CppMethod0IN5rstan8stan_fitIN26model_stan_steps_namespace16model_stan_stepsEN5boost6random23additive_combine_engineINS6_26linear_congruential_engineIjLj40014ELj0ELj2147483563EEENS8_IjLj40692ELj0ELj2147483399EEEEEEEP7SEXPRECEclEPSC_PSE_"
 "_ZN4Rcpp10CppMethod0IN5rstan8stan_fitIN26model_stan_steps_namespace16model_stan_stepsEN5boost6random23additive_combine_engineINS6_26linear_congruential_engineIjLj40014ELj0ELj2147483563EEENS8_IjLj40692ELj0ELj2147483399EEEEEEEP7SEXPRECED0Ev"
 "_ZN4Rcpp10CppMethod0IN5rstan8stan_fitIN26model_stan_steps_namespace16model_stan_stepsEN5boost6random23additive_combine_engineINS6_26linear_congruential_engineIjLj40014ELj0ELj2147483563EEENS8_IjLj40692ELj0ELj2147483399EEEEEEEP7SEXPRECED1Ev"
 "_ZN4Rcpp10CppMethod0IN5rstan8stan_fitIN30model_stan_boeck_ext_namespace20model_stan_boeck_extEN5boost6random23additive_combine_engineINS6_26linear_congruential_engineIjLj40014ELj0ELj2147483563EEENS8_IjLj40692ELj0ELj2147483399EEEEEEEP7SEXPRECE5nargsEv"
 "_ZN4Rcpp10CppMethod0IN5rstan8stan_fitIN30model_stan_boeck_ext_namespace20model_stan_boeck_extEN5boost6random23additive_combine_engineINS6_26linear_congruential_engineIjLj40014ELj0ELj2147483563EEENS8_IjLj40692ELj0ELj2147483399EEEEEEEP7SEXPRECE7is_voidEv"
 "_ZN4Rcpp10CppMethod0IN5rstan8stan_fitIN30model_stan_boeck_ext_namespace20model_stan_boeck_extEN5boost6random23additive_combine_engineINS6_26linear_congruential_engineIjLj40014ELj0ELj2147483563EEENS8_IjLj40692ELj0ELj2147483399EEEEEEEP7SEXPRECE8is_constEv"
 "_ZN4Rcpp10CppMethod0IN5rstan8stan_fitIN30model_stan_boeck_ext_namespace20model_stan_boeck_extEN5boost6random23additive_combine_engineINS6_26linear_congruential_engineIjLj40014ELj0ELj2147483563EEENS8_IjLj40692ELj0ELj2147483399EEEEEEEP7SEXPRECE9signatureERSsPKc"
 "_ZN4Rcpp10CppMethod0IN5rstan8stan_fitIN30model_stan_boeck_ext_namespace20model_stan_boeck_extEN5boost6random23additive_combine_engineINS6_26linear_congruential_engineIjLj40014ELj0ELj2147483563EEENS8_IjLj40692ELj0ELj2147483399EEEEEEEP7SEXPRECEclEPSC_PSE_"
 "_ZN4Rcpp10CppMethod0IN5rstan8stan_fitIN30model_stan_boeck_ext_namespace20model_stan_boeck_extEN5boost6random23additive_combine_engineINS6_26linear_congruential_engineIjLj40014ELj0ELj2147483563EEENS8_IjLj40692ELj0ELj2147483399EEEEEEEP7SEXPRECED0Ev"
 "_ZN4Rcpp10CppMethod0IN5rstan8stan_fitIN30model_stan_boeck_ext_namespace20model_stan_boeck_extEN5boost6random23additive_combine_engineINS6_26linear_congruential_engineIjLj40014ELj0ELj2147483563EEENS8_IjLj40692ELj0ELj2147483399EEEEEEEP7SEXPRECED1Ev"
 "_ZN4Rcpp10CppMethod0IN5rstan8stan_fitIN31model_stan_boeck_2012_namespace21model_stan_boeck_2012EN5boost6random23additive_combine_engineINS6_26linear_congruential_engineIjLj40014ELj0ELj2147483563EEENS8_IjLj40692ELj0ELj2147483399EEEEEEEP7SEXPRECE5nargsEv"
 "_ZN4Rcpp10CppMethod0IN5rstan8stan_fitIN31model_stan_boeck_2012_namespace21model_stan_boeck_2012EN5boost6random23additive_combine_engineINS6_26linear_congruential_engineIjLj40014ELj0ELj2147483563EEENS8_IjLj40692ELj0ELj2147483399EEEEEEEP7SEXPRECE7is_voidEv"
 "_ZN4Rcpp10CppMethod0IN5rstan8stan_fitIN31model_stan_boeck_2012_namespace21model_stan_boeck_2012EN5boost6random23additive_combine_engineINS6_26linear_congruential_engineIjLj40014ELj0ELj2147483563EEENS8_IjLj40692ELj0ELj2147483399EEEEEEEP7SEXPRECE8is_constEv"
 "_ZN4Rcpp10CppMethod0IN5rstan8stan_fitIN31model_stan_boeck_2012_namespace21model_stan_boeck_2012EN5boost6random23additive_combine_engineINS6_26linear_congruential_engineIjLj40014ELj0ELj2147483563EEENS8_IjLj40692ELj0ELj2147483399EEEEEEEP7SEXPRECE9signatureERSsPKc"
 "_ZN4Rcpp10CppMethod0IN5rstan8stan_fitIN31model_stan_boeck_2012_namespace21model_stan_boeck_2012EN5boost6random23additive_combine_engineINS6_26linear_congruential_engineIjLj40014ELj0ELj2147483563EEENS8_IjLj40692ELj0ELj2147483399EEEEEEEP7SEXPRECEclEPSC_PSE_"
 "_ZN4Rcpp10CppMethod0IN5rstan8stan_fitIN31model_stan_boeck_2012_namespace21model_stan_boeck_2012EN5boost6random23additive_combine_engineINS6_26linear_congruential_engineIjLj40014ELj0ELj2147483563EEENS8_IjLj40692ELj0ELj2147483399EEEEEEEP7SEXPRECED0Ev"
 "_ZN4Rcpp10CppMethod0IN5rstan8stan_fitIN31model_stan_boeck_2012_namespace21model_stan_boeck_2012EN5boost6random23additive_combine_engineINS6_26linear_congruential_engineIjLj40014ELj0ELj2147483563EEENS8_IjLj40692ELj0ELj2147483399EEEEEEEP7SEXPRECED1Ev"
 "_ZN4Rcpp10CppMethod0IN5rstan8stan_fitIN31model_stan_boeck_ext2_namespace21model_stan_boeck_ext2EN5boost6random23additive_combine_engineINS6_26linear_congruential_engineIjLj40014ELj0ELj2147483563EEENS8_IjLj40692ELj0ELj2147483399EEEEEEEP7SEXPRECE5nargsEv"
 "_ZN4Rcpp10CppMethod0IN5rstan8stan_fitIN31model_stan_boeck_ext2_namespace21model_stan_boeck_ext2EN5boost6random23additive_combine_engineINS6_26linear_congruential_engineIjLj40014ELj0ELj2147483563EEENS8_IjLj40692ELj0ELj2147483399EEEEEEEP7SEXPRECE7is_voidEv"
 "_ZN4Rcpp10CppMethod0IN5rstan8stan_fitIN31model_stan_boeck_ext2_namespace21model_stan_boeck_ext2EN5boost6random23additive_combine_engineINS6_26linear_congruential_engineIjLj40014ELj0ELj2147483563EEENS8_IjLj40692ELj0ELj2147483399EEEEEEEP7SEXPRECE8is_constEv"
 "_ZN4Rcpp10CppMethod0IN5rstan8stan_fitIN31model_stan_boeck_ext2_namespace21model_stan_boeck_ext2EN5boost6random23additive_combine_engineINS6_26linear_congruential_engineIjLj40014ELj0ELj2147483563EEENS8_IjLj40692ELj0ELj2147483399EEEEEEEP7SEXPRECE9signatureERSsPKc"
 "_ZN4Rcpp10CppMethod0IN5rstan8stan_fitIN31model_stan_boeck_ext2_namespace21model_stan_boeck_ext2EN5boost6random23additive_combine_engineINS6_26linear_congruential_engineIjLj40014ELj0ELj2147483563EEENS8_IjLj40692ELj0ELj2147483399EEEEEEEP7SEXPRECEclEPSC_PSE_"
 "_ZN4Rcpp10CppMethod0IN5rstan8stan_fitIN31model_stan_boeck_ext2_namespace21model_stan_boeck_ext2EN5boost6random23additive_combine_engineINS6_26linear_congruential_engineIjLj40014ELj0ELj2147483563EEENS8_IjLj40692ELj0ELj2147483399EEEEEEEP7SEXPRECED0Ev"
 "_ZN4Rcpp10CppMethod0IN5rstan8stan_fitIN31model_stan_boeck_ext2_namespace21model_stan_boeck_ext2EN5boost6random23additive_combine_engineINS6_26linear_congruential_engineIjLj40014ELj0ELj2147483563EEENS8_IjLj40692ELj0ELj2147483399EEEEEEEP7SEXPRECED1Ev"
 "_ZN4Rcpp10CppMethod0IN5rstan8stan_fitIN32model_stan_boeck_shift_namespace22model_stan_boeck_shiftEN5boost6random23additive_combine_engineINS6_26linear_congruential_engineIjLj40014ELj0ELj2147483563EEENS8_IjLj40692ELj0ELj2147483399EEEEEEEP7SEXPRECE5nargsEv"
 "_ZN4Rcpp10CppMethod0IN5rstan8stan_fitIN32model_stan_boeck_shift_namespace22model_stan_boeck_shiftEN5boost6random23additive_combine_engineINS6_26linear_congruential_engineIjLj40014ELj0ELj2147483563EEENS8_IjLj40692ELj0ELj2147483399EEEEEEEP7SEXPRECE7is_voidEv"
 "_ZN4Rcpp10CppMethod0IN5rstan8stan_fitIN32model_stan_boeck_shift_namespace22model_stan_boeck_shiftEN5boost6random23additive_combine_engineINS6_26linear_congruential_engineIjLj40014ELj0ELj2147483563EEENS8_IjLj40692ELj0ELj2147483399EEEEEEEP7SEXPRECE8is_constEv"
 "_ZN4Rcpp10CppMethod0IN5rstan8stan_fitIN32model_stan_boeck_shift_namespace22model_stan_boeck_shiftEN5boost6random23additive_combine_engineINS6_26linear_congruential_engineIjLj40014ELj0ELj2147483563EEENS8_IjLj40692ELj0ELj2147483399EEEEEEEP7SEXPRECE9signatureERSsPKc"
 "_ZN4Rcpp10CppMethod0IN5rstan8stan_fitIN32model_stan_boeck_shift_namespace22model_stan_boeck_shiftEN5boost6random23additive_combine_engineINS6_26linear_congruential_engineIjLj40014ELj0ELj2147483563EEENS8_IjLj40692ELj0ELj2147483399EEEEEEEP7SEXPRECEclEPSC_PSE_"
 "_ZN4Rcpp10CppMethod0IN5rstan8stan_fitIN32model_stan_boeck_shift_namespace22model_stan_boeck_shiftEN5boost6random23additive_combine_engineINS6_26linear_congruential_engineIjLj40014ELj0ELj2147483563EEENS8_IjLj40692ELj0ELj2147483399EEEEEEEP7SEXPRECED0Ev"
 "_ZN4Rcpp10CppMethod0IN5rstan8stan_fitIN32model_stan_boeck_shift_namespace22model_stan_boeck_shiftEN5boost6random23additive_combine_engineINS6_26linear_congruential_engineIjLj40014ELj0ELj2147483563EEENS8_IjLj40692ELj0ELj2147483399EEEEEEEP7SEXPRECED1Ev"
 "_ZN4Rcpp10CppMethod0IN5rstan8stan_fitIN33model_stan_boeck_ext_HH_namespace23model_stan_boeck_ext_HHEN5boost6random23additive_combine_engineINS6_26linear_congruential_engineIjLj40014ELj0ELj2147483563EEENS8_IjLj40692ELj0ELj2147483399EEEEEEEP7SEXPRECE5nargsEv"
 "_ZN4Rcpp10CppMethod0IN5rstan8stan_fitIN33model_stan_boeck_ext_HH_namespace23model_stan_boeck_ext_HHEN5boost6random23additive_combine_engineINS6_26linear_congruential_engineIjLj40014ELj0ELj2147483563EEENS8_IjLj40692ELj0ELj2147483399EEEEEEEP7SEXPRECE7is_voidEv"
 "_ZN4Rcpp10CppMethod0IN5rstan8stan_fitIN33model_stan_boeck_ext_HH_namespace23model_stan_boeck_ext_HHEN5boost6random23additive_combine_engineINS6_26linear_congruential_engineIjLj40014ELj0ELj2147483563EEENS8_IjLj40692ELj0ELj2147483399EEEEEEEP7SEXPRECE8is_constEv"
 "_ZN4Rcpp10CppMethod0IN5rstan8stan_fitIN33model_stan_boeck_ext_HH_namespace23model_stan_boeck_ext_HHEN5boost6random23additive_combine_engineINS6_26linear_congruential_engineIjLj40014ELj0ELj2147483563EEENS8_IjLj40692ELj0ELj2147483399EEEEEEEP7SEXPRECE9signatureERSsPKc"
 "_ZN4Rcpp10CppMethod0IN5rstan8stan_fitIN33model_stan_boeck_ext_HH_namespace23model_stan_boeck_ext_HHEN5boost6random23additive_combine_engineINS6_26linear_congruential_engineIjLj40014ELj0ELj2147483563EEENS8_IjLj40692ELj0ELj2147483399EEEEEEEP7SEXPRECEclEPSC_PSE_"
 "_ZN4Rcpp10CppMethod0IN5rstan8stan_fitIN33model_stan_boeck_ext_HH_namespace23model_stan_boeck_ext_HHEN5boost6random23additive_combine_engineINS6_26linear_congruential_engineIjLj40014ELj0ELj2147483563EEENS8_IjLj40692ELj0ELj2147483399EEEEEEEP7SEXPRECED0Ev"
 "_ZN4Rcpp10CppMethod0IN5rstan8stan_fitIN33model_stan_boeck_ext_HH_namespace23model_stan_boeck_ext_HHEN5boost6random23additive_combine_engineINS6_26linear_congruential_engineIjLj40014ELj0ELj2147483563EEENS8_IjLj40692ELj0ELj2147483399EEEEEEEP7SEXPRECED1Ev"
 "_ZN4Rcpp10CppMethod1IN5rstan8stan_fitIN24model_stan_pcm_namespace14model_stan_pcmEN5boost6random23additive_combine_engineINS6_26linear_congruential_engineIjLj40014ELj0ELj2147483563EEENS8_IjLj40692ELj0ELj2147483399EEEEEEEP7SEXPRECSE_E5nargsEv"
 "_ZN4Rcpp10CppMethod1IN5rstan8stan_fitIN24model_stan_pcm_namespace14model_stan_pcmEN5boost6random23additive_combine_engineINS6_26linear_congruential_engineIjLj40014ELj0ELj2147483563EEENS8_IjLj40692ELj0ELj2147483399EEEEEEEP7SEXPRECSE_E7is_voidEv"
 "_ZN4Rcpp10CppMethod1IN5rstan8stan_fitIN24model_stan_pcm_namespace14model_stan_pcmEN5boost6random23additive_combine_engineINS6_26linear_congruential_engineIjLj40014ELj0ELj2147483563EEENS8_IjLj40692ELj0ELj2147483399EEEEEEEP7SEXPRECSE_E8is_constEv"
 "_ZN4Rcpp10CppMethod1IN5rstan8stan_fitIN24model_stan_pcm_namespace14model_stan_pcmEN5boost6random23additive_combine_engineINS6_26linear_congruential_engineIjLj40014ELj0ELj2147483563EEENS8_IjLj40692ELj0ELj2147483399EEEEEEEP7SEXPRECSE_E9signatureERSsPKc"
 "_ZN4Rcpp10CppMethod1IN5rstan8stan_fitIN24model_stan_pcm_namespace14model_stan_pcmEN5boost6random23additive_combine_engineINS6_26linear_congruential_engineIjLj40014ELj0ELj2147483563EEENS8_IjLj40692ELj0ELj2147483399EEEEEEEP7SEXPRECSE_EclEPSC_PSE_"
 "_ZN4Rcpp10CppMethod1IN5rstan8stan_fitIN24model_stan_pcm_namespace14model_stan_pcmEN5boost6random23additive_combine_engineINS6_26linear_congruential_engineIjLj40014ELj0ELj2147483563EEENS8_IjLj40692ELj0ELj2147483399EEEEEEEP7SEXPRECSE_ED0Ev"
 "_ZN4Rcpp10CppMethod1IN5rstan8stan_fitIN24model_stan_pcm_namespace14model_stan_pcmEN5boost6random23additive_combine_engineINS6_26linear_congruential_engineIjLj40014ELj0ELj2147483563EEENS8_IjLj40692ELj0ELj2147483399EEEEEEEP7SEXPRECSE_ED1Ev"
 "_ZN4Rcpp10CppMethod1IN5rstan8stan_fitIN26model_stan_steps_namespace16model_stan_stepsEN5boost6random23additive_combine_engineINS6_26linear_congruential_engineIjLj40014ELj0ELj2147483563EEENS8_IjLj40692ELj0ELj2147483399EEEEEEEP7SEXPRECSE_E5nargsEv"
 "_ZN4Rcpp10CppMethod1IN5rstan8stan_fitIN26model_stan_steps_namespace16model_stan_stepsEN5boost6random23additive_combine_engineINS6_26linear_congruential_engineIjLj40014ELj0ELj2147483563EEENS8_IjLj40692ELj0ELj2147483399EEEEEEEP7SEXPRECSE_E7is_voidEv"
 "_ZN4Rcpp10CppMethod1IN5rstan8stan_fitIN26model_stan_steps_namespace16model_stan_stepsEN5boost6random23additive_combine_engineINS6_26linear_congruential_engineIjLj40014ELj0ELj2147483563EEENS8_IjLj40692ELj0ELj2147483399EEEEEEEP7SEXPRECSE_E8is_constEv"
 "_ZN4Rcpp10CppMethod1IN5rstan8stan_fitIN26model_stan_steps_namespace16model_stan_stepsEN5boost6random23additive_combine_engineINS6_26linear_congruential_engineIjLj40014ELj0ELj2147483563EEENS8_IjLj40692ELj0ELj2147483399EEEEEEEP7SEXPRECSE_E9signatureERSsPKc"
 "_ZN4Rcpp10CppMethod1IN5rstan8stan_fitIN26model_stan_steps_namespace16model_stan_stepsEN5boost6random23additive_combine_engineINS6_26linear_congruential_engineIjLj40014ELj0ELj2147483563EEENS8_IjLj40692ELj0ELj2147483399EEEEEEEP7SEXPRECSE_EclEPSC_PSE_"
 "_ZN4Rcpp10CppMethod1IN5rstan8stan_fitIN26model_stan_steps_namespace16model_stan_stepsEN5boost6random23additive_combine_engineINS6_26linear_congruential_engineIjLj40014ELj0ELj2147483563EEENS8_IjLj40692ELj0ELj2147483399EEEEEEEP7SEXPRECSE_ED0Ev"
 "_ZN4Rcpp10CppMethod1IN5rstan8stan_fitIN26model_stan_steps_namespace16model_stan_stepsEN5boost6random23additive_combine_engineINS6_26linear_congruential_engineIjLj40014ELj0ELj2147483563EEENS8_IjLj40692ELj0ELj2147483399EEEEEEEP7SEXPRECSE_ED1Ev"
 "_ZN4Rcpp10CppMethod1IN5rstan8stan_fitIN30model_stan_boeck_ext_namespace20model_stan_boeck_extEN5boost6random23additive_combine_engineINS6_26linear_congruential_engineIjLj40014ELj0ELj2147483563EEENS8_IjLj40692ELj0ELj2147483399EEEEEEEP7SEXPRECSE_E5nargsEv"
 "_ZN4Rcpp10CppMethod1IN5rstan8stan_fitIN30model_stan_boeck_ext_namespace20model_stan_boeck_extEN5boost6random23additive_combine_engineINS6_26linear_congruential_engineIjLj40014ELj0ELj2147483563EEENS8_IjLj40692ELj0ELj2147483399EEEEEEEP7SEXPRECSE_E7is_voidEv"
 "_ZN4Rcpp10CppMethod1IN5rstan8stan_fitIN30model_stan_boeck_ext_namespace20model_stan_boeck_extEN5boost6random23additive_combine_engineINS6_26linear_congruential_engineIjLj40014ELj0ELj2147483563EEENS8_IjLj40692ELj0ELj2147483399EEEEEEEP7SEXPRECSE_E8is_constEv"
 "_ZN4Rcpp10CppMethod1IN5rstan8stan_fitIN30model_stan_boeck_ext_namespace20model_stan_boeck_extEN5boost6random23additive_combine_engineINS6_26linear_congruential_engineIjLj40014ELj0ELj2147483563EEENS8_IjLj40692ELj0ELj2147483399EEEEEEEP7SEXPRECSE_E9signatureERSsPKc"
 "_ZN4Rcpp10CppMethod1IN5rstan8stan_fitIN30model_stan_boeck_ext_namespace20model_stan_boeck_extEN5boost6random23additive_combine_engineINS6_26linear_congruential_engineIjLj40014ELj0ELj2147483563EEENS8_IjLj40692ELj0ELj2147483399EEEEEEEP7SEXPRECSE_EclEPSC_PSE_"
 "_ZN4Rcpp10CppMethod1IN5rstan8stan_fitIN30model_stan_boeck_ext_namespace20model_stan_boeck_extEN5boost6random23additive_combine_engineINS6_26linear_congruential_engineIjLj40014ELj0ELj2147483563EEENS8_IjLj40692ELj0ELj2147483399EEEEEEEP7SEXPRECSE_ED0Ev"
 "_ZN4Rcpp10CppMethod1IN5rstan8stan_fitIN30model_stan_boeck_ext_namespace20model_stan_boeck_extEN5boost6random23additive_combine_engineINS6_26linear_congruential_engineIjLj40014ELj0ELj2147483563EEENS8_IjLj40692ELj0ELj2147483399EEEEEEEP7SEXPRECSE_ED1Ev"
 "_ZN4Rcpp10CppMethod1IN5rstan8stan_fitIN31model_stan_boeck_2012_namespace21model_stan_boeck_2012EN5boost6random23additive_combine_engineINS6_26linear_congruential_engineIjLj40014ELj0ELj2147483563EEENS8_IjLj40692ELj0ELj2147483399EEEEEEEP7SEXPRECSE_E5nargsEv"
 "_ZN4Rcpp10CppMethod1IN5rstan8stan_fitIN31model_stan_boeck_2012_namespace21model_stan_boeck_2012EN5boost6random23additive_combine_engineINS6_26linear_congruential_engineIjLj40014ELj0ELj2147483563EEENS8_IjLj40692ELj0ELj2147483399EEEEEEEP7SEXPRECSE_E7is_voidEv"
 "_ZN4Rcpp10CppMethod1IN5rstan8stan_fitIN31model_stan_boeck_2012_namespace21model_stan_boeck_2012EN5boost6random23additive_combine_engineINS6_26linear_congruential_engineIjLj40014ELj0ELj2147483563EEENS8_IjLj40692ELj0ELj2147483399EEEEEEEP7SEXPRECSE_E8is_constEv"
 "_ZN4Rcpp10CppMethod1IN5rstan8stan_fitIN31model_stan_boeck_2012_namespace21model_stan_boeck_2012EN5boost6random23additive_combine_engineINS6_26linear_congruential_engineIjLj40014ELj0ELj2147483563EEENS8_IjLj40692ELj0ELj2147483399EEEEEEEP7SEXPRECSE_E9signatureERSsPKc"
 "_ZN4Rcpp10CppMethod1IN5rstan8stan_fitIN31model_stan_boeck_2012_namespace21model_stan_boeck_2012EN5boost6random23additive_combine_engineINS6_26linear_congruential_engineIjLj40014ELj0ELj2147483563EEENS8_IjLj40692ELj0ELj2147483399EEEEEEEP7SEXPRECSE_EclEPSC_PSE_"
 "_ZN4Rcpp10CppMethod1IN5rstan8stan_fitIN31model_stan_boeck_2012_namespace21model_stan_boeck_2012EN5boost6random23additive_combine_engineINS6_26linear_congruential_engineIjLj40014ELj0ELj2147483563EEENS8_IjLj40692ELj0ELj2147483399EEEEEEEP7SEXPRECSE_ED0Ev"
 "_ZN4Rcpp10CppMethod1IN5rstan8stan_fitIN31model_stan_boeck_2012_namespace21model_stan_boeck_2012EN5boost6random23additive_combine_engineINS6_26linear_congruential_engineIjLj40014ELj0ELj2147483563EEENS8_IjLj40692ELj0ELj2147483399EEEEEEEP7SEXPRECSE_ED1Ev"
 "_ZN4Rcpp10CppMethod1IN5rstan8stan_fitIN31model_stan_boeck_ext2_namespace21model_stan_boeck_ext2EN5boost6random23additive_combine_engineINS6_26linear_congruential_engineIjLj40014ELj0ELj2147483563EEENS8_IjLj40692ELj0ELj2147483399EEEEEEEP7SEXPRECSE_E5nargsEv"
 "_ZN4Rcpp10CppMethod1IN5rstan8stan_fitIN31model_stan_boeck_ext2_namespace21model_stan_boeck_ext2EN5boost6random23additive_combine_engineINS6_26linear_congruential_engineIjLj40014ELj0ELj2147483563EEENS8_IjLj40692ELj0ELj2147483399EEEEEEEP7SEXPRECSE_E7is_voidEv"
 "_ZN4Rcpp10CppMethod1IN5rstan8stan_fitIN31model_stan_boeck_ext2_namespace21model_stan_boeck_ext2EN5boost6random23additive_combine_engineINS6_26linear_congruential_engineIjLj40014ELj0ELj2147483563EEENS8_IjLj40692ELj0ELj2147483399EEEEEEEP7SEXPRECSE_E8is_constEv"
 "_ZN4Rcpp10CppMethod1IN5rstan8stan_fitIN31model_stan_boeck_ext2_namespace21model_stan_boeck_ext2EN5boost6random23additive_combine_engineINS6_26linear_congruential_engineIjLj40014ELj0ELj2147483563EEENS8_IjLj40692ELj0ELj2147483399EEEEEEEP7SEXPRECSE_E9signatureERSsPKc"
 "_ZN4Rcpp10CppMethod1IN5rstan8stan_fitIN31model_stan_boeck_ext2_namespace21model_stan_boeck_ext2EN5boost6random23additive_combine_engineINS6_26linear_congruential_engineIjLj40014ELj0ELj2147483563EEENS8_IjLj40692ELj0ELj2147483399EEEEEEEP7SEXPRECSE_EclEPSC_PSE_"
 "_ZN4Rcpp10CppMethod1IN5rstan8stan_fitIN31model_stan_boeck_ext2_namespace21model_stan_boeck_ext2EN5boost6random23additive_combine_engineINS6_26linear_congruential_engineIjLj40014ELj0ELj2147483563EEENS8_IjLj40692ELj0ELj2147483399EEEEEEEP7SEXPRECSE_ED0Ev"
 "_ZN4Rcpp10CppMethod1IN5rstan8stan_fitIN31model_stan_boeck_ext2_namespace21model_stan_boeck_ext2EN5boost6random23additive_combine_engineINS6_26linear_congruential_engineIjLj40014ELj0ELj2147483563EEENS8_IjLj40692ELj0ELj2147483399EEEEEEEP7SEXPRECSE_ED1Ev"
 "_ZN4Rcpp10CppMethod1IN5rstan8stan_fitIN32model_stan_boeck_shift_namespace22model_stan_boeck_shiftEN5boost6random23additive_combine_engineINS6_26linear_congruential_engineIjLj40014ELj0ELj2147483563EEENS8_IjLj40692ELj0ELj2147483399EEEEEEEP7SEXPRECSE_E5nargsEv"
 "_ZN4Rcpp10CppMethod1IN5rstan8stan_fitIN32model_stan_boeck_shift_namespace22model_stan_boeck_shiftEN5boost6random23additive_combine_engineINS6_26linear_congruential_engineIjLj40014ELj0ELj2147483563EEENS8_IjLj40692ELj0ELj2147483399EEEEEEEP7SEXPRECSE_E7is_voidEv"
 "_ZN4Rcpp10CppMethod1IN5rstan8stan_fitIN32model_stan_boeck_shift_namespace22model_stan_boeck_shiftEN5boost6random23additive_combine_engineINS6_26linear_congruential_engineIjLj40014ELj0ELj2147483563EEENS8_IjLj40692ELj0ELj2147483399EEEEEEEP7SEXPRECSE_E8is_constEv"
 "_ZN4Rcpp10CppMethod1IN5rstan8stan_fitIN32model_stan_boeck_shift_namespace22model_stan_boeck_shiftEN5boost6random23additive_combine_engineINS6_26linear_congruential_engineIjLj40014ELj0ELj2147483563EEENS8_IjLj40692ELj0ELj2147483399EEEEEEEP7SEXPRECSE_E9signatureERSsPKc"
 "_ZN4Rcpp10CppMethod1IN5rstan8stan_fitIN32model_stan_boeck_shift_namespace22model_stan_boeck_shiftEN5boost6random23additive_combine_engineINS6_26linear_congruential_engineIjLj40014ELj0ELj2147483563EEENS8_IjLj40692ELj0ELj2147483399EEEEEEEP7SEXPRECSE_EclEPSC_PSE_"
 "_ZN4Rcpp10CppMethod1IN5rstan8stan_fitIN32model_stan_boeck_shift_namespace22model_stan_boeck_shiftEN5boost6random23additive_combine_engineINS6_26linear_congruential_engineIjLj40014ELj0ELj2147483563EEENS8_IjLj40692ELj0ELj2147483399EEEEEEEP7SEXPRECSE_ED0Ev"
 "_ZN4Rcpp10CppMethod1IN5rstan8stan_fitIN32model_stan_boeck_shift_namespace22model_stan_boeck_shiftEN5boost6random23additive_combine_engineINS6_26linear_congruential_engineIjLj40014ELj0ELj2147483563EEENS8_IjLj40692ELj0ELj2147483399EEEEEEEP7SEXPRECSE_ED1Ev"
 "_ZN4Rcpp10CppMethod1IN5rstan8stan_fitIN33model_stan_boeck_ext_HH_namespace23model_stan_boeck_ext_HHEN5boost6random23additive_combine_engineINS6_26linear_congruential_engineIjLj40014ELj0ELj2147483563EEENS8_IjLj40692ELj0ELj2147483399EEEEEEEP7SEXPRECSE_E5nargsEv"
 "_ZN4Rcpp10CppMethod1IN5rstan8stan_fitIN33model_stan_boeck_ext_HH_namespace23model_stan_boeck_ext_HHEN5boost6random23additive_combine_engineINS6_26linear_congruential_engineIjLj40014ELj0ELj2147483563EEENS8_IjLj40692ELj0ELj2147483399EEEEEEEP7SEXPRECSE_E7is_voidEv"
 "_ZN4Rcpp10CppMethod1IN5rstan8stan_fitIN33model_stan_boeck_ext_HH_namespace23model_stan_boeck_ext_HHEN5boost6random23additive_combine_engineINS6_26linear_congruential_engineIjLj40014ELj0ELj2147483563EEENS8_IjLj40692ELj0ELj2147483399EEEEEEEP7SEXPRECSE_E8is_constEv"
 "_ZN4Rcpp10CppMethod1IN5rstan8stan_fitIN33model_stan_boeck_ext_HH_namespace23model_stan_boeck_ext_HHEN5boost6random23additive_combine_engineINS6_26linear_congruential_engineIjLj40014ELj0ELj2147483563EEENS8_IjLj40692ELj0ELj2147483399EEEEEEEP7SEXPRECSE_E9signatureERSsPKc"
 "_ZN4Rcpp10CppMethod1IN5rstan8stan_fitIN33model_stan_boeck_ext_HH_namespace23model_stan_boeck_ext_HHEN5boost6random23additive_combine_engineINS6_26linear_congruential_engineIjLj40014ELj0ELj2147483563EEENS8_IjLj40692ELj0ELj2147483399EEEEEEEP7SEXPRECSE_EclEPSC_PSE_"
 "_ZN4Rcpp10CppMethod1IN5rstan8stan_fitIN33model_stan_boeck_ext_HH_namespace23model_stan_boeck_ext_HHEN5boost6random23additive_combine_engineINS6_26linear_congruential_engineIjLj40014ELj0ELj2147483563EEENS8_IjLj40692ELj0ELj2147483399EEEEEEEP7SEXPRECSE_ED0Ev"
 "_ZN4Rcpp10CppMethod1IN5rstan8stan_fitIN33model_stan_boeck_ext_HH_namespace23model_stan_boeck_ext_HHEN5boost6random23additive_combine_engineINS6_26linear_congruential_engineIjLj40014ELj0ELj2147483563EEENS8_IjLj40692ELj0ELj2147483399EEEEEEEP7SEXPRECSE_ED1Ev"
 "_ZN4Rcpp10CppMethod2IN5rstan8stan_fitIN24model_stan_pcm_namespace14model_stan_pcmEN5boost6random23additive_combine_engineINS6_26linear_congruential_engineIjLj40014ELj0ELj2147483563EEENS8_IjLj40692ELj0ELj2147483399EEEEEEEP7SEXPRECSE_SE_E5nargsEv"
 "_ZN4Rcpp10CppMethod2IN5rstan8stan_fitIN24model_stan_pcm_namespace14model_stan_pcmEN5boost6random23additive_combine_engineINS6_26linear_congruential_engineIjLj40014ELj0ELj2147483563EEENS8_IjLj40692ELj0ELj2147483399EEEEEEEP7SEXPRECSE_SE_E7is_voidEv"
 "_ZN4Rcpp10CppMethod2IN5rstan8stan_fitIN24model_stan_pcm_namespace14model_stan_pcmEN5boost6random23additive_combine_engineINS6_26linear_congruential_engineIjLj40014ELj0ELj2147483563EEENS8_IjLj40692ELj0ELj2147483399EEEEEEEP7SEXPRECSE_SE_E8is_constEv"
 "_ZN4Rcpp10CppMethod2IN5rstan8stan_fitIN24model_stan_pcm_namespace14model_stan_pcmEN5boost6random23additive_combine_engineINS6_26linear_congruential_engineIjLj40014ELj0ELj2147483563EEENS8_IjLj40692ELj0ELj2147483399EEEEEEEP7SEXPRECSE_SE_E9signatureERSsPKc"
 "_ZN4Rcpp10CppMethod2IN5rstan8stan_fitIN24model_stan_pcm_namespace14model_stan_pcmEN5boost6random23additive_combine_engineINS6_26linear_congruential_engineIjLj40014ELj0ELj2147483563EEENS8_IjLj40692ELj0ELj2147483399EEEEEEEP7SEXPRECSE_SE_EclEPSC_PSE_"
 "_ZN4Rcpp10CppMethod2IN5rstan8stan_fitIN24model_stan_pcm_namespace14model_stan_pcmEN5boost6random23additive_combine_engineINS6_26linear_congruential_engineIjLj40014ELj0ELj2147483563EEENS8_IjLj40692ELj0ELj2147483399EEEEEEEP7SEXPRECSE_SE_ED0Ev"
 "_ZN4Rcpp10CppMethod2IN5rstan8stan_fitIN24model_stan_pcm_namespace14model_stan_pcmEN5boost6random23additive_combine_engineINS6_26linear_congruential_engineIjLj40014ELj0ELj2147483563EEENS8_IjLj40692ELj0ELj2147483399EEEEEEEP7SEXPRECSE_SE_ED1Ev"
 "_ZN4Rcpp10CppMethod2IN5rstan8stan_fitIN26model_stan_steps_namespace16model_stan_stepsEN5boost6random23additive_combine_engineINS6_26linear_congruential_engineIjLj40014ELj0ELj2147483563EEENS8_IjLj40692ELj0ELj2147483399EEEEEEEP7SEXPRECSE_SE_E5nargsEv"
 "_ZN4Rcpp10CppMethod2IN5rstan8stan_fitIN26model_stan_steps_namespace16model_stan_stepsEN5boost6random23additive_combine_engineINS6_26linear_congruential_engineIjLj40014ELj0ELj2147483563EEENS8_IjLj40692ELj0ELj2147483399EEEEEEEP7SEXPRECSE_SE_E7is_voidEv"
 "_ZN4Rcpp10CppMethod2IN5rstan8stan_fitIN26model_stan_steps_namespace16model_stan_stepsEN5boost6random23additive_combine_engineINS6_26linear_congruential_engineIjLj40014ELj0ELj2147483563EEENS8_IjLj40692ELj0ELj2147483399EEEEEEEP7SEXPRECSE_SE_E8is_constEv"
 "_ZN4Rcpp10CppMethod2IN5rstan8stan_fitIN26model_stan_steps_namespace16model_stan_stepsEN5boost6random23additive_combine_engineINS6_26linear_congruential_engineIjLj40014ELj0ELj2147483563EEENS8_IjLj40692ELj0ELj2147483399EEEEEEEP7SEXPRECSE_SE_E9signatureERSsPKc"
 "_ZN4Rcpp10CppMethod2IN5rstan8stan_fitIN26model_stan_steps_namespace16model_stan_stepsEN5boost6random23additive_combine_engineINS6_26linear_congruential_engineIjLj40014ELj0ELj2147483563EEENS8_IjLj40692ELj0ELj2147483399EEEEEEEP7SEXPRECSE_SE_EclEPSC_PSE_"
 "_ZN4Rcpp10CppMethod2IN5rstan8stan_fitIN26model_stan_steps_namespace16model_stan_stepsEN5boost6random23additive_combine_engineINS6_26linear_congruential_engineIjLj40014ELj0ELj2147483563EEENS8_IjLj40692ELj0ELj2147483399EEEEEEEP7SEXPRECSE_SE_ED0Ev"
 "_ZN4Rcpp10CppMethod2IN5rstan8stan_fitIN26model_stan_steps_namespace16model_stan_stepsEN5boost6random23additive_combine_engineINS6_26linear_congruential_engineIjLj40014ELj0ELj2147483563EEENS8_IjLj40692ELj0ELj2147483399EEEEEEEP7SEXPRECSE_SE_ED1Ev"
 "_ZN4Rcpp10CppMethod2IN5rstan8stan_fitIN30model_stan_boeck_ext_namespace20model_stan_boeck_extEN5boost6random23additive_combine_engineINS6_26linear_congruential_engineIjLj40014ELj0ELj2147483563EEENS8_IjLj40692ELj0ELj2147483399EEEEEEEP7SEXPRECSE_SE_E5nargsEv"
 "_ZN4Rcpp10CppMethod2IN5rstan8stan_fitIN30model_stan_boeck_ext_namespace20model_stan_boeck_extEN5boost6random23additive_combine_engineINS6_26linear_congruential_engineIjLj40014ELj0ELj2147483563EEENS8_IjLj40692ELj0ELj2147483399EEEEEEEP7SEXPRECSE_SE_E7is_voidEv"
 "_ZN4Rcpp10CppMethod2IN5rstan8stan_fitIN30model_stan_boeck_ext_namespace20model_stan_boeck_extEN5boost6random23additive_combine_engineINS6_26linear_congruential_engineIjLj40014ELj0ELj2147483563EEENS8_IjLj40692ELj0ELj2147483399EEEEEEEP7SEXPRECSE_SE_E8is_constEv"
 "_ZN4Rcpp10CppMethod2IN5rstan8stan_fitIN30model_stan_boeck_ext_namespace20model_stan_boeck_extEN5boost6random23additive_combine_engineINS6_26linear_congruential_engineIjLj40014ELj0ELj2147483563EEENS8_IjLj40692ELj0ELj2147483399EEEEEEEP7SEXPRECSE_SE_E9signatureERSsPKc"
 "_ZN4Rcpp10CppMethod2IN5rstan8stan_fitIN30model_stan_boeck_ext_namespace20model_stan_boeck_extEN5boost6random23additive_combine_engineINS6_26linear_congruential_engineIjLj40014ELj0ELj2147483563EEENS8_IjLj40692ELj0ELj2147483399EEEEEEEP7SEXPRECSE_SE_EclEPSC_PSE_"
 "_ZN4Rcpp10CppMethod2IN5rstan8stan_fitIN30model_stan_boeck_ext_namespace20model_stan_boeck_extEN5boost6random23additive_combine_engineINS6_26linear_congruential_engineIjLj40014ELj0ELj2147483563EEENS8_IjLj40692ELj0ELj2147483399EEEEEEEP7SEXPRECSE_SE_ED0Ev"
 "_ZN4Rcpp10CppMethod2IN5rstan8stan_fitIN30model_stan_boeck_ext_namespace20model_stan_boeck_extEN5boost6random23additive_combine_engineINS6_26linear_congruential_engineIjLj40014ELj0ELj2147483563EEENS8_IjLj40692ELj0ELj2147483399EEEEEEEP7SEXPRECSE_SE_ED1Ev"
 "_ZN4Rcpp10CppMethod2IN5rstan8stan_fitIN31model_stan_boeck_2012_namespace21model_stan_boeck_2012EN5boost6random23additive_combine_engineINS6_26linear_congruential_engineIjLj40014ELj0ELj2147483563EEENS8_IjLj40692ELj0ELj2147483399EEEEEEEP7SEXPRECSE_SE_E5nargsEv"
 "_ZN4Rcpp10CppMethod2IN5rstan8stan_fitIN31model_stan_boeck_2012_namespace21model_stan_boeck_2012EN5boost6random23additive_combine_engineINS6_26linear_congruential_engineIjLj40014ELj0ELj2147483563EEENS8_IjLj40692ELj0ELj2147483399EEEEEEEP7SEXPRECSE_SE_E7is_voidEv"
 "_ZN4Rcpp10CppMethod2IN5rstan8stan_fitIN31model_stan_boeck_2012_namespace21model_stan_boeck_2012EN5boost6random23additive_combine_engineINS6_26linear_congruential_engineIjLj40014ELj0ELj2147483563EEENS8_IjLj40692ELj0ELj2147483399EEEEEEEP7SEXPRECSE_SE_E8is_constEv"
 "_ZN4Rcpp10CppMethod2IN5rstan8stan_fitIN31model_stan_boeck_2012_namespace21model_stan_boeck_2012EN5boost6random23additive_combine_engineINS6_26linear_congruential_engineIjLj40014ELj0ELj2147483563EEENS8_IjLj40692ELj0ELj2147483399EEEEEEEP7SEXPRECSE_SE_E9signatureERSsPKc"
 "_ZN4Rcpp10CppMethod2IN5rstan8stan_fitIN31model_stan_boeck_2012_namespace21model_stan_boeck_2012EN5boost6random23additive_combine_engineINS6_26linear_congruential_engineIjLj40014ELj0ELj2147483563EEENS8_IjLj40692ELj0ELj2147483399EEEEEEEP7SEXPRECSE_SE_EclEPSC_PSE_"
 "_ZN4Rcpp10CppMethod2IN5rstan8stan_fitIN31model_stan_boeck_2012_namespace21model_stan_boeck_2012EN5boost6random23additive_combine_engineINS6_26linear_congruential_engineIjLj40014ELj0ELj2147483563EEENS8_IjLj40692ELj0ELj2147483399EEEEEEEP7SEXPRECSE_SE_ED0Ev"
 "_ZN4Rcpp10CppMethod2IN5rstan8stan_fitIN31model_stan_boeck_2012_namespace21model_stan_boeck_2012EN5boost6random23additive_combine_engineINS6_26linear_congruential_engineIjLj40014ELj0ELj2147483563EEENS8_IjLj40692ELj0ELj2147483399EEEEEEEP7SEXPRECSE_SE_ED1Ev"
 "_ZN4Rcpp10CppMethod2IN5rstan8stan_fitIN31model_stan_boeck_ext2_namespace21model_stan_boeck_ext2EN5boost6random23additive_combine_engineINS6_26linear_congruential_engineIjLj40014ELj0ELj2147483563EEENS8_IjLj40692ELj0ELj2147483399EEEEEEEP7SEXPRECSE_SE_E5nargsEv"
 "_ZN4Rcpp10CppMethod2IN5rstan8stan_fitIN31model_stan_boeck_ext2_namespace21model_stan_boeck_ext2EN5boost6random23additive_combine_engineINS6_26linear_congruential_engineIjLj40014ELj0ELj2147483563EEENS8_IjLj40692ELj0ELj2147483399EEEEEEEP7SEXPRECSE_SE_E7is_voidEv"
 "_ZN4Rcpp10CppMethod2IN5rstan8stan_fitIN31model_stan_boeck_ext2_namespace21model_stan_boeck_ext2EN5boost6random23additive_combine_engineINS6_26linear_congruential_engineIjLj40014ELj0ELj2147483563EEENS8_IjLj40692ELj0ELj2147483399EEEEEEEP7SEXPRECSE_SE_E8is_constEv"
 "_ZN4Rcpp10CppMethod2IN5rstan8stan_fitIN31model_stan_boeck_ext2_namespace21model_stan_boeck_ext2EN5boost6random23additive_combine_engineINS6_26linear_congruential_engineIjLj40014ELj0ELj2147483563EEENS8_IjLj40692ELj0ELj2147483399EEEEEEEP7SEXPRECSE_SE_E9signatureERSsPKc"
 "_ZN4Rcpp10CppMethod2IN5rstan8stan_fitIN31model_stan_boeck_ext2_namespace21model_stan_boeck_ext2EN5boost6random23additive_combine_engineINS6_26linear_congruential_engineIjLj40014ELj0ELj2147483563EEENS8_IjLj40692ELj0ELj2147483399EEEEEEEP7SEXPRECSE_SE_EclEPSC_PSE_"
 "_ZN4Rcpp10CppMethod2IN5rstan8stan_fitIN31model_stan_boeck_ext2_namespace21model_stan_boeck_ext2EN5boost6random23additive_combine_engineINS6_26linear_congruential_engineIjLj40014ELj0ELj2147483563EEENS8_IjLj40692ELj0ELj2147483399EEEEEEEP7SEXPRECSE_SE_ED0Ev"
 "_ZN4Rcpp10CppMethod2IN5rstan8stan_fitIN31model_stan_boeck_ext2_namespace21model_stan_boeck_ext2EN5boost6random23additive_combine_engineINS6_26linear_congruential_engineIjLj40014ELj0ELj2147483563EEENS8_IjLj40692ELj0ELj2147483399EEEEEEEP7SEXPRECSE_SE_ED1Ev"
 "_ZN4Rcpp10CppMethod2IN5rstan8stan_fitIN32model_stan_boeck_shift_namespace22model_stan_boeck_shiftEN5boost6random23additive_combine_engineINS6_26linear_congruential_engineIjLj40014ELj0ELj2147483563EEENS8_IjLj40692ELj0ELj2147483399EEEEEEEP7SEXPRECSE_SE_E5nargsEv"
 "_ZN4Rcpp10CppMethod2IN5rstan8stan_fitIN32model_stan_boeck_shift_namespace22model_stan_boeck_shiftEN5boost6random23additive_combine_engineINS6_26linear_congruential_engineIjLj40014ELj0ELj2147483563EEENS8_IjLj40692ELj0ELj2147483399EEEEEEEP7SEXPRECSE_SE_E7is_voidEv"
 "_ZN4Rcpp10CppMethod2IN5rstan8stan_fitIN32model_stan_boeck_shift_namespace22model_stan_boeck_shiftEN5boost6random23additive_combine_engineINS6_26linear_congruential_engineIjLj40014ELj0ELj2147483563EEENS8_IjLj40692ELj0ELj2147483399EEEEEEEP7SEXPRECSE_SE_E8is_constEv"
 "_ZN4Rcpp10CppMethod2IN5rstan8stan_fitIN32model_stan_boeck_shift_namespace22model_stan_boeck_shiftEN5boost6random23additive_combine_engineINS6_26linear_congruential_engineIjLj40014ELj0ELj2147483563EEENS8_IjLj40692ELj0ELj2147483399EEEEEEEP7SEXPRECSE_SE_E9signatureERSsPKc"
 "_ZN4Rcpp10CppMethod2IN5rstan8stan_fitIN32model_stan_boeck_shift_namespace22model_stan_boeck_shiftEN5boost6random23additive_combine_engineINS6_26linear_congruential_engineIjLj40014ELj0ELj2147483563EEENS8_IjLj40692ELj0ELj2147483399EEEEEEEP7SEXPRECSE_SE_EclEPSC_PSE_"
 "_ZN4Rcpp10CppMethod2IN5rstan8stan_fitIN32model_stan_boeck_shift_namespace22model_stan_boeck_shiftEN5boost6random23additive_combine_engineINS6_26linear_congruential_engineIjLj40014ELj0ELj2147483563EEENS8_IjLj40692ELj0ELj2147483399EEEEEEEP7SEXPRECSE_SE_ED0Ev"
 "_ZN4Rcpp10CppMethod2IN5rstan8stan_fitIN32model_stan_boeck_shift_namespace22model_stan_boeck_shiftEN5boost6random23additive_combine_engineINS6_26linear_congruential_engineIjLj40014ELj0ELj2147483563EEENS8_IjLj40692ELj0ELj2147483399EEEEEEEP7SEXPRECSE_SE_ED1Ev"
 "_ZN4Rcpp10CppMethod2IN5rstan8stan_fitIN33model_stan_boeck_ext_HH_namespace23model_stan_boeck_ext_HHEN5boost6random23additive_combine_engineINS6_26linear_congruential_engineIjLj40014ELj0ELj2147483563EEENS8_IjLj40692ELj0ELj2147483399EEEEEEEP7SEXPRECSE_SE_E5nargsEv"
 "_ZN4Rcpp10CppMethod2IN5rstan8stan_fitIN33model_stan_boeck_ext_HH_namespace23model_stan_boeck_ext_HHEN5boost6random23additive_combine_engineINS6_26linear_congruential_engineIjLj40014ELj0ELj2147483563EEENS8_IjLj40692ELj0ELj2147483399EEEEEEEP7SEXPRECSE_SE_E7is_voidEv"
 "_ZN4Rcpp10CppMethod2IN5rstan8stan_fitIN33model_stan_boeck_ext_HH_namespace23model_stan_boeck_ext_HHEN5boost6random23additive_combine_engineINS6_26linear_congruential_engineIjLj40014ELj0ELj2147483563EEENS8_IjLj40692ELj0ELj2147483399EEEEEEEP7SEXPRECSE_SE_E8is_constEv"
 "_ZN4Rcpp10CppMethod2IN5rstan8stan_fitIN33model_stan_boeck_ext_HH_namespace23model_stan_boeck_ext_HHEN5boost6random23additive_combine_engineINS6_26linear_congruential_engineIjLj40014ELj0ELj2147483563EEENS8_IjLj40692ELj0ELj2147483399EEEEEEEP7SEXPRECSE_SE_E9signatureERSsPKc"
 "_ZN4Rcpp10CppMethod2IN5rstan8stan_fitIN33model_stan_boeck_ext_HH_namespace23model_stan_boeck_ext_HHEN5boost6random23additive_combine_engineINS6_26linear_congruential_engineIjLj40014ELj0ELj2147483563EEENS8_IjLj40692ELj0ELj2147483399EEEEEEEP7SEXPRECSE_SE_EclEPSC_PSE_"
 "_ZN4Rcpp10CppMethod2IN5rstan8stan_fitIN33model_stan_boeck_ext_HH_namespace23model_stan_boeck_ext_HHEN5boost6random23additive_combine_engineINS6_26linear_congruential_engineIjLj40014ELj0ELj2147483563EEENS8_IjLj40692ELj0ELj2147483399EEEEEEEP7SEXPRECSE_SE_ED0Ev"
 "_ZN4Rcpp10CppMethod2IN5rstan8stan_fitIN33model_stan_boeck_ext_HH_namespace23model_stan_boeck_ext_HHEN5boost6random23additive_combine_engineINS6_26linear_congruential_engineIjLj40014ELj0ELj2147483563EEENS8_IjLj40692ELj0ELj2147483399EEEEEEEP7SEXPRECSE_SE_ED1Ev"
 "_ZN4Rcpp10CppMethod3IN5rstan8stan_fitIN24model_stan_pcm_namespace14model_stan_pcmEN5boost6random23additive_combine_engineINS6_26linear_congruential_engineIjLj40014ELj0ELj2147483563EEENS8_IjLj40692ELj0ELj2147483399EEEEEEEP7SEXPRECSE_SE_SE_E5nargsEv"
 "_ZN4Rcpp10CppMethod3IN5rstan8stan_fitIN24model_stan_pcm_namespace14model_stan_pcmEN5boost6random23additive_combine_engineINS6_26linear_congruential_engineIjLj40014ELj0ELj2147483563EEENS8_IjLj40692ELj0ELj2147483399EEEEEEEP7SEXPRECSE_SE_SE_E7is_voidEv"
 "_ZN4Rcpp10CppMethod3IN5rstan8stan_fitIN24model_stan_pcm_namespace14model_stan_pcmEN5boost6random23additive_combine_engineINS6_26linear_congruential_engineIjLj40014ELj0ELj2147483563EEENS8_IjLj40692ELj0ELj2147483399EEEEEEEP7SEXPRECSE_SE_SE_E8is_constEv"
 "_ZN4Rcpp10CppMethod3IN5rstan8stan_fitIN24model_stan_pcm_namespace14model_stan_pcmEN5boost6random23additive_combine_engineINS6_26linear_congruential_engineIjLj40014ELj0ELj2147483563EEENS8_IjLj40692ELj0ELj2147483399EEEEEEEP7SEXPRECSE_SE_SE_E9signatureERSsPKc"
 "_ZN4Rcpp10CppMethod3IN5rstan8stan_fitIN24model_stan_pcm_namespace14model_stan_pcmEN5boost6random23additive_combine_engineINS6_26linear_congruential_engineIjLj40014ELj0ELj2147483563EEENS8_IjLj40692ELj0ELj2147483399EEEEEEEP7SEXPRECSE_SE_SE_EclEPSC_PSE_"
 "_ZN4Rcpp10CppMethod3IN5rstan8stan_fitIN24model_stan_pcm_namespace14model_stan_pcmEN5boost6random23additive_combine_engineINS6_26linear_congruential_engineIjLj40014ELj0ELj2147483563EEENS8_IjLj40692ELj0ELj2147483399EEEEEEEP7SEXPRECSE_SE_SE_ED0Ev"
 "_ZN4Rcpp10CppMethod3IN5rstan8stan_fitIN24model_stan_pcm_namespace14model_stan_pcmEN5boost6random23additive_combine_engineINS6_26linear_congruential_engineIjLj40014ELj0ELj2147483563EEENS8_IjLj40692ELj0ELj2147483399EEEEEEEP7SEXPRECSE_SE_SE_ED1Ev"
 "_ZN4Rcpp10CppMethod3IN5rstan8stan_fitIN26model_stan_steps_namespace16model_stan_stepsEN5boost6random23additive_combine_engineINS6_26linear_congruential_engineIjLj40014ELj0ELj2147483563EEENS8_IjLj40692ELj0ELj2147483399EEEEEEEP7SEXPRECSE_SE_SE_E5nargsEv"
 "_ZN4Rcpp10CppMethod3IN5rstan8stan_fitIN26model_stan_steps_namespace16model_stan_stepsEN5boost6random23additive_combine_engineINS6_26linear_congruential_engineIjLj40014ELj0ELj2147483563EEENS8_IjLj40692ELj0ELj2147483399EEEEEEEP7SEXPRECSE_SE_SE_E7is_voidEv"
 "_ZN4Rcpp10CppMethod3IN5rstan8stan_fitIN26model_stan_steps_namespace16model_stan_stepsEN5boost6random23additive_combine_engineINS6_26linear_congruential_engineIjLj40014ELj0ELj2147483563EEENS8_IjLj40692ELj0ELj2147483399EEEEEEEP7SEXPRECSE_SE_SE_E8is_constEv"
 "_ZN4Rcpp10CppMethod3IN5rstan8stan_fitIN26model_stan_steps_namespace16model_stan_stepsEN5boost6random23additive_combine_engineINS6_26linear_congruential_engineIjLj40014ELj0ELj2147483563EEENS8_IjLj40692ELj0ELj2147483399EEEEEEEP7SEXPRECSE_SE_SE_E9signatureERSsPKc"
 "_ZN4Rcpp10CppMethod3IN5rstan8stan_fitIN26model_stan_steps_namespace16model_stan_stepsEN5boost6random23additive_combine_engineINS6_26linear_congruential_engineIjLj40014ELj0ELj2147483563EEENS8_IjLj40692ELj0ELj2147483399EEEEEEEP7SEXPRECSE_SE_SE_EclEPSC_PSE_"
 "_ZN4Rcpp10CppMethod3IN5rstan8stan_fitIN26model_stan_steps_namespace16model_stan_stepsEN5boost6random23additive_combine_engineINS6_26linear_congruential_engineIjLj40014ELj0ELj2147483563EEENS8_IjLj40692ELj0ELj2147483399EEEEEEEP7SEXPRECSE_SE_SE_ED0Ev"
 "_ZN4Rcpp10CppMethod3IN5rstan8stan_fitIN26model_stan_steps_namespace16model_stan_stepsEN5boost6random23additive_combine_engineINS6_26linear_congruential_engineIjLj40014ELj0ELj2147483563EEENS8_IjLj40692ELj0ELj2147483399EEEEEEEP7SEXPRECSE_SE_SE_ED1Ev"
 "_ZN4Rcpp10CppMethod3IN5rstan8stan_fitIN30model_stan_boeck_ext_namespace20model_stan_boeck_extEN5boost6random23additive_combine_engineINS6_26linear_congruential_engineIjLj40014ELj0ELj2147483563EEENS8_IjLj40692ELj0ELj2147483399EEEEEEEP7SEXPRECSE_SE_SE_E5nargsEv"
 "_ZN4Rcpp10CppMethod3IN5rstan8stan_fitIN30model_stan_boeck_ext_namespace20model_stan_boeck_extEN5boost6random23additive_combine_engineINS6_26linear_congruential_engineIjLj40014ELj0ELj2147483563EEENS8_IjLj40692ELj0ELj2147483399EEEEEEEP7SEXPRECSE_SE_SE_E7is_voidEv"
 "_ZN4Rcpp10CppMethod3IN5rstan8stan_fitIN30model_stan_boeck_ext_namespace20model_stan_boeck_extEN5boost6random23additive_combine_engineINS6_26linear_congruential_engineIjLj40014ELj0ELj2147483563EEENS8_IjLj40692ELj0ELj2147483399EEEEEEEP7SEXPRECSE_SE_SE_E8is_constEv"
 "_ZN4Rcpp10CppMethod3IN5rstan8stan_fitIN30model_stan_boeck_ext_namespace20model_stan_boeck_extEN5boost6random23additive_combine_engineINS6_26linear_congruential_engineIjLj40014ELj0ELj2147483563EEENS8_IjLj40692ELj0ELj2147483399EEEEEEEP7SEXPRECSE_SE_SE_E9signatureERSsPKc"
 "_ZN4Rcpp10CppMethod3IN5rstan8stan_fitIN30model_stan_boeck_ext_namespace20model_stan_boeck_extEN5boost6random23additive_combine_engineINS6_26linear_congruential_engineIjLj40014ELj0ELj2147483563EEENS8_IjLj40692ELj0ELj2147483399EEEEEEEP7SEXPRECSE_SE_SE_EclEPSC_PSE_"
 "_ZN4Rcpp10CppMethod3IN5rstan8stan_fitIN30model_stan_boeck_ext_namespace20model_stan_boeck_extEN5boost6random23additive_combine_engineINS6_26linear_congruential_engineIjLj40014ELj0ELj2147483563EEENS8_IjLj40692ELj0ELj2147483399EEEEEEEP7SEXPRECSE_SE_SE_ED0Ev"
 "_ZN4Rcpp10CppMethod3IN5rstan8stan_fitIN30model_stan_boeck_ext_namespace20model_stan_boeck_extEN5boost6random23additive_combine_engineINS6_26linear_congruential_engineIjLj40014ELj0ELj2147483563EEENS8_IjLj40692ELj0ELj2147483399EEEEEEEP7SEXPRECSE_SE_SE_ED1Ev"
 "_ZN4Rcpp10CppMethod3IN5rstan8stan_fitIN31model_stan_boeck_2012_namespace21model_stan_boeck_2012EN5boost6random23additive_combine_engineINS6_26linear_congruential_engineIjLj40014ELj0ELj2147483563EEENS8_IjLj40692ELj0ELj2147483399EEEEEEEP7SEXPRECSE_SE_SE_E5nargsEv"
 "_ZN4Rcpp10CppMethod3IN5rstan8stan_fitIN31model_stan_boeck_2012_namespace21model_stan_boeck_2012EN5boost6random23additive_combine_engineINS6_26linear_congruential_engineIjLj40014ELj0ELj2147483563EEENS8_IjLj40692ELj0ELj2147483399EEEEEEEP7SEXPRECSE_SE_SE_E7is_voidEv"
 "_ZN4Rcpp10CppMethod3IN5rstan8stan_fitIN31model_stan_boeck_2012_namespace21model_stan_boeck_2012EN5boost6random23additive_combine_engineINS6_26linear_congruential_engineIjLj40014ELj0ELj2147483563EEENS8_IjLj40692ELj0ELj2147483399EEEEEEEP7SEXPRECSE_SE_SE_E8is_constEv"
 "_ZN4Rcpp10CppMethod3IN5rstan8stan_fitIN31model_stan_boeck_2012_namespace21model_stan_boeck_2012EN5boost6random23additive_combine_engineINS6_26linear_congruential_engineIjLj40014ELj0ELj2147483563EEENS8_IjLj40692ELj0ELj2147483399EEEEEEEP7SEXPRECSE_SE_SE_E9signatureERSsPKc"
 "_ZN4Rcpp10CppMethod3IN5rstan8stan_fitIN31model_stan_boeck_2012_namespace21model_stan_boeck_2012EN5boost6random23additive_combine_engineINS6_26linear_congruential_engineIjLj40014ELj0ELj2147483563EEENS8_IjLj40692ELj0ELj2147483399EEEEEEEP7SEXPRECSE_SE_SE_EclEPSC_PSE_"
 "_ZN4Rcpp10CppMethod3IN5rstan8stan_fitIN31model_stan_boeck_2012_namespace21model_stan_boeck_2012EN5boost6random23additive_combine_engineINS6_26linear_congruential_engineIjLj40014ELj0ELj2147483563EEENS8_IjLj40692ELj0ELj2147483399EEEEEEEP7SEXPRECSE_SE_SE_ED0Ev"
 "_ZN4Rcpp10CppMethod3IN5rstan8stan_fitIN31model_stan_boeck_2012_namespace21model_stan_boeck_2012EN5boost6random23additive_combine_engineINS6_26linear_congruential_engineIjLj40014ELj0ELj2147483563EEENS8_IjLj40692ELj0ELj2147483399EEEEEEEP7SEXPRECSE_SE_SE_ED1Ev"
 "_ZN4Rcpp10CppMethod3IN5rstan8stan_fitIN31model_stan_boeck_ext2_namespace21model_stan_boeck_ext2EN5boost6random23additive_combine_engineINS6_26linear_congruential_engineIjLj40014ELj0ELj2147483563EEENS8_IjLj40692ELj0ELj2147483399EEEEEEEP7SEXPRECSE_SE_SE_E5nargsEv"
 "_ZN4Rcpp10CppMethod3IN5rstan8stan_fitIN31model_stan_boeck_ext2_namespace21model_stan_boeck_ext2EN5boost6random23additive_combine_engineINS6_26linear_congruential_engineIjLj40014ELj0ELj2147483563EEENS8_IjLj40692ELj0ELj2147483399EEEEEEEP7SEXPRECSE_SE_SE_E7is_voidEv"
 "_ZN4Rcpp10CppMethod3IN5rstan8stan_fitIN31model_stan_boeck_ext2_namespace21model_stan_boeck_ext2EN5boost6random23additive_combine_engineINS6_26linear_congruential_engineIjLj40014ELj0ELj2147483563EEENS8_IjLj40692ELj0ELj2147483399EEEEEEEP7SEXPRECSE_SE_SE_E8is_constEv"
 "_ZN4Rcpp10CppMethod3IN5rstan8stan_fitIN31model_stan_boeck_ext2_namespace21model_stan_boeck_ext2EN5boost6random23additive_combine_engineINS6_26linear_congruential_engineIjLj40014ELj0ELj2147483563EEENS8_IjLj40692ELj0ELj2147483399EEEEEEEP7SEXPRECSE_SE_SE_E9signatureERSsPKc"
 "_ZN4Rcpp10CppMethod3IN5rstan8stan_fitIN31model_stan_boeck_ext2_namespace21model_stan_boeck_ext2EN5boost6random23additive_combine_engineINS6_26linear_congruential_engineIjLj40014ELj0ELj2147483563EEENS8_IjLj40692ELj0ELj2147483399EEEEEEEP7SEXPRECSE_SE_SE_EclEPSC_PSE_"
 "_ZN4Rcpp10CppMethod3IN5rstan8stan_fitIN31model_stan_boeck_ext2_namespace21model_stan_boeck_ext2EN5boost6random23additive_combine_engineINS6_26linear_congruential_engineIjLj40014ELj0ELj2147483563EEENS8_IjLj40692ELj0ELj2147483399EEEEEEEP7SEXPRECSE_SE_SE_ED0Ev"
 "_ZN4Rcpp10CppMethod3IN5rstan8stan_fitIN31model_stan_boeck_ext2_namespace21model_stan_boeck_ext2EN5boost6random23additive_combine_engineINS6_26linear_congruential_engineIjLj40014ELj0ELj2147483563EEENS8_IjLj40692ELj0ELj2147483399EEEEEEEP7SEXPRECSE_SE_SE_ED1Ev"
 "_ZN4Rcpp10CppMethod3IN5rstan8stan_fitIN32model_stan_boeck_shift_namespace22model_stan_boeck_shiftEN5boost6random23additive_combine_engineINS6_26linear_congruential_engineIjLj40014ELj0ELj2147483563EEENS8_IjLj40692ELj0ELj2147483399EEEEEEEP7SEXPRECSE_SE_SE_E5nargsEv"
 "_ZN4Rcpp10CppMethod3IN5rstan8stan_fitIN32model_stan_boeck_shift_namespace22model_stan_boeck_shiftEN5boost6random23additive_combine_engineINS6_26linear_congruential_engineIjLj40014ELj0ELj2147483563EEENS8_IjLj40692ELj0ELj2147483399EEEEEEEP7SEXPRECSE_SE_SE_E7is_voidEv"
 "_ZN4Rcpp10CppMethod3IN5rstan8stan_fitIN32model_stan_boeck_shift_namespace22model_stan_boeck_shiftEN5boost6random23additive_combine_engineINS6_26linear_congruential_engineIjLj40014ELj0ELj2147483563EEENS8_IjLj40692ELj0ELj2147483399EEEEEEEP7SEXPRECSE_SE_SE_E8is_constEv"
 "_ZN4Rcpp10CppMethod3IN5rstan8stan_fitIN32model_stan_boeck_shift_namespace22model_stan_boeck_shiftEN5boost6random23additive_combine_engineINS6_26linear_congruential_engineIjLj40014ELj0ELj2147483563EEENS8_IjLj40692ELj0ELj2147483399EEEEEEEP7SEXPRECSE_SE_SE_E9signatureERSsPKc"
 "_ZN4Rcpp10CppMethod3IN5rstan8stan_fitIN32model_stan_boeck_shift_namespace22model_stan_boeck_shiftEN5boost6random23additive_combine_engineINS6_26linear_congruential_engineIjLj40014ELj0ELj2147483563EEENS8_IjLj40692ELj0ELj2147483399EEEEEEEP7SEXPRECSE_SE_SE_EclEPSC_PSE_"
 "_ZN4Rcpp10CppMethod3IN5rstan8stan_fitIN32model_stan_boeck_shift_namespace22model_stan_boeck_shiftEN5boost6random23additive_combine_engineINS6_26linear_congruential_engineIjLj40014ELj0ELj2147483563EEENS8_IjLj40692ELj0ELj2147483399EEEEEEEP7SEXPRECSE_SE_SE_ED0Ev"
 "_ZN4Rcpp10CppMethod3IN5rstan8stan_fitIN32model_stan_boeck_shift_namespace22model_stan_boeck_shiftEN5boost6random23additive_combine_engineINS6_26linear_congruential_engineIjLj40014ELj0ELj2147483563EEENS8_IjLj40692ELj0ELj2147483399EEEEEEEP7SEXPRECSE_SE_SE_ED1Ev"
 "_ZN4Rcpp10CppMethod3IN5rstan8stan_fitIN33model_stan_boeck_ext_HH_namespace23model_stan_boeck_ext_HHEN5boost6random23additive_combine_engineINS6_26linear_congruential_engineIjLj40014ELj0ELj2147483563EEENS8_IjLj40692ELj0ELj2147483399EEEEEEEP7SEXPRECSE_SE_SE_E5nargsEv"
 "_ZN4Rcpp10CppMethod3IN5rstan8stan_fitIN33model_stan_boeck_ext_HH_namespace23model_stan_boeck_ext_HHEN5boost6random23additive_combine_engineINS6_26linear_congruential_engineIjLj40014ELj0ELj2147483563EEENS8_IjLj40692ELj0ELj2147483399EEEEEEEP7SEXPRECSE_SE_SE_E7is_voidEv"
 "_ZN4Rcpp10CppMethod3IN5rstan8stan_fitIN33model_stan_boeck_ext_HH_namespace23model_stan_boeck_ext_HHEN5boost6random23additive_combine_engineINS6_26linear_congruential_engineIjLj40014ELj0ELj2147483563EEENS8_IjLj40692ELj0ELj2147483399EEEEEEEP7SEXPRECSE_SE_SE_E8is_constEv"
 "_ZN4Rcpp10CppMethod3IN5rstan8stan_fitIN33model_stan_boeck_ext_HH_namespace23model_stan_boeck_ext_HHEN5boost6random23additive_combine_engineINS6_26linear_congruential_engineIjLj40014ELj0ELj2147483563EEENS8_IjLj40692ELj0ELj2147483399EEEEEEEP7SEXPRECSE_SE_SE_E9signatureERSsPKc"
 "_ZN4Rcpp10CppMethod3IN5rstan8stan_fitIN33model_stan_boeck_ext_HH_namespace23model_stan_boeck_ext_HHEN5boost6random23additive_combine_engineINS6_26linear_congruential_engineIjLj40014ELj0ELj2147483563EEENS8_IjLj40692ELj0ELj2147483399EEEEEEEP7SEXPRECSE_SE_SE_EclEPSC_PSE_"
 "_ZN4Rcpp10CppMethod3IN5rstan8stan_fitIN33model_stan_boeck_ext_HH_namespace23model_stan_boeck_ext_HHEN5boost6random23additive_combine_engineINS6_26linear_congruential_engineIjLj40014ELj0ELj2147483563EEENS8_IjLj40692ELj0ELj2147483399EEEEEEEP7SEXPRECSE_SE_SE_ED0Ev"
 "_ZN4Rcpp10CppMethod3IN5rstan8stan_fitIN33model_stan_boeck_ext_HH_namespace23model_stan_boeck_ext_HHEN5boost6random23additive_combine_engineINS6_26linear_congruential_engineIjLj40014ELj0ELj2147483563EEENS8_IjLj40692ELj0ELj2147483399EEEEEEEP7SEXPRECSE_SE_SE_ED1Ev"
 "_ZN4Rcpp10eval_errorD0Ev"
 "_ZN4Rcpp10eval_errorD1Ev"
 "_ZN4Rcpp10RstreambufILb0EE4syncEv"
 "_ZN4Rcpp10RstreambufILb0EE6xsputnEPKcx"
 "_ZN4Rcpp10RstreambufILb0EE8overflowEi"
 "_ZN4Rcpp10RstreambufILb0EED0Ev"
 "_ZN4Rcpp10RstreambufILb0EED1Ev"
 "_ZN4Rcpp10RstreambufILb1EE4syncEv"
 "_ZN4Rcpp10RstreambufILb1EE6xsputnEPKcx"
 "_ZN4Rcpp10RstreambufILb1EE8overflowEi"
 "_ZN4Rcpp10RstreambufILb1EED0Ev"
 "_ZN4Rcpp10RstreambufILb1EED1Ev"
 "_ZN4Rcpp11CppPropertyIN5rstan8stan_fitIN24model_stan_pcm_namespace14model_stan_pcmEN5boost6random23additive_combine_engineINS6_26linear_congruential_engineIjLj40014ELj0ELj2147483563EEENS8_IjLj40692ELj0ELj2147483399EEEEEEEE11is_readonlyEv"
 "_ZN4Rcpp11CppPropertyIN5rstan8stan_fitIN24model_stan_pcm_namespace14model_stan_pcmEN5boost6random23additive_combine_engineINS6_26linear_congruential_engineIjLj40014ELj0ELj2147483563EEENS8_IjLj40692ELj0ELj2147483399EEEEEEEE3getEPSC_"
 "_ZN4Rcpp11CppPropertyIN5rstan8stan_fitIN24model_stan_pcm_namespace14model_stan_pcmEN5boost6random23additive_combine_engineINS6_26linear_congruential_engineIjLj40014ELj0ELj2147483563EEENS8_IjLj40692ELj0ELj2147483399EEEEEEEE3setEPSC_P7SEXPREC"
 "_ZN4Rcpp11CppPropertyIN5rstan8stan_fitIN24model_stan_pcm_namespace14model_stan_pcmEN5boost6random23additive_combine_engineINS6_26linear_congruential_engineIjLj40014ELj0ELj2147483563EEENS8_IjLj40692ELj0ELj2147483399EEEEEEEE9get_classEv"
 "_ZN4Rcpp11CppPropertyIN5rstan8stan_fitIN24model_stan_pcm_namespace14model_stan_pcmEN5boost6random23additive_combine_engineINS6_26linear_congruential_engineIjLj40014ELj0ELj2147483563EEENS8_IjLj40692ELj0ELj2147483399EEEEEEEED0Ev"
 "_ZN4Rcpp11CppPropertyIN5rstan8stan_fitIN24model_stan_pcm_namespace14model_stan_pcmEN5boost6random23additive_combine_engineINS6_26linear_congruential_engineIjLj40014ELj0ELj2147483563EEENS8_IjLj40692ELj0ELj2147483399EEEEEEEED1Ev"
 "_ZN4Rcpp11CppPropertyIN5rstan8stan_fitIN26model_stan_steps_namespace16model_stan_stepsEN5boost6random23additive_combine_engineINS6_26linear_congruential_engineIjLj40014ELj0ELj2147483563EEENS8_IjLj40692ELj0ELj2147483399EEEEEEEE11is_readonlyEv"
 "_ZN4Rcpp11CppPropertyIN5rstan8stan_fitIN26model_stan_steps_namespace16model_stan_stepsEN5boost6random23additive_combine_engineINS6_26linear_congruential_engineIjLj40014ELj0ELj2147483563EEENS8_IjLj40692ELj0ELj2147483399EEEEEEEE3getEPSC_"
 "_ZN4Rcpp11CppPropertyIN5rstan8stan_fitIN26model_stan_steps_namespace16model_stan_stepsEN5boost6random23additive_combine_engineINS6_26linear_congruential_engineIjLj40014ELj0ELj2147483563EEENS8_IjLj40692ELj0ELj2147483399EEEEEEEE3setEPSC_P7SEXPREC"
 "_ZN4Rcpp11CppPropertyIN5rstan8stan_fitIN26model_stan_steps_namespace16model_stan_stepsEN5boost6random23additive_combine_engineINS6_26linear_congruential_engineIjLj40014ELj0ELj2147483563EEENS8_IjLj40692ELj0ELj2147483399EEEEEEEE9get_classEv"
 "_ZN4Rcpp11CppPropertyIN5rstan8stan_fitIN26model_stan_steps_namespace16model_stan_stepsEN5boost6random23additive_combine_engineINS6_26linear_congruential_engineIjLj40014ELj0ELj2147483563EEENS8_IjLj40692ELj0ELj2147483399EEEEEEEED0Ev"
 "_ZN4Rcpp11CppPropertyIN5rstan8stan_fitIN26model_stan_steps_namespace16model_stan_stepsEN5boost6random23additive_combine_engineINS6_26linear_congruential_engineIjLj40014ELj0ELj2147483563EEENS8_IjLj40692ELj0ELj2147483399EEEEEEEED1Ev"
 "_ZN4Rcpp11CppPropertyIN5rstan8stan_fitIN30model_stan_boeck_ext_namespace20model_stan_boeck_extEN5boost6random23additive_combine_engineINS6_26linear_congruential_engineIjLj40014ELj0ELj2147483563EEENS8_IjLj40692ELj0ELj2147483399EEEEEEEE11is_readonlyEv"
 "_ZN4Rcpp11CppPropertyIN5rstan8stan_fitIN30model_stan_boeck_ext_namespace20model_stan_boeck_extEN5boost6random23additive_combine_engineINS6_26linear_congruential_engineIjLj40014ELj0ELj2147483563EEENS8_IjLj40692ELj0ELj2147483399EEEEEEEE3getEPSC_"
 "_ZN4Rcpp11CppPropertyIN5rstan8stan_fitIN30model_stan_boeck_ext_namespace20model_stan_boeck_extEN5boost6random23additive_combine_engineINS6_26linear_congruential_engineIjLj40014ELj0ELj2147483563EEENS8_IjLj40692ELj0ELj2147483399EEEEEEEE3setEPSC_P7SEXPREC"
 "_ZN4Rcpp11CppPropertyIN5rstan8stan_fitIN30model_stan_boeck_ext_namespace20model_stan_boeck_extEN5boost6random23additive_combine_engineINS6_26linear_congruential_engineIjLj40014ELj0ELj2147483563EEENS8_IjLj40692ELj0ELj2147483399EEEEEEEE9get_classEv"
 "_ZN4Rcpp11CppPropertyIN5rstan8stan_fitIN30model_stan_boeck_ext_namespace20model_stan_boeck_extEN5boost6random23additive_combine_engineINS6_26linear_congruential_engineIjLj40014ELj0ELj2147483563EEENS8_IjLj40692ELj0ELj2147483399EEEEEEEED0Ev"
 "_ZN4Rcpp11CppPropertyIN5rstan8stan_fitIN30model_stan_boeck_ext_namespace20model_stan_boeck_extEN5boost6random23additive_combine_engineINS6_26linear_congruential_engineIjLj40014ELj0ELj2147483563EEENS8_IjLj40692ELj0ELj2147483399EEEEEEEED1Ev"
 "_ZN4Rcpp11CppPropertyIN5rstan8stan_fitIN31model_stan_boeck_2012_namespace21model_stan_boeck_2012EN5boost6random23additive_combine_engineINS6_26linear_congruential_engineIjLj40014ELj0ELj2147483563EEENS8_IjLj40692ELj0ELj2147483399EEEEEEEE11is_readonlyEv"
 "_ZN4Rcpp11CppPropertyIN5rstan8stan_fitIN31model_stan_boeck_2012_namespace21model_stan_boeck_2012EN5boost6random23additive_combine_engineINS6_26linear_congruential_engineIjLj40014ELj0ELj2147483563EEENS8_IjLj40692ELj0ELj2147483399EEEEEEEE3getEPSC_"
 "_ZN4Rcpp11CppPropertyIN5rstan8stan_fitIN31model_stan_boeck_2012_namespace21model_stan_boeck_2012EN5boost6random23additive_combine_engineINS6_26linear_congruential_engineIjLj40014ELj0ELj2147483563EEENS8_IjLj40692ELj0ELj2147483399EEEEEEEE3setEPSC_P7SEXPREC"
 "_ZN4Rcpp11CppPropertyIN5rstan8stan_fitIN31model_stan_boeck_2012_namespace21model_stan_boeck_2012EN5boost6random23additive_combine_engineINS6_26linear_congruential_engineIjLj40014ELj0ELj2147483563EEENS8_IjLj40692ELj0ELj2147483399EEEEEEEE9get_classEv"
 "_ZN4Rcpp11CppPropertyIN5rstan8stan_fitIN31model_stan_boeck_2012_namespace21model_stan_boeck_2012EN5boost6random23additive_combine_engineINS6_26linear_congruential_engineIjLj40014ELj0ELj2147483563EEENS8_IjLj40692ELj0ELj2147483399EEEEEEEED0Ev"
 "_ZN4Rcpp11CppPropertyIN5rstan8stan_fitIN31model_stan_boeck_2012_namespace21model_stan_boeck_2012EN5boost6random23additive_combine_engineINS6_26linear_congruential_engineIjLj40014ELj0ELj2147483563EEENS8_IjLj40692ELj0ELj2147483399EEEEEEEED1Ev"
 "_ZN4Rcpp11CppPropertyIN5rstan8stan_fitIN31model_stan_boeck_ext2_namespace21model_stan_boeck_ext2EN5boost6random23additive_combine_engineINS6_26linear_congruential_engineIjLj40014ELj0ELj2147483563EEENS8_IjLj40692ELj0ELj2147483399EEEEEEEE11is_readonlyEv"
 "_ZN4Rcpp11CppPropertyIN5rstan8stan_fitIN31model_stan_boeck_ext2_namespace21model_stan_boeck_ext2EN5boost6random23additive_combine_engineINS6_26linear_congruential_engineIjLj40014ELj0ELj2147483563EEENS8_IjLj40692ELj0ELj2147483399EEEEEEEE3getEPSC_"
 "_ZN4Rcpp11CppPropertyIN5rstan8stan_fitIN31model_stan_boeck_ext2_namespace21model_stan_boeck_ext2EN5boost6random23additive_combine_engineINS6_26linear_congruential_engineIjLj40014ELj0ELj2147483563EEENS8_IjLj40692ELj0ELj2147483399EEEEEEEE3setEPSC_P7SEXPREC"
 "_ZN4Rcpp11CppPropertyIN5rstan8stan_fitIN31model_stan_boeck_ext2_namespace21model_stan_boeck_ext2EN5boost6random23additive_combine_engineINS6_26linear_congruential_engineIjLj40014ELj0ELj2147483563EEENS8_IjLj40692ELj0ELj2147483399EEEEEEEE9get_classEv"
 "_ZN4Rcpp11CppPropertyIN5rstan8stan_fitIN31model_stan_boeck_ext2_namespace21model_stan_boeck_ext2EN5boost6random23additive_combine_engineINS6_26linear_congruential_engineIjLj40014ELj0ELj2147483563EEENS8_IjLj40692ELj0ELj2147483399EEEEEEEED0Ev"
 "_ZN4Rcpp11CppPropertyIN5rstan8stan_fitIN31model_stan_boeck_ext2_namespace21model_stan_boeck_ext2EN5boost6random23additive_combine_engineINS6_26linear_congruential_engineIjLj40014ELj0ELj2147483563EEENS8_IjLj40692ELj0ELj2147483399EEEEEEEED1Ev"
 "_ZN4Rcpp11CppPropertyIN5rstan8stan_fitIN32model_stan_boeck_shift_namespace22model_stan_boeck_shiftEN5boost6random23additive_combine_engineINS6_26linear_congruential_engineIjLj40014ELj0ELj2147483563EEENS8_IjLj40692ELj0ELj2147483399EEEEEEEE11is_readonlyEv"
 "_ZN4Rcpp11CppPropertyIN5rstan8stan_fitIN32model_stan_boeck_shift_namespace22model_stan_boeck_shiftEN5boost6random23additive_combine_engineINS6_26linear_congruential_engineIjLj40014ELj0ELj2147483563EEENS8_IjLj40692ELj0ELj2147483399EEEEEEEE3getEPSC_"
 "_ZN4Rcpp11CppPropertyIN5rstan8stan_fitIN32model_stan_boeck_shift_namespace22model_stan_boeck_shiftEN5boost6random23additive_combine_engineINS6_26linear_congruential_engineIjLj40014ELj0ELj2147483563EEENS8_IjLj40692ELj0ELj2147483399EEEEEEEE3setEPSC_P7SEXPREC"
 "_ZN4Rcpp11CppPropertyIN5rstan8stan_fitIN32model_stan_boeck_shift_namespace22model_stan_boeck_shiftEN5boost6random23additive_combine_engineINS6_26linear_congruential_engineIjLj40014ELj0ELj2147483563EEENS8_IjLj40692ELj0ELj2147483399EEEEEEEE9get_classEv"
 "_ZN4Rcpp11CppPropertyIN5rstan8stan_fitIN32model_stan_boeck_shift_namespace22model_stan_boeck_shiftEN5boost6random23additive_combine_engineINS6_26linear_congruential_engineIjLj40014ELj0ELj2147483563EEENS8_IjLj40692ELj0ELj2147483399EEEEEEEED0Ev"
 "_ZN4Rcpp11CppPropertyIN5rstan8stan_fitIN32model_stan_boeck_shift_namespace22model_stan_boeck_shiftEN5boost6random23additive_combine_engineINS6_26linear_congruential_engineIjLj40014ELj0ELj2147483563EEENS8_IjLj40692ELj0ELj2147483399EEEEEEEED1Ev"
 "_ZN4Rcpp11CppPropertyIN5rstan8stan_fitIN33model_stan_boeck_ext_HH_namespace23model_stan_boeck_ext_HHEN5boost6random23additive_combine_engineINS6_26linear_congruential_engineIjLj40014ELj0ELj2147483563EEENS8_IjLj40692ELj0ELj2147483399EEEEEEEE11is_readonlyEv"
 "_ZN4Rcpp11CppPropertyIN5rstan8stan_fitIN33model_stan_boeck_ext_HH_namespace23model_stan_boeck_ext_HHEN5boost6random23additive_combine_engineINS6_26linear_congruential_engineIjLj40014ELj0ELj2147483563EEENS8_IjLj40692ELj0ELj2147483399EEEEEEEE3getEPSC_"
 "_ZN4Rcpp11CppPropertyIN5rstan8stan_fitIN33model_stan_boeck_ext_HH_namespace23model_stan_boeck_ext_HHEN5boost6random23additive_combine_engineINS6_26linear_congruential_engineIjLj40014ELj0ELj2147483563EEENS8_IjLj40692ELj0ELj2147483399EEEEEEEE3setEPSC_P7SEXPREC"
 "_ZN4Rcpp11CppPropertyIN5rstan8stan_fitIN33model_stan_boeck_ext_HH_namespace23model_stan_boeck_ext_HHEN5boost6random23additive_combine_engineINS6_26linear_congruential_engineIjLj40014ELj0ELj2147483563EEENS8_IjLj40692ELj0ELj2147483399EEEEEEEE9get_classEv"
 "_ZN4Rcpp11CppPropertyIN5rstan8stan_fitIN33model_stan_boeck_ext_HH_namespace23model_stan_boeck_ext_HHEN5boost6random23additive_combine_engineINS6_26linear_congruential_engineIjLj40014ELj0ELj2147483563EEENS8_IjLj40692ELj0ELj2147483399EEEEEEEED0Ev"
 "_ZN4Rcpp11CppPropertyIN5rstan8stan_fitIN33model_stan_boeck_ext_HH_namespace23model_stan_boeck_ext_HHEN5boost6random23additive_combine_engineINS6_26linear_congruential_engineIjLj40014ELj0ELj2147483563EEENS8_IjLj40692ELj0ELj2147483399EEEEEEEED1Ev"
 "_ZN4Rcpp12CppFinalizerIN5rstan8stan_fitIN24model_stan_pcm_namespace14model_stan_pcmEN5boost6random23additive_combine_engineINS6_26linear_congruential_engineIjLj40014ELj0ELj2147483563EEENS8_IjLj40692ELj0ELj2147483399EEEEEEEE3runEPSC_"
 "_ZN4Rcpp12CppFinalizerIN5rstan8stan_fitIN26model_stan_steps_namespace16model_stan_stepsEN5boost6random23additive_combine_engineINS6_26linear_congruential_engineIjLj40014ELj0ELj2147483563EEENS8_IjLj40692ELj0ELj2147483399EEEEEEEE3runEPSC_"
 "_ZN4Rcpp12CppFinalizerIN5rstan8stan_fitIN30model_stan_boeck_ext_namespace20model_stan_boeck_extEN5boost6random23additive_combine_engineINS6_26linear_congruential_engineIjLj40014ELj0ELj2147483563EEENS8_IjLj40692ELj0ELj2147483399EEEEEEEE3runEPSC_"
 "_ZN4Rcpp12CppFinalizerIN5rstan8stan_fitIN31model_stan_boeck_2012_namespace21model_stan_boeck_2012EN5boost6random23additive_combine_engineINS6_26linear_congruential_engineIjLj40014ELj0ELj2147483563EEENS8_IjLj40692ELj0ELj2147483399EEEEEEEE3runEPSC_"
 "_ZN4Rcpp12CppFinalizerIN5rstan8stan_fitIN31model_stan_boeck_ext2_namespace21model_stan_boeck_ext2EN5boost6random23additive_combine_engineINS6_26linear_congruential_engineIjLj40014ELj0ELj2147483563EEENS8_IjLj40692ELj0ELj2147483399EEEEEEEE3runEPSC_"
 "_ZN4Rcpp12CppFinalizerIN5rstan8stan_fitIN32model_stan_boeck_shift_namespace22model_stan_boeck_shiftEN5boost6random23additive_combine_engineINS6_26linear_congruential_engineIjLj40014ELj0ELj2147483563EEENS8_IjLj40692ELj0ELj2147483399EEEEEEEE3runEPSC_"
 "_ZN4Rcpp12CppFinalizerIN5rstan8stan_fitIN33model_stan_boeck_ext_HH_namespace23model_stan_boeck_ext_HHEN5boost6random23additive_combine_engineINS6_26linear_congruential_engineIjLj40014ELj0ELj2147483563EEENS8_IjLj40692ELj0ELj2147483399EEEEEEEE3runEPSC_"
 "_ZN4Rcpp13Constructor_2IN5rstan8stan_fitIN24model_stan_pcm_namespace14model_stan_pcmEN5boost6random23additive_combine_engineINS6_26linear_congruential_engineIjLj40014ELj0ELj2147483563EEENS8_IjLj40692ELj0ELj2147483399EEEEEEEP7SEXPRECSE_E5nargsEv"
 "_ZN4Rcpp13Constructor_2IN5rstan8stan_fitIN24model_stan_pcm_namespace14model_stan_pcmEN5boost6random23additive_combine_engineINS6_26linear_congruential_engineIjLj40014ELj0ELj2147483563EEENS8_IjLj40692ELj0ELj2147483399EEEEEEEP7SEXPRECSE_E7get_newEPSE_i"
 "_ZN4Rcpp13Constructor_2IN5rstan8stan_fitIN24model_stan_pcm_namespace14model_stan_pcmEN5boost6random23additive_combine_engineINS6_26linear_congruential_engineIjLj40014ELj0ELj2147483563EEENS8_IjLj40692ELj0ELj2147483399EEEEEEEP7SEXPRECSE_E9signatureERSsRKSs"
 "_ZN4Rcpp13Constructor_2IN5rstan8stan_fitIN26model_stan_steps_namespace16model_stan_stepsEN5boost6random23additive_combine_engineINS6_26linear_congruential_engineIjLj40014ELj0ELj2147483563EEENS8_IjLj40692ELj0ELj2147483399EEEEEEEP7SEXPRECSE_E5nargsEv"
 "_ZN4Rcpp13Constructor_2IN5rstan8stan_fitIN26model_stan_steps_namespace16model_stan_stepsEN5boost6random23additive_combine_engineINS6_26linear_congruential_engineIjLj40014ELj0ELj2147483563EEENS8_IjLj40692ELj0ELj2147483399EEEEEEEP7SEXPRECSE_E7get_newEPSE_i"
 "_ZN4Rcpp13Constructor_2IN5rstan8stan_fitIN26model_stan_steps_namespace16model_stan_stepsEN5boost6random23additive_combine_engineINS6_26linear_congruential_engineIjLj40014ELj0ELj2147483563EEENS8_IjLj40692ELj0ELj2147483399EEEEEEEP7SEXPRECSE_E9signatureERSsRKSs"
 "_ZN4Rcpp13Constructor_2IN5rstan8stan_fitIN30model_stan_boeck_ext_namespace20model_stan_boeck_extEN5boost6random23additive_combine_engineINS6_26linear_congruential_engineIjLj40014ELj0ELj2147483563EEENS8_IjLj40692ELj0ELj2147483399EEEEEEEP7SEXPRECSE_E5nargsEv"
 "_ZN4Rcpp13Constructor_2IN5rstan8stan_fitIN30model_stan_boeck_ext_namespace20model_stan_boeck_extEN5boost6random23additive_combine_engineINS6_26linear_congruential_engineIjLj40014ELj0ELj2147483563EEENS8_IjLj40692ELj0ELj2147483399EEEEEEEP7SEXPRECSE_E7get_newEPSE_i"
 "_ZN4Rcpp13Constructor_2IN5rstan8stan_fitIN30model_stan_boeck_ext_namespace20model_stan_boeck_extEN5boost6random23additive_combine_engineINS6_26linear_congruential_engineIjLj40014ELj0ELj2147483563EEENS8_IjLj40692ELj0ELj2147483399EEEEEEEP7SEXPRECSE_E9signatureERSsRKSs"
 "_ZN4Rcpp13Constructor_2IN5rstan8stan_fitIN31model_stan_boeck_2012_namespace21model_stan_boeck_2012EN5boost6random23additive_combine_engineINS6_26linear_congruential_engineIjLj40014ELj0ELj2147483563EEENS8_IjLj40692ELj0ELj2147483399EEEEEEEP7SEXPRECSE_E5nargsEv"
 "_ZN4Rcpp13Constructor_2IN5rstan8stan_fitIN31model_stan_boeck_2012_namespace21model_stan_boeck_2012EN5boost6random23additive_combine_engineINS6_26linear_congruential_engineIjLj40014ELj0ELj2147483563EEENS8_IjLj40692ELj0ELj2147483399EEEEEEEP7SEXPRECSE_E7get_newEPSE_i"
 "_ZN4Rcpp13Constructor_2IN5rstan8stan_fitIN31model_stan_boeck_2012_namespace21model_stan_boeck_2012EN5boost6random23additive_combine_engineINS6_26linear_congruential_engineIjLj40014ELj0ELj2147483563EEENS8_IjLj40692ELj0ELj2147483399EEEEEEEP7SEXPRECSE_E9signatureERSsRKSs"
 "_ZN4Rcpp13Constructor_2IN5rstan8stan_fitIN31model_stan_boeck_ext2_namespace21model_stan_boeck_ext2EN5boost6random23additive_combine_engineINS6_26linear_congruential_engineIjLj40014ELj0ELj2147483563EEENS8_IjLj40692ELj0ELj2147483399EEEEEEEP7SEXPRECSE_E5nargsEv"
 "_ZN4Rcpp13Constructor_2IN5rstan8stan_fitIN31model_stan_boeck_ext2_namespace21model_stan_boeck_ext2EN5boost6random23additive_combine_engineINS6_26linear_congruential_engineIjLj40014ELj0ELj2147483563EEENS8_IjLj40692ELj0ELj2147483399EEEEEEEP7SEXPRECSE_E7get_newEPSE_i"
 "_ZN4Rcpp13Constructor_2IN5rstan8stan_fitIN31model_stan_boeck_ext2_namespace21model_stan_boeck_ext2EN5boost6random23additive_combine_engineINS6_26linear_congruential_engineIjLj40014ELj0ELj2147483563EEENS8_IjLj40692ELj0ELj2147483399EEEEEEEP7SEXPRECSE_E9signatureERSsRKSs"
 "_ZN4Rcpp13Constructor_2IN5rstan8stan_fitIN32model_stan_boeck_shift_namespace22model_stan_boeck_shiftEN5boost6random23additive_combine_engineINS6_26linear_congruential_engineIjLj40014ELj0ELj2147483563EEENS8_IjLj40692ELj0ELj2147483399EEEEEEEP7SEXPRECSE_E5nargsEv"
 "_ZN4Rcpp13Constructor_2IN5rstan8stan_fitIN32model_stan_boeck_shift_namespace22model_stan_boeck_shiftEN5boost6random23additive_combine_engineINS6_26linear_congruential_engineIjLj40014ELj0ELj2147483563EEENS8_IjLj40692ELj0ELj2147483399EEEEEEEP7SEXPRECSE_E7get_newEPSE_i"
 "_ZN4Rcpp13Constructor_2IN5rstan8stan_fitIN32model_stan_boeck_shift_namespace22model_stan_boeck_shiftEN5boost6random23additive_combine_engineINS6_26linear_congruential_engineIjLj40014ELj0ELj2147483563EEENS8_IjLj40692ELj0ELj2147483399EEEEEEEP7SEXPRECSE_E9signatureERSsRKSs"
 "_ZN4Rcpp13Constructor_2IN5rstan8stan_fitIN33model_stan_boeck_ext_HH_namespace23model_stan_boeck_ext_HHEN5boost6random23additive_combine_engineINS6_26linear_congruential_engineIjLj40014ELj0ELj2147483563EEENS8_IjLj40692ELj0ELj2147483399EEEEEEEP7SEXPRECSE_E5nargsEv"
 "_ZN4Rcpp13Constructor_2IN5rstan8stan_fitIN33model_stan_boeck_ext_HH_namespace23model_stan_boeck_ext_HHEN5boost6random23additive_combine_engineINS6_26linear_congruential_engineIjLj40014ELj0ELj2147483563EEENS8_IjLj40692ELj0ELj2147483399EEEEEEEP7SEXPRECSE_E7get_newEPSE_i"
 "_ZN4Rcpp13Constructor_2IN5rstan8stan_fitIN33model_stan_boeck_ext_HH_namespace23model_stan_boeck_ext_HHEN5boost6random23additive_combine_engineINS6_26linear_congruential_engineIjLj40014ELj0ELj2147483563EEENS8_IjLj40692ELj0ELj2147483399EEEEEEEP7SEXPRECSE_E9signatureERSsRKSs"
 "_ZN4Rcpp13Function_ImplINS_15PreserveStorageEEC1EP7SEXPREC"
 "_ZN4Rcpp13not_referenceD0Ev"
 "_ZN4Rcpp13not_referenceD1Ev"
 "_ZN4Rcpp14ctor_signatureIP7SEXPRECS2_EEvRSsRKSs"
 "_ZN4Rcpp14not_compatibleC1IIiEEEPKcDpOT_"
 "_ZN4Rcpp14not_compatibleC1IIPKcEEES3_DpOT_"
 "_ZN4Rcpp14not_compatibleC1IIPKcS3_EEES3_DpOT_"
 "_ZN4Rcpp14not_compatibleD0Ev"
 "_ZN4Rcpp14not_compatibleD1Ev"
 "_ZN4Rcpp14Reference_ImplINS_15PreserveStorageEEC2ERKSs"
 "_ZN4Rcpp16const_CppMethod0IN5rstan8stan_fitIN24model_stan_pcm_namespace14model_stan_pcmEN5boost6random23additive_combine_engineINS6_26linear_congruential_engineIjLj40014ELj0ELj2147483563EEENS8_IjLj40692ELj0ELj2147483399EEEEEEEP7SEXPRECE5nargsEv"
 "_ZN4Rcpp16const_CppMethod0IN5rstan8stan_fitIN24model_stan_pcm_namespace14model_stan_pcmEN5boost6random23additive_combine_engineINS6_26linear_congruential_engineIjLj40014ELj0ELj2147483563EEENS8_IjLj40692ELj0ELj2147483399EEEEEEEP7SEXPRECE7is_voidEv"
 "_ZN4Rcpp16const_CppMethod0IN5rstan8stan_fitIN24model_stan_pcm_namespace14model_stan_pcmEN5boost6random23additive_combine_engineINS6_26linear_congruential_engineIjLj40014ELj0ELj2147483563EEENS8_IjLj40692ELj0ELj2147483399EEEEEEEP7SEXPRECE8is_constEv"
 "_ZN4Rcpp16const_CppMethod0IN5rstan8stan_fitIN24model_stan_pcm_namespace14model_stan_pcmEN5boost6random23additive_combine_engineINS6_26linear_congruential_engineIjLj40014ELj0ELj2147483563EEENS8_IjLj40692ELj0ELj2147483399EEEEEEEP7SEXPRECE9signatureERSsPKc"
 "_ZN4Rcpp16const_CppMethod0IN5rstan8stan_fitIN24model_stan_pcm_namespace14model_stan_pcmEN5boost6random23additive_combine_engineINS6_26linear_congruential_engineIjLj40014ELj0ELj2147483563EEENS8_IjLj40692ELj0ELj2147483399EEEEEEEP7SEXPRECEclEPSC_PSE_"
 "_ZN4Rcpp16const_CppMethod0IN5rstan8stan_fitIN24model_stan_pcm_namespace14model_stan_pcmEN5boost6random23additive_combine_engineINS6_26linear_congruential_engineIjLj40014ELj0ELj2147483563EEENS8_IjLj40692ELj0ELj2147483399EEEEEEEP7SEXPRECED0Ev"
 "_ZN4Rcpp16const_CppMethod0IN5rstan8stan_fitIN24model_stan_pcm_namespace14model_stan_pcmEN5boost6random23additive_combine_engineINS6_26linear_congruential_engineIjLj40014ELj0ELj2147483563EEENS8_IjLj40692ELj0ELj2147483399EEEEEEEP7SEXPRECED1Ev"
 "_ZN4Rcpp16const_CppMethod0IN5rstan8stan_fitIN26model_stan_steps_namespace16model_stan_stepsEN5boost6random23additive_combine_engineINS6_26linear_congruential_engineIjLj40014ELj0ELj2147483563EEENS8_IjLj40692ELj0ELj2147483399EEEEEEEP7SEXPRECE5nargsEv"
 "_ZN4Rcpp16const_CppMethod0IN5rstan8stan_fitIN26model_stan_steps_namespace16model_stan_stepsEN5boost6random23additive_combine_engineINS6_26linear_congruential_engineIjLj40014ELj0ELj2147483563EEENS8_IjLj40692ELj0ELj2147483399EEEEEEEP7SEXPRECE7is_voidEv"
 "_ZN4Rcpp16const_CppMethod0IN5rstan8stan_fitIN26model_stan_steps_namespace16model_stan_stepsEN5boost6random23additive_combine_engineINS6_26linear_congruential_engineIjLj40014ELj0ELj2147483563EEENS8_IjLj40692ELj0ELj2147483399EEEEEEEP7SEXPRECE8is_constEv"
 "_ZN4Rcpp16const_CppMethod0IN5rstan8stan_fitIN26model_stan_steps_namespace16model_stan_stepsEN5boost6random23additive_combine_engineINS6_26linear_congruential_engineIjLj40014ELj0ELj2147483563EEENS8_IjLj40692ELj0ELj2147483399EEEEEEEP7SEXPRECE9signatureERSsPKc"
 "_ZN4Rcpp16const_CppMethod0IN5rstan8stan_fitIN26model_stan_steps_namespace16model_stan_stepsEN5boost6random23additive_combine_engineINS6_26linear_congruential_engineIjLj40014ELj0ELj2147483563EEENS8_IjLj40692ELj0ELj2147483399EEEEEEEP7SEXPRECEclEPSC_PSE_"
 "_ZN4Rcpp16const_CppMethod0IN5rstan8stan_fitIN26model_stan_steps_namespace16model_stan_stepsEN5boost6random23additive_combine_engineINS6_26linear_congruential_engineIjLj40014ELj0ELj2147483563EEENS8_IjLj40692ELj0ELj2147483399EEEEEEEP7SEXPRECED0Ev"
 "_ZN4Rcpp16const_CppMethod0IN5rstan8stan_fitIN26model_stan_steps_namespace16model_stan_stepsEN5boost6random23additive_combine_engineINS6_26linear_congruential_engineIjLj40014ELj0ELj2147483563EEENS8_IjLj40692ELj0ELj2147483399EEEEEEEP7SEXPRECED1Ev"
 "_ZN4Rcpp16const_CppMethod0IN5rstan8stan_fitIN30model_stan_boeck_ext_namespace20model_stan_boeck_extEN5boost6random23additive_combine_engineINS6_26linear_congruential_engineIjLj40014ELj0ELj2147483563EEENS8_IjLj40692ELj0ELj2147483399EEEEEEEP7SEXPRECE5nargsEv"
 "_ZN4Rcpp16const_CppMethod0IN5rstan8stan_fitIN30model_stan_boeck_ext_namespace20model_stan_boeck_extEN5boost6random23additive_combine_engineINS6_26linear_congruential_engineIjLj40014ELj0ELj2147483563EEENS8_IjLj40692ELj0ELj2147483399EEEEEEEP7SEXPRECE7is_voidEv"
 "_ZN4Rcpp16const_CppMethod0IN5rstan8stan_fitIN30model_stan_boeck_ext_namespace20model_stan_boeck_extEN5boost6random23additive_combine_engineINS6_26linear_congruential_engineIjLj40014ELj0ELj2147483563EEENS8_IjLj40692ELj0ELj2147483399EEEEEEEP7SEXPRECE8is_constEv"
 "_ZN4Rcpp16const_CppMethod0IN5rstan8stan_fitIN30model_stan_boeck_ext_namespace20model_stan_boeck_extEN5boost6random23additive_combine_engineINS6_26linear_congruential_engineIjLj40014ELj0ELj2147483563EEENS8_IjLj40692ELj0ELj2147483399EEEEEEEP7SEXPRECE9signatureERSsPKc"
 "_ZN4Rcpp16const_CppMethod0IN5rstan8stan_fitIN30model_stan_boeck_ext_namespace20model_stan_boeck_extEN5boost6random23additive_combine_engineINS6_26linear_congruential_engineIjLj40014ELj0ELj2147483563EEENS8_IjLj40692ELj0ELj2147483399EEEEEEEP7SEXPRECEclEPSC_PSE_"
 "_ZN4Rcpp16const_CppMethod0IN5rstan8stan_fitIN30model_stan_boeck_ext_namespace20model_stan_boeck_extEN5boost6random23additive_combine_engineINS6_26linear_congruential_engineIjLj40014ELj0ELj2147483563EEENS8_IjLj40692ELj0ELj2147483399EEEEEEEP7SEXPRECED0Ev"
 "_ZN4Rcpp16const_CppMethod0IN5rstan8stan_fitIN30model_stan_boeck_ext_namespace20model_stan_boeck_extEN5boost6random23additive_combine_engineINS6_26linear_congruential_engineIjLj40014ELj0ELj2147483563EEENS8_IjLj40692ELj0ELj2147483399EEEEEEEP7SEXPRECED1Ev"
 "_ZN4Rcpp16const_CppMethod0IN5rstan8stan_fitIN31model_stan_boeck_2012_namespace21model_stan_boeck_2012EN5boost6random23additive_combine_engineINS6_26linear_congruential_engineIjLj40014ELj0ELj2147483563EEENS8_IjLj40692ELj0ELj2147483399EEEEEEEP7SEXPRECE5nargsEv"
 "_ZN4Rcpp16const_CppMethod0IN5rstan8stan_fitIN31model_stan_boeck_2012_namespace21model_stan_boeck_2012EN5boost6random23additive_combine_engineINS6_26linear_congruential_engineIjLj40014ELj0ELj2147483563EEENS8_IjLj40692ELj0ELj2147483399EEEEEEEP7SEXPRECE7is_voidEv"
 "_ZN4Rcpp16const_CppMethod0IN5rstan8stan_fitIN31model_stan_boeck_2012_namespace21model_stan_boeck_2012EN5boost6random23additive_combine_engineINS6_26linear_congruential_engineIjLj40014ELj0ELj2147483563EEENS8_IjLj40692ELj0ELj2147483399EEEEEEEP7SEXPRECE8is_constEv"
 "_ZN4Rcpp16const_CppMethod0IN5rstan8stan_fitIN31model_stan_boeck_2012_namespace21model_stan_boeck_2012EN5boost6random23additive_combine_engineINS6_26linear_congruential_engineIjLj40014ELj0ELj2147483563EEENS8_IjLj40692ELj0ELj2147483399EEEEEEEP7SEXPRECE9signatureERSsPKc"
 "_ZN4Rcpp16const_CppMethod0IN5rstan8stan_fitIN31model_stan_boeck_2012_namespace21model_stan_boeck_2012EN5boost6random23additive_combine_engineINS6_26linear_congruential_engineIjLj40014ELj0ELj2147483563EEENS8_IjLj40692ELj0ELj2147483399EEEEEEEP7SEXPRECEclEPSC_PSE_"
 "_ZN4Rcpp16const_CppMethod0IN5rstan8stan_fitIN31model_stan_boeck_2012_namespace21model_stan_boeck_2012EN5boost6random23additive_combine_engineINS6_26linear_congruential_engineIjLj40014ELj0ELj2147483563EEENS8_IjLj40692ELj0ELj2147483399EEEEEEEP7SEXPRECED0Ev"
 "_ZN4Rcpp16const_CppMethod0IN5rstan8stan_fitIN31model_stan_boeck_2012_namespace21model_stan_boeck_2012EN5boost6random23additive_combine_engineINS6_26linear_congruential_engineIjLj40014ELj0ELj2147483563EEENS8_IjLj40692ELj0ELj2147483399EEEEEEEP7SEXPRECED1Ev"
 "_ZN4Rcpp16const_CppMethod0IN5rstan8stan_fitIN31model_stan_boeck_ext2_namespace21model_stan_boeck_ext2EN5boost6random23additive_combine_engineINS6_26linear_congruential_engineIjLj40014ELj0ELj2147483563EEENS8_IjLj40692ELj0ELj2147483399EEEEEEEP7SEXPRECE5nargsEv"
 "_ZN4Rcpp16const_CppMethod0IN5rstan8stan_fitIN31model_stan_boeck_ext2_namespace21model_stan_boeck_ext2EN5boost6random23additive_combine_engineINS6_26linear_congruential_engineIjLj40014ELj0ELj2147483563EEENS8_IjLj40692ELj0ELj2147483399EEEEEEEP7SEXPRECE7is_voidEv"
 "_ZN4Rcpp16const_CppMethod0IN5rstan8stan_fitIN31model_stan_boeck_ext2_namespace21model_stan_boeck_ext2EN5boost6random23additive_combine_engineINS6_26linear_congruential_engineIjLj40014ELj0ELj2147483563EEENS8_IjLj40692ELj0ELj2147483399EEEEEEEP7SEXPRECE8is_constEv"
 "_ZN4Rcpp16const_CppMethod0IN5rstan8stan_fitIN31model_stan_boeck_ext2_namespace21model_stan_boeck_ext2EN5boost6random23additive_combine_engineINS6_26linear_congruential_engineIjLj40014ELj0ELj2147483563EEENS8_IjLj40692ELj0ELj2147483399EEEEEEEP7SEXPRECE9signatureERSsPKc"
 "_ZN4Rcpp16const_CppMethod0IN5rstan8stan_fitIN31model_stan_boeck_ext2_namespace21model_stan_boeck_ext2EN5boost6random23additive_combine_engineINS6_26linear_congruential_engineIjLj40014ELj0ELj2147483563EEENS8_IjLj40692ELj0ELj2147483399EEEEEEEP7SEXPRECEclEPSC_PSE_"
 "_ZN4Rcpp16const_CppMethod0IN5rstan8stan_fitIN31model_stan_boeck_ext2_namespace21model_stan_boeck_ext2EN5boost6random23additive_combine_engineINS6_26linear_congruential_engineIjLj40014ELj0ELj2147483563EEENS8_IjLj40692ELj0ELj2147483399EEEEEEEP7SEXPRECED0Ev"
 "_ZN4Rcpp16const_CppMethod0IN5rstan8stan_fitIN31model_stan_boeck_ext2_namespace21model_stan_boeck_ext2EN5boost6random23additive_combine_engineINS6_26linear_congruential_engineIjLj40014ELj0ELj2147483563EEENS8_IjLj40692ELj0ELj2147483399EEEEEEEP7SEXPRECED1Ev"
 "_ZN4Rcpp16const_CppMethod0IN5rstan8stan_fitIN32model_stan_boeck_shift_namespace22model_stan_boeck_shiftEN5boost6random23additive_combine_engineINS6_26linear_congruential_engineIjLj40014ELj0ELj2147483563EEENS8_IjLj40692ELj0ELj2147483399EEEEEEEP7SEXPRECE5nargsEv"
 "_ZN4Rcpp16const_CppMethod0IN5rstan8stan_fitIN32model_stan_boeck_shift_namespace22model_stan_boeck_shiftEN5boost6random23additive_combine_engineINS6_26linear_congruential_engineIjLj40014ELj0ELj2147483563EEENS8_IjLj40692ELj0ELj2147483399EEEEEEEP7SEXPRECE7is_voidEv"
 "_ZN4Rcpp16const_CppMethod0IN5rstan8stan_fitIN32model_stan_boeck_shift_namespace22model_stan_boeck_shiftEN5boost6random23additive_combine_engineINS6_26linear_congruential_engineIjLj40014ELj0ELj2147483563EEENS8_IjLj40692ELj0ELj2147483399EEEEEEEP7SEXPRECE8is_constEv"
 "_ZN4Rcpp16const_CppMethod0IN5rstan8stan_fitIN32model_stan_boeck_shift_namespace22model_stan_boeck_shiftEN5boost6random23additive_combine_engineINS6_26linear_congruential_engineIjLj40014ELj0ELj2147483563EEENS8_IjLj40692ELj0ELj2147483399EEEEEEEP7SEXPRECE9signatureERSsPKc"
 "_ZN4Rcpp16const_CppMethod0IN5rstan8stan_fitIN32model_stan_boeck_shift_namespace22model_stan_boeck_shiftEN5boost6random23additive_combine_engineINS6_26linear_congruential_engineIjLj40014ELj0ELj2147483563EEENS8_IjLj40692ELj0ELj2147483399EEEEEEEP7SEXPRECEclEPSC_PSE_"
 "_ZN4Rcpp16const_CppMethod0IN5rstan8stan_fitIN32model_stan_boeck_shift_namespace22model_stan_boeck_shiftEN5boost6random23additive_combine_engineINS6_26linear_congruential_engineIjLj40014ELj0ELj2147483563EEENS8_IjLj40692ELj0ELj2147483399EEEEEEEP7SEXPRECED0Ev"
 "_ZN4Rcpp16const_CppMethod0IN5rstan8stan_fitIN32model_stan_boeck_shift_namespace22model_stan_boeck_shiftEN5boost6random23additive_combine_engineINS6_26linear_congruential_engineIjLj40014ELj0ELj2147483563EEENS8_IjLj40692ELj0ELj2147483399EEEEEEEP7SEXPRECED1Ev"
 "_ZN4Rcpp16const_CppMethod0IN5rstan8stan_fitIN33model_stan_boeck_ext_HH_namespace23model_stan_boeck_ext_HHEN5boost6random23additive_combine_engineINS6_26linear_congruential_engineIjLj40014ELj0ELj2147483563EEENS8_IjLj40692ELj0ELj2147483399EEEEEEEP7SEXPRECE5nargsEv"
 "_ZN4Rcpp16const_CppMethod0IN5rstan8stan_fitIN33model_stan_boeck_ext_HH_namespace23model_stan_boeck_ext_HHEN5boost6random23additive_combine_engineINS6_26linear_congruential_engineIjLj40014ELj0ELj2147483563EEENS8_IjLj40692ELj0ELj2147483399EEEEEEEP7SEXPRECE7is_voidEv"
 "_ZN4Rcpp16const_CppMethod0IN5rstan8stan_fitIN33model_stan_boeck_ext_HH_namespace23model_stan_boeck_ext_HHEN5boost6random23additive_combine_engineINS6_26linear_congruential_engineIjLj40014ELj0ELj2147483563EEENS8_IjLj40692ELj0ELj2147483399EEEEEEEP7SEXPRECE8is_constEv"
 "_ZN4Rcpp16const_CppMethod0IN5rstan8stan_fitIN33model_stan_boeck_ext_HH_namespace23model_stan_boeck_ext_HHEN5boost6random23additive_combine_engineINS6_26linear_congruential_engineIjLj40014ELj0ELj2147483563EEENS8_IjLj40692ELj0ELj2147483399EEEEEEEP7SEXPRECE9signatureERSsPKc"
 "_ZN4Rcpp16const_CppMethod0IN5rstan8stan_fitIN33model_stan_boeck_ext_HH_namespace23model_stan_boeck_ext_HHEN5boost6random23additive_combine_engineINS6_26linear_congruential_engineIjLj40014ELj0ELj2147483563EEENS8_IjLj40692ELj0ELj2147483399EEEEEEEP7SEXPRECEclEPSC_PSE_"
 "_ZN4Rcpp16const_CppMethod0IN5rstan8stan_fitIN33model_stan_boeck_ext_HH_namespace23model_stan_boeck_ext_HHEN5boost6random23additive_combine_engineINS6_26linear_congruential_engineIjLj40014ELj0ELj2147483563EEENS8_IjLj40692ELj0ELj2147483399EEEEEEEP7SEXPRECED0Ev"
 "_ZN4Rcpp16const_CppMethod0IN5rstan8stan_fitIN33model_stan_boeck_ext_HH_namespace23model_stan_boeck_ext_HHEN5boost6random23additive_combine_engineINS6_26linear_congruential_engineIjLj40014ELj0ELj2147483563EEENS8_IjLj40692ELj0ELj2147483399EEEEEEEP7SEXPRECED1Ev"
 "_ZN4Rcpp16FieldProxyPolicyINS_14Reference_ImplINS_15PreserveStorageEEEE10FieldProxy3setEP7SEXPREC"
 "_ZN4Rcpp16FieldProxyPolicyINS_14Reference_ImplINS_15PreserveStorageEEEE10FieldProxyaSIbEERS5_RKT_"
 "_ZN4Rcpp16FieldProxyPolicyINS_14Reference_ImplINS_15PreserveStorageEEEE10FieldProxyaSIiEERS5_RKT_"
 "_ZN4Rcpp16FieldProxyPolicyINS_14Reference_ImplINS_15PreserveStorageEEEE10FieldProxyaSINS_4XPtrINS_10class_BaseES2_XadL_ZNS_25standard_delete_finalizerIS8_EEvPT_EELb0EEEEERS5_RKT_"
 "_ZN4Rcpp16FieldProxyPolicyINS_14Reference_ImplINS_15PreserveStorageEEEE10FieldProxyaSINS_6VectorILi10ES2_EEEERS5_RKT_"
 "_ZN4Rcpp16FieldProxyPolicyINS_14Reference_ImplINS_15PreserveStorageEEEE10FieldProxyaSINS_6VectorILi13ES2_EEEERS5_RKT_"
 "_ZN4Rcpp16FieldProxyPolicyINS_14Reference_ImplINS_15PreserveStorageEEEE10FieldProxyaSINS_6VectorILi16ES2_EEEERS5_RKT_"
 "_ZN4Rcpp16FieldProxyPolicyINS_14Reference_ImplINS_15PreserveStorageEEEE10FieldProxyaSISsEERS5_RKT_"
 "_ZN4Rcpp16NamesProxyPolicyINS_6VectorILi10ENS_15PreserveStorageEEEE10NamesProxy3setEP7SEXPREC"
 "_ZN4Rcpp16NamesProxyPolicyINS_6VectorILi13ENS_15PreserveStorageEEEE10NamesProxy3setEP7SEXPREC"
 "_ZN4Rcpp16NamesProxyPolicyINS_6VectorILi19ENS_15PreserveStorageEEEE10NamesProxy3setEP7SEXPREC"
 "_ZN4Rcpp16NamesProxyPolicyINS_6VectorILi19ENS_15PreserveStorageEEEE10NamesProxyaSISt6vectorISsSaISsEEEERS5_RKT_"
 "_ZN4Rcpp17finalizer_wrapperIN5rstan8stan_fitIN24model_stan_pcm_namespace14model_stan_pcmEN5boost6random23additive_combine_engineINS6_26linear_congruential_engineIjLj40014ELj0ELj2147483563EEENS8_IjLj40692ELj0ELj2147483399EEEEEEEXadL_ZNS_25standard_delete_finalizerISC_EEvPT_EEEEvP7SEXPREC"
 "_ZN4Rcpp17finalizer_wrapperIN5rstan8stan_fitIN26model_stan_steps_namespace16model_stan_stepsEN5boost6random23additive_combine_engineINS6_26linear_congruential_engineIjLj40014ELj0ELj2147483563EEENS8_IjLj40692ELj0ELj2147483399EEEEEEEXadL_ZNS_25standard_delete_finalizerISC_EEvPT_EEEEvP7SEXPREC"
 "_ZN4Rcpp17finalizer_wrapperIN5rstan8stan_fitIN30model_stan_boeck_ext_namespace20model_stan_boeck_extEN5boost6random23additive_combine_engineINS6_26linear_congruential_engineIjLj40014ELj0ELj2147483563EEENS8_IjLj40692ELj0ELj2147483399EEEEEEEXadL_ZNS_25standard_delete_finalizerISC_EEvPT_EEEEvP7SEXPREC"
 "_ZN4Rcpp17finalizer_wrapperIN5rstan8stan_fitIN31model_stan_boeck_2012_namespace21model_stan_boeck_2012EN5boost6random23additive_combine_engineINS6_26linear_congruential_engineIjLj40014ELj0ELj2147483563EEENS8_IjLj40692ELj0ELj2147483399EEEEEEEXadL_ZNS_25standard_delete_finalizerISC_EEvPT_EEEEvP7SEXPREC"
 "_ZN4Rcpp17finalizer_wrapperIN5rstan8stan_fitIN31model_stan_boeck_ext2_namespace21model_stan_boeck_ext2EN5boost6random23additive_combine_engineINS6_26linear_congruential_engineIjLj40014ELj0ELj2147483563EEENS8_IjLj40692ELj0ELj2147483399EEEEEEEXadL_ZNS_25standard_delete_finalizerISC_EEvPT_EEEEvP7SEXPREC"
 "_ZN4Rcpp17finalizer_wrapperIN5rstan8stan_fitIN32model_stan_boeck_shift_namespace22model_stan_boeck_shiftEN5boost6random23additive_combine_engineINS6_26linear_congruential_engineIjLj40014ELj0ELj2147483563EEENS8_IjLj40692ELj0ELj2147483399EEEEEEEXadL_ZNS_25standard_delete_finalizerISC_EEvPT_EEEEvP7SEXPREC"
 "_ZN4Rcpp17finalizer_wrapperIN5rstan8stan_fitIN33model_stan_boeck_ext_HH_namespace23model_stan_boeck_ext_HHEN5boost6random23additive_combine_engineINS6_26linear_congruential_engineIjLj40014ELj0ELj2147483563EEENS8_IjLj40692ELj0ELj2147483399EEEEEEEXadL_ZNS_25standard_delete_finalizerISC_EEvPT_EEEEvP7SEXPREC"
 "_ZN4Rcpp17finalizer_wrapperINS_11CppPropertyIN5rstan8stan_fitIN24model_stan_pcm_namespace14model_stan_pcmEN5boost6random23additive_combine_engineINS7_26linear_congruential_engineIjLj40014ELj0ELj2147483563EEENS9_IjLj40692ELj0ELj2147483399EEEEEEEEEXadL_ZNS_25standard_delete_finalizerISE_EEvPT_EEEEvP7SEXPREC"
 "_ZN4Rcpp17finalizer_wrapperINS_11CppPropertyIN5rstan8stan_fitIN26model_stan_steps_namespace16model_stan_stepsEN5boost6random23additive_combine_engineINS7_26linear_congruential_engineIjLj40014ELj0ELj2147483563EEENS9_IjLj40692ELj0ELj2147483399EEEEEEEEEXadL_ZNS_25standard_delete_finalizerISE_EEvPT_EEEEvP7SEXPREC"
 "_ZN4Rcpp17finalizer_wrapperINS_11CppPropertyIN5rstan8stan_fitIN30model_stan_boeck_ext_namespace20model_stan_boeck_extEN5boost6random23additive_combine_engineINS7_26linear_congruential_engineIjLj40014ELj0ELj2147483563EEENS9_IjLj40692ELj0ELj2147483399EEEEEEEEEXadL_ZNS_25standard_delete_finalizerISE_EEvPT_EEEEvP7SEXPREC"
 "_ZN4Rcpp17finalizer_wrapperINS_11CppPropertyIN5rstan8stan_fitIN31model_stan_boeck_2012_namespace21model_stan_boeck_2012EN5boost6random23additive_combine_engineINS7_26linear_congruential_engineIjLj40014ELj0ELj2147483563EEENS9_IjLj40692ELj0ELj2147483399EEEEEEEEEXadL_ZNS_25standard_delete_finalizerISE_EEvPT_EEEEvP7SEXPREC"
 "_ZN4Rcpp17finalizer_wrapperINS_11CppPropertyIN5rstan8stan_fitIN31model_stan_boeck_ext2_namespace21model_stan_boeck_ext2EN5boost6random23additive_combine_engineINS7_26linear_congruential_engineIjLj40014ELj0ELj2147483563EEENS9_IjLj40692ELj0ELj2147483399EEEEEEEEEXadL_ZNS_25standard_delete_finalizerISE_EEvPT_EEEEvP7SEXPREC"
 "_ZN4Rcpp17finalizer_wrapperINS_11CppPropertyIN5rstan8stan_fitIN32model_stan_boeck_shift_namespace22model_stan_boeck_shiftEN5boost6random23additive_combine_engineINS7_26linear_congruential_engineIjLj40014ELj0ELj2147483563EEENS9_IjLj40692ELj0ELj2147483399EEEEEEEEEXadL_ZNS_25standard_delete_finalizerISE_EEvPT_EEEEvP7SEXPREC"
 "_ZN4Rcpp17finalizer_wrapperINS_11CppPropertyIN5rstan8stan_fitIN33model_stan_boeck_ext_HH_namespace23model_stan_boeck_ext_HHEN5boost6random23additive_combine_engineINS7_26linear_congruential_engineIjLj40014ELj0ELj2147483563EEENS9_IjLj40692ELj0ELj2147483399EEEEEEEEEXadL_ZNS_25standard_delete_finalizerISE_EEvPT_EEEEvP7SEXPREC"
 "_ZN4Rcpp17finalizer_wrapperINS_17SignedConstructorIN5rstan8stan_fitIN24model_stan_pcm_namespace14model_stan_pcmEN5boost6random23additive_combine_engineINS7_26linear_congruential_engineIjLj40014ELj0ELj2147483563EEENS9_IjLj40692ELj0ELj2147483399EEEEEEEEEXadL_ZNS_25standard_delete_finalizerISE_EEvPT_EEEEvP7SEXPREC"
 "_ZN4Rcpp17finalizer_wrapperINS_17SignedConstructorIN5rstan8stan_fitIN26model_stan_steps_namespace16model_stan_stepsEN5boost6random23additive_combine_engineINS7_26linear_congruential_engineIjLj40014ELj0ELj2147483563EEENS9_IjLj40692ELj0ELj2147483399EEEEEEEEEXadL_ZNS_25standard_delete_finalizerISE_EEvPT_EEEEvP7SEXPREC"
 "_ZN4Rcpp17finalizer_wrapperINS_17SignedConstructorIN5rstan8stan_fitIN30model_stan_boeck_ext_namespace20model_stan_boeck_extEN5boost6random23additive_combine_engineINS7_26linear_congruential_engineIjLj40014ELj0ELj2147483563EEENS9_IjLj40692ELj0ELj2147483399EEEEEEEEEXadL_ZNS_25standard_delete_finalizerISE_EEvPT_EEEEvP7SEXPREC"
 "_ZN4Rcpp17finalizer_wrapperINS_17SignedConstructorIN5rstan8stan_fitIN31model_stan_boeck_2012_namespace21model_stan_boeck_2012EN5boost6random23additive_combine_engineINS7_26linear_congruential_engineIjLj40014ELj0ELj2147483563EEENS9_IjLj40692ELj0ELj2147483399EEEEEEEEEXadL_ZNS_25standard_delete_finalizerISE_EEvPT_EEEEvP7SEXPREC"
 "_ZN4Rcpp17finalizer_wrapperINS_17SignedConstructorIN5rstan8stan_fitIN31model_stan_boeck_ext2_namespace21model_stan_boeck_ext2EN5boost6random23additive_combine_engineINS7_26linear_congruential_engineIjLj40014ELj0ELj2147483563EEENS9_IjLj40692ELj0ELj2147483399EEEEEEEEEXadL_ZNS_25standard_delete_finalizerISE_EEvPT_EEEEvP7SEXPREC"
 "_ZN4Rcpp17finalizer_wrapperINS_17SignedConstructorIN5rstan8stan_fitIN32model_stan_boeck_shift_namespace22model_stan_boeck_shiftEN5boost6random23additive_combine_engineINS7_26linear_congruential_engineIjLj40014ELj0ELj2147483563EEENS9_IjLj40692ELj0ELj2147483399EEEEEEEEEXadL_ZNS_25standard_delete_finalizerISE_EEvPT_EEEEvP7SEXPREC"
 "_ZN4Rcpp17finalizer_wrapperINS_17SignedConstructorIN5rstan8stan_fitIN33model_stan_boeck_ext_HH_namespace23model_stan_boeck_ext_HHEN5boost6random23additive_combine_engineINS7_26linear_congruential_engineIjLj40014ELj0ELj2147483563EEENS9_IjLj40692ELj0ELj2147483399EEEEEEEEEXadL_ZNS_25standard_delete_finalizerISE_EEvPT_EEEEvP7SEXPREC"
 "_ZN4Rcpp17finalizer_wrapperINS_6ModuleEXadL_ZNS_25standard_delete_finalizerIS1_EEvPT_EEEEvP7SEXPREC"
 "_ZN4Rcpp17finalizer_wrapperISt6vectorIPNS_12SignedMethodIN5rstan8stan_fitIN24model_stan_pcm_namespace14model_stan_pcmEN5boost6random23additive_combine_engineINS8_26linear_congruential_engineIjLj40014ELj0ELj2147483563EEENSA_IjLj40692ELj0ELj2147483399EEEEEEEEESaISG_EEXadL_ZNS_25standard_delete_finalizerISI_EEvPT_EEEEvP7SEXPREC"
 "_ZN4Rcpp17finalizer_wrapperISt6vectorIPNS_12SignedMethodIN5rstan8stan_fitIN26model_stan_steps_namespace16model_stan_stepsEN5boost6random23additive_combine_engineINS8_26linear_congruential_engineIjLj40014ELj0ELj2147483563EEENSA_IjLj40692ELj0ELj2147483399EEEEEEEEESaISG_EEXadL_ZNS_25standard_delete_finalizerISI_EEvPT_EEEEvP7SEXPREC"
 "_ZN4Rcpp17finalizer_wrapperISt6vectorIPNS_12SignedMethodIN5rstan8stan_fitIN30model_stan_boeck_ext_namespace20model_stan_boeck_extEN5boost6random23additive_combine_engineINS8_26linear_congruential_engineIjLj40014ELj0ELj2147483563EEENSA_IjLj40692ELj0ELj2147483399EEEEEEEEESaISG_EEXadL_ZNS_25standard_delete_finalizerISI_EEvPT_EEEEvP7SEXPREC"
 "_ZN4Rcpp17finalizer_wrapperISt6vectorIPNS_12SignedMethodIN5rstan8stan_fitIN31model_stan_boeck_2012_namespace21model_stan_boeck_2012EN5boost6random23additive_combine_engineINS8_26linear_congruential_engineIjLj40014ELj0ELj2147483563EEENSA_IjLj40692ELj0ELj2147483399EEEEEEEEESaISG_EEXadL_ZNS_25standard_delete_finalizerISI_EEvPT_EEEEvP7SEXPREC"
 "_ZN4Rcpp17finalizer_wrapperISt6vectorIPNS_12SignedMethodIN5rstan8stan_fitIN31model_stan_boeck_ext2_namespace21model_stan_boeck_ext2EN5boost6random23additive_combine_engineINS8_26linear_congruential_engineIjLj40014ELj0ELj2147483563EEENSA_IjLj40692ELj0ELj2147483399EEEEEEEEESaISG_EEXadL_ZNS_25standard_delete_finalizerISI_EEvPT_EEEEvP7SEXPREC"
 "_ZN4Rcpp17finalizer_wrapperISt6vectorIPNS_12SignedMethodIN5rstan8stan_fitIN32model_stan_boeck_shift_namespace22model_stan_boeck_shiftEN5boost6random23additive_combine_engineINS8_26linear_congruential_engineIjLj40014ELj0ELj2147483563EEENSA_IjLj40692ELj0ELj2147483399EEEEEEEEESaISG_EEXadL_ZNS_25standard_delete_finalizerISI_EEvPT_EEEEvP7SEXPREC"
 "_ZN4Rcpp17finalizer_wrapperISt6vectorIPNS_12SignedMethodIN5rstan8stan_fitIN33model_stan_boeck_ext_HH_namespace23model_stan_boeck_ext_HHEN5boost6random23additive_combine_engineINS8_26linear_congruential_engineIjLj40014ELj0ELj2147483563EEENSA_IjLj40692ELj0ELj2147483399EEEEEEEEESaISG_EEXadL_ZNS_25standard_delete_finalizerISI_EEvPT_EEEEvP7SEXPREC"
 "_ZN4Rcpp18Rcpp_ReplaceObjectEP7SEXPRECS1_"
 "_ZN4Rcpp19index_out_of_boundsC1IIRKSsEEEPKcDpOT_"
 "_ZN4Rcpp19index_out_of_boundsD0Ev"
 "_ZN4Rcpp19index_out_of_boundsD1Ev"
 "_ZN4Rcpp20AttributeProxyPolicyINS_6VectorILi14ENS_15PreserveStorageEEEE14AttributeProxyaSIdEERS5_RKT_"
 "_ZN4Rcpp20AttributeProxyPolicyINS_6VectorILi14ENS_15PreserveStorageEEEE14AttributeProxyaSISt6vectorIdSaIdEEEERS5_RKT_"
 "_ZN4Rcpp20AttributeProxyPolicyINS_6VectorILi19ENS_15PreserveStorageEEEE14AttributeProxyaSIdEERS5_RKT_"
 "_ZN4Rcpp20AttributeProxyPolicyINS_6VectorILi19ENS_15PreserveStorageEEEE14AttributeProxyaSIiEERS5_RKT_"
 "_ZN4Rcpp20AttributeProxyPolicyINS_6VectorILi19ENS_15PreserveStorageEEEE14AttributeProxyaSISsEERS5_RKT_"
 "_ZN4Rcpp20AttributeProxyPolicyINS_6VectorILi19ENS_15PreserveStorageEEEE14AttributeProxyaSISt6vectorIdSaIdEEEERS5_RKT_"
 "_ZN4Rcpp23S4_CppOverloadedMethodsIN5rstan8stan_fitIN24model_stan_pcm_namespace14model_stan_pcmEN5boost6random23additive_combine_engineINS6_26linear_congruential_engineIjLj40014ELj0ELj2147483563EEENS8_IjLj40692ELj0ELj2147483399EEEEEEEEC1EPSt6vectorIPNS_12SignedMethodISC_EESaISH_EERKNS_4XPtrINS_10class_BaseENS_15PreserveStorageEXadL_ZNS_25standard_delete_finalizerISM_EEvPT_EELb0EEEPKcRSs"
 "_ZN4Rcpp23S4_CppOverloadedMethodsIN5rstan8stan_fitIN26model_stan_steps_namespace16model_stan_stepsEN5boost6random23additive_combine_engineINS6_26linear_congruential_engineIjLj40014ELj0ELj2147483563EEENS8_IjLj40692ELj0ELj2147483399EEEEEEEEC1EPSt6vectorIPNS_12SignedMethodISC_EESaISH_EERKNS_4XPtrINS_10class_BaseENS_15PreserveStorageEXadL_ZNS_25standard_delete_finalizerISM_EEvPT_EELb0EEEPKcRSs"
 "_ZN4Rcpp23S4_CppOverloadedMethodsIN5rstan8stan_fitIN30model_stan_boeck_ext_namespace20model_stan_boeck_extEN5boost6random23additive_combine_engineINS6_26linear_congruential_engineIjLj40014ELj0ELj2147483563EEENS8_IjLj40692ELj0ELj2147483399EEEEEEEEC1EPSt6vectorIPNS_12SignedMethodISC_EESaISH_EERKNS_4XPtrINS_10class_BaseENS_15PreserveStorageEXadL_ZNS_25standard_delete_finalizerISM_EEvPT_EELb0EEEPKcRSs"
 "_ZN4Rcpp23S4_CppOverloadedMethodsIN5rstan8stan_fitIN31model_stan_boeck_2012_namespace21model_stan_boeck_2012EN5boost6random23additive_combine_engineINS6_26linear_congruential_engineIjLj40014ELj0ELj2147483563EEENS8_IjLj40692ELj0ELj2147483399EEEEEEEEC1EPSt6vectorIPNS_12SignedMethodISC_EESaISH_EERKNS_4XPtrINS_10class_BaseENS_15PreserveStorageEXadL_ZNS_25standard_delete_finalizerISM_EEvPT_EELb0EEEPKcRSs"
 "_ZN4Rcpp23S4_CppOverloadedMethodsIN5rstan8stan_fitIN31model_stan_boeck_ext2_namespace21model_stan_boeck_ext2EN5boost6random23additive_combine_engineINS6_26linear_congruential_engineIjLj40014ELj0ELj2147483563EEENS8_IjLj40692ELj0ELj2147483399EEEEEEEEC1EPSt6vectorIPNS_12SignedMethodISC_EESaISH_EERKNS_4XPtrINS_10class_BaseENS_15PreserveStorageEXadL_ZNS_25standard_delete_finalizerISM_EEvPT_EELb0EEEPKcRSs"
 "_ZN4Rcpp23S4_CppOverloadedMethodsIN5rstan8stan_fitIN32model_stan_boeck_shift_namespace22model_stan_boeck_shiftEN5boost6random23additive_combine_engineINS6_26linear_congruential_engineIjLj40014ELj0ELj2147483563EEENS8_IjLj40692ELj0ELj2147483399EEEEEEEEC1EPSt6vectorIPNS_12SignedMethodISC_EESaISH_EERKNS_4XPtrINS_10class_BaseENS_15PreserveStorageEXadL_ZNS_25standard_delete_finalizerISM_EEvPT_EELb0EEEPKcRSs"
 "_ZN4Rcpp23S4_CppOverloadedMethodsIN5rstan8stan_fitIN33model_stan_boeck_ext_HH_namespace23model_stan_boeck_ext_HHEN5boost6random23additive_combine_engineINS6_26linear_congruential_engineIjLj40014ELj0ELj2147483563EEENS8_IjLj40692ELj0ELj2147483399EEEEEEEEC1EPSt6vectorIPNS_12SignedMethodISC_EESaISH_EERKNS_4XPtrINS_10class_BaseENS_15PreserveStorageEXadL_ZNS_25standard_delete_finalizerISM_EEvPT_EELb0EEEPKcRSs"
 "_ZN4Rcpp3yesEPP7SEXPRECi"
 "_ZN4Rcpp4stopERKSs"
 "_ZN4Rcpp4stopIIEEEvPKcDpOT_"
 "_ZN4Rcpp4XPtrIN5rstan8stan_fitIN24model_stan_pcm_namespace14model_stan_pcmEN5boost6random23additive_combine_engineINS6_26linear_congruential_engineIjLj40014ELj0ELj2147483563EEENS8_IjLj40692ELj0ELj2147483399EEEEEEENS_15PreserveStorageEXadL_ZNS_25standard_delete_finalizerISC_EEvPT_EELb0EEC1EP7SEXPRECSJ_SJ_"
 "_ZN4Rcpp4XPtrIN5rstan8stan_fitIN26model_stan_steps_namespace16model_stan_stepsEN5boost6random23additive_combine_engineINS6_26linear_congruential_engineIjLj40014ELj0ELj2147483563EEENS8_IjLj40692ELj0ELj2147483399EEEEEEENS_15PreserveStorageEXadL_ZNS_25standard_delete_finalizerISC_EEvPT_EELb0EEC1EP7SEXPRECSJ_SJ_"
 "_ZN4Rcpp4XPtrIN5rstan8stan_fitIN30model_stan_boeck_ext_namespace20model_stan_boeck_extEN5boost6random23additive_combine_engineINS6_26linear_congruential_engineIjLj40014ELj0ELj2147483563EEENS8_IjLj40692ELj0ELj2147483399EEEEEEENS_15PreserveStorageEXadL_ZNS_25standard_delete_finalizerISC_EEvPT_EELb0EEC1EP7SEXPRECSJ_SJ_"
 "_ZN4Rcpp4XPtrIN5rstan8stan_fitIN31model_stan_boeck_2012_namespace21model_stan_boeck_2012EN5boost6random23additive_combine_engineINS6_26linear_congruential_engineIjLj40014ELj0ELj2147483563EEENS8_IjLj40692ELj0ELj2147483399EEEEEEENS_15PreserveStorageEXadL_ZNS_25standard_delete_finalizerISC_EEvPT_EELb0EEC1EP7SEXPRECSJ_SJ_"
 "_ZN4Rcpp4XPtrIN5rstan8stan_fitIN31model_stan_boeck_ext2_namespace21model_stan_boeck_ext2EN5boost6random23additive_combine_engineINS6_26linear_congruential_engineIjLj40014ELj0ELj2147483563EEENS8_IjLj40692ELj0ELj2147483399EEEEEEENS_15PreserveStorageEXadL_ZNS_25standard_delete_finalizerISC_EEvPT_EELb0EEC1EP7SEXPRECSJ_SJ_"
 "_ZN4Rcpp4XPtrIN5rstan8stan_fitIN32model_stan_boeck_shift_namespace22model_stan_boeck_shiftEN5boost6random23additive_combine_engineINS6_26linear_congruential_engineIjLj40014ELj0ELj2147483563EEENS8_IjLj40692ELj0ELj2147483399EEEEEEENS_15PreserveStorageEXadL_ZNS_25standard_delete_finalizerISC_EEvPT_EELb0EEC1EP7SEXPRECSJ_SJ_"
 "_ZN4Rcpp4XPtrIN5rstan8stan_fitIN33model_stan_boeck_ext_HH_namespace23model_stan_boeck_ext_HHEN5boost6random23additive_combine_engineINS6_26linear_congruential_engineIjLj40014ELj0ELj2147483563EEENS8_IjLj40692ELj0ELj2147483399EEEEEEENS_15PreserveStorageEXadL_ZNS_25standard_delete_finalizerISC_EEvPT_EELb0EEC1EP7SEXPRECSJ_SJ_"
 "_ZN4Rcpp6class_IN5rstan8stan_fitIN24model_stan_pcm_namespace14model_stan_pcmEN5boost6random23additive_combine_engineINS6_26linear_congruential_engineIjLj40014ELj0ELj2147483563EEENS8_IjLj40692ELj0ELj2147483399EEEEEEEE10getMethodsERKNS_4XPtrINS_10class_BaseENS_15PreserveStorageEXadL_ZNS_25standard_delete_finalizerISF_EEvPT_EELb0EEERSs"
 "_ZN4Rcpp6class_IN5rstan8stan_fitIN24model_stan_pcm_namespace14model_stan_pcmEN5boost6random23additive_combine_engineINS6_26linear_congruential_engineIjLj40014ELj0ELj2147483563EEENS8_IjLj40692ELj0ELj2147483399EEEEEEEE10has_methodERKSs"
 "_ZN4Rcpp6class_IN5rstan8stan_fitIN24model_stan_pcm_namespace14model_stan_pcmEN5boost6random23additive_combine_engineINS6_26linear_congruential_engineIjLj40014ELj0ELj2147483563EEENS8_IjLj40692ELj0ELj2147483399EEEEEEEE11getPropertyEP7SEXPRECSF_"
 "_ZN4Rcpp6class_IN5rstan8stan_fitIN24model_stan_pcm_namespace14model_stan_pcmEN5boost6random23additive_combine_engineINS6_26linear_congruential_engineIjLj40014ELj0ELj2147483563EEENS8_IjLj40692ELj0ELj2147483399EEEEEEEE11invoke_voidEP7SEXPRECSF_PSF_i"
 "_ZN4Rcpp6class_IN5rstan8stan_fitIN24model_stan_pcm_namespace14model_stan_pcmEN5boost6random23additive_combine_engineINS6_26linear_congruential_engineIjLj40014ELj0ELj2147483563EEENS8_IjLj40692ELj0ELj2147483399EEEEEEEE11newInstanceEPP7SEXPRECi"
 "_ZN4Rcpp6class_IN5rstan8stan_fitIN24model_stan_pcm_namespace14model_stan_pcmEN5boost6random23additive_combine_engineINS6_26linear_congruential_engineIjLj40014ELj0ELj2147483563EEENS8_IjLj40692ELj0ELj2147483399EEEEEEEE11setPropertyEP7SEXPRECSF_SF_"
 "_ZN4Rcpp6class_IN5rstan8stan_fitIN24model_stan_pcm_namespace14model_stan_pcmEN5boost6random23additive_combine_engineINS6_26linear_congruential_engineIjLj40014ELj0ELj2147483563EEENS8_IjLj40692ELj0ELj2147483399EEEEEEEE12get_instanceEv"
 "_ZN4Rcpp6class_IN5rstan8stan_fitIN24model_stan_pcm_namespace14model_stan_pcmEN5boost6random23additive_combine_engineINS6_26linear_congruential_engineIjLj40014ELj0ELj2147483563EEENS8_IjLj40692ELj0ELj2147483399EEEEEEEE12has_propertyERKSs"
 "_ZN4Rcpp6class_IN5rstan8stan_fitIN24model_stan_pcm_namespace14model_stan_pcmEN5boost6random23additive_combine_engineINS6_26linear_congruential_engineIjLj40014ELj0ELj2147483563EEENS8_IjLj40692ELj0ELj2147483399EEEEEEEE12method_namesEv"
 "_ZN4Rcpp6class_IN5rstan8stan_fitIN24model_stan_pcm_namespace14model_stan_pcmEN5boost6random23additive_combine_engineINS6_26linear_congruential_engineIjLj40014ELj0ELj2147483563EEENS8_IjLj40692ELj0ELj2147483399EEEEEEEE13methods_arityEv"
 "_ZN4Rcpp6class_IN5rstan8stan_fitIN24model_stan_pcm_namespace14model_stan_pcmEN5boost6random23additive_combine_engineINS6_26linear_congruential_engineIjLj40014ELj0ELj2147483563EEENS8_IjLj40692ELj0ELj2147483399EEEEEEEE13run_finalizerEP7SEXPREC"
 "_ZN4Rcpp6class_IN5rstan8stan_fitIN24model_stan_pcm_namespace14model_stan_pcmEN5boost6random23additive_combine_engineINS6_26linear_congruential_engineIjLj40014ELj0ELj2147483563EEENS8_IjLj40692ELj0ELj2147483399EEEEEEEE14invoke_notvoidEP7SEXPRECSF_PSF_i"
 "_ZN4Rcpp6class_IN5rstan8stan_fitIN24model_stan_pcm_namespace14model_stan_pcmEN5boost6random23additive_combine_engineINS6_26linear_congruential_engineIjLj40014ELj0ELj2147483563EEENS8_IjLj40692ELj0ELj2147483399EEEEEEEE14property_classERKSs"
 "_ZN4Rcpp6class_IN5rstan8stan_fitIN24model_stan_pcm_namespace14model_stan_pcmEN5boost6random23additive_combine_engineINS6_26linear_congruential_engineIjLj40014ELj0ELj2147483563EEENS8_IjLj40692ELj0ELj2147483399EEEEEEEE14property_namesEv"
 "_ZN4Rcpp6class_IN5rstan8stan_fitIN24model_stan_pcm_namespace14model_stan_pcmEN5boost6random23additive_combine_engineINS6_26linear_congruential_engineIjLj40014ELj0ELj2147483563EEENS8_IjLj40692ELj0ELj2147483399EEEEEEEE15getConstructorsERKNS_4XPtrINS_10class_BaseENS_15PreserveStorageEXadL_ZNS_25standard_delete_finalizerISF_EEvPT_EELb0EEERSs"
 "_ZN4Rcpp6class_IN5rstan8stan_fitIN24model_stan_pcm_namespace14model_stan_pcmEN5boost6random23additive_combine_engineINS6_26linear_congruential_engineIjLj40014ELj0ELj2147483563EEENS8_IjLj40692ELj0ELj2147483399EEEEEEEE16methods_voidnessEv"
 "_ZN4Rcpp6class_IN5rstan8stan_fitIN24model_stan_pcm_namespace14model_stan_pcmEN5boost6random23additive_combine_engineINS6_26linear_congruential_engineIjLj40014ELj0ELj2147483563EEENS8_IjLj40692ELj0ELj2147483399EEEEEEEE16property_classesEv"
 "_ZN4Rcpp6class_IN5rstan8stan_fitIN24model_stan_pcm_namespace14model_stan_pcmEN5boost6random23additive_combine_engineINS6_26linear_congruential_engineIjLj40014ELj0ELj2147483563EEENS8_IjLj40692ELj0ELj2147483399EEEEEEEE17get_typeinfo_nameEv"
 "_ZN4Rcpp6class_IN5rstan8stan_fitIN24model_stan_pcm_namespace14model_stan_pcmEN5boost6random23additive_combine_engineINS6_26linear_congruential_engineIjLj40014ELj0ELj2147483563EEENS8_IjLj40692ELj0ELj2147483399EEEEEEEE20property_is_readonlyERKSs"
 "_ZN4Rcpp6class_IN5rstan8stan_fitIN24model_stan_pcm_namespace14model_stan_pcmEN5boost6random23additive_combine_engineINS6_26linear_congruential_engineIjLj40014ELj0ELj2147483563EEENS8_IjLj40692ELj0ELj2147483399EEEEEEEE23has_default_constructorEv"
 "_ZN4Rcpp6class_IN5rstan8stan_fitIN24model_stan_pcm_namespace14model_stan_pcmEN5boost6random23additive_combine_engineINS6_26linear_congruential_engineIjLj40014ELj0ELj2147483563EEENS8_IjLj40692ELj0ELj2147483399EEEEEEEE6fieldsERKNS_4XPtrINS_10class_BaseENS_15PreserveStorageEXadL_ZNS_25standard_delete_finalizerISF_EEvPT_EELb0EEE"
 "_ZN4Rcpp6class_IN5rstan8stan_fitIN24model_stan_pcm_namespace14model_stan_pcmEN5boost6random23additive_combine_engineINS6_26linear_congruential_engineIjLj40014ELj0ELj2147483563EEENS8_IjLj40692ELj0ELj2147483399EEEEEEEE6invokeEP7SEXPRECSF_PSF_i"
 "_ZN4Rcpp6class_IN5rstan8stan_fitIN24model_stan_pcm_namespace14model_stan_pcmEN5boost6random23additive_combine_engineINS6_26linear_congruential_engineIjLj40014ELj0ELj2147483563EEENS8_IjLj40692ELj0ELj2147483399EEEEEEEE8completeEv"
 "_ZN4Rcpp6class_IN5rstan8stan_fitIN24model_stan_pcm_namespace14model_stan_pcmEN5boost6random23additive_combine_engineINS6_26linear_congruential_engineIjLj40014ELj0ELj2147483563EEENS8_IjLj40692ELj0ELj2147483399EEEEEEEE9AddMethodEPKcPNS_9CppMethodISC_EEPFbPP7SEXPRECiESF_"
 "_ZN4Rcpp6class_IN5rstan8stan_fitIN24model_stan_pcm_namespace14model_stan_pcmEN5boost6random23additive_combine_engineINS6_26linear_congruential_engineIjLj40014ELj0ELj2147483563EEENS8_IjLj40692ELj0ELj2147483399EEEEEEEED0Ev"
 "_ZN4Rcpp6class_IN5rstan8stan_fitIN24model_stan_pcm_namespace14model_stan_pcmEN5boost6random23additive_combine_engineINS6_26linear_congruential_engineIjLj40014ELj0ELj2147483563EEENS8_IjLj40692ELj0ELj2147483399EEEEEEEED1Ev"
 "_ZN4Rcpp6class_IN5rstan8stan_fitIN26model_stan_steps_namespace16model_stan_stepsEN5boost6random23additive_combine_engineINS6_26linear_congruential_engineIjLj40014ELj0ELj2147483563EEENS8_IjLj40692ELj0ELj2147483399EEEEEEEE10getMethodsERKNS_4XPtrINS_10class_BaseENS_15PreserveStorageEXadL_ZNS_25standard_delete_finalizerISF_EEvPT_EELb0EEERSs"
 "_ZN4Rcpp6class_IN5rstan8stan_fitIN26model_stan_steps_namespace16model_stan_stepsEN5boost6random23additive_combine_engineINS6_26linear_congruential_engineIjLj40014ELj0ELj2147483563EEENS8_IjLj40692ELj0ELj2147483399EEEEEEEE10has_methodERKSs"
 "_ZN4Rcpp6class_IN5rstan8stan_fitIN26model_stan_steps_namespace16model_stan_stepsEN5boost6random23additive_combine_engineINS6_26linear_congruential_engineIjLj40014ELj0ELj2147483563EEENS8_IjLj40692ELj0ELj2147483399EEEEEEEE11getPropertyEP7SEXPRECSF_"
 "_ZN4Rcpp6class_IN5rstan8stan_fitIN26model_stan_steps_namespace16model_stan_stepsEN5boost6random23additive_combine_engineINS6_26linear_congruential_engineIjLj40014ELj0ELj2147483563EEENS8_IjLj40692ELj0ELj2147483399EEEEEEEE11invoke_voidEP7SEXPRECSF_PSF_i"
 "_ZN4Rcpp6class_IN5rstan8stan_fitIN26model_stan_steps_namespace16model_stan_stepsEN5boost6random23additive_combine_engineINS6_26linear_congruential_engineIjLj40014ELj0ELj2147483563EEENS8_IjLj40692ELj0ELj2147483399EEEEEEEE11newInstanceEPP7SEXPRECi"
 "_ZN4Rcpp6class_IN5rstan8stan_fitIN26model_stan_steps_namespace16model_stan_stepsEN5boost6random23additive_combine_engineINS6_26linear_congruential_engineIjLj40014ELj0ELj2147483563EEENS8_IjLj40692ELj0ELj2147483399EEEEEEEE11setPropertyEP7SEXPRECSF_SF_"
 "_ZN4Rcpp6class_IN5rstan8stan_fitIN26model_stan_steps_namespace16model_stan_stepsEN5boost6random23additive_combine_engineINS6_26linear_congruential_engineIjLj40014ELj0ELj2147483563EEENS8_IjLj40692ELj0ELj2147483399EEEEEEEE12get_instanceEv"
 "_ZN4Rcpp6class_IN5rstan8stan_fitIN26model_stan_steps_namespace16model_stan_stepsEN5boost6random23additive_combine_engineINS6_26linear_congruential_engineIjLj40014ELj0ELj2147483563EEENS8_IjLj40692ELj0ELj2147483399EEEEEEEE12has_propertyERKSs"
 "_ZN4Rcpp6class_IN5rstan8stan_fitIN26model_stan_steps_namespace16model_stan_stepsEN5boost6random23additive_combine_engineINS6_26linear_congruential_engineIjLj40014ELj0ELj2147483563EEENS8_IjLj40692ELj0ELj2147483399EEEEEEEE12method_namesEv"
 "_ZN4Rcpp6class_IN5rstan8stan_fitIN26model_stan_steps_namespace16model_stan_stepsEN5boost6random23additive_combine_engineINS6_26linear_congruential_engineIjLj40014ELj0ELj2147483563EEENS8_IjLj40692ELj0ELj2147483399EEEEEEEE13methods_arityEv"
 "_ZN4Rcpp6class_IN5rstan8stan_fitIN26model_stan_steps_namespace16model_stan_stepsEN5boost6random23additive_combine_engineINS6_26linear_congruential_engineIjLj40014ELj0ELj2147483563EEENS8_IjLj40692ELj0ELj2147483399EEEEEEEE13run_finalizerEP7SEXPREC"
 "_ZN4Rcpp6class_IN5rstan8stan_fitIN26model_stan_steps_namespace16model_stan_stepsEN5boost6random23additive_combine_engineINS6_26linear_congruential_engineIjLj40014ELj0ELj2147483563EEENS8_IjLj40692ELj0ELj2147483399EEEEEEEE14invoke_notvoidEP7SEXPRECSF_PSF_i"
 "_ZN4Rcpp6class_IN5rstan8stan_fitIN26model_stan_steps_namespace16model_stan_stepsEN5boost6random23additive_combine_engineINS6_26linear_congruential_engineIjLj40014ELj0ELj2147483563EEENS8_IjLj40692ELj0ELj2147483399EEEEEEEE14property_classERKSs"
 "_ZN4Rcpp6class_IN5rstan8stan_fitIN26model_stan_steps_namespace16model_stan_stepsEN5boost6random23additive_combine_engineINS6_26linear_congruential_engineIjLj40014ELj0ELj2147483563EEENS8_IjLj40692ELj0ELj2147483399EEEEEEEE14property_namesEv"
 "_ZN4Rcpp6class_IN5rstan8stan_fitIN26model_stan_steps_namespace16model_stan_stepsEN5boost6random23additive_combine_engineINS6_26linear_congruential_engineIjLj40014ELj0ELj2147483563EEENS8_IjLj40692ELj0ELj2147483399EEEEEEEE15getConstructorsERKNS_4XPtrINS_10class_BaseENS_15PreserveStorageEXadL_ZNS_25standard_delete_finalizerISF_EEvPT_EELb0EEERSs"
 "_ZN4Rcpp6class_IN5rstan8stan_fitIN26model_stan_steps_namespace16model_stan_stepsEN5boost6random23additive_combine_engineINS6_26linear_congruential_engineIjLj40014ELj0ELj2147483563EEENS8_IjLj40692ELj0ELj2147483399EEEEEEEE16methods_voidnessEv"
 "_ZN4Rcpp6class_IN5rstan8stan_fitIN26model_stan_steps_namespace16model_stan_stepsEN5boost6random23additive_combine_engineINS6_26linear_congruential_engineIjLj40014ELj0ELj2147483563EEENS8_IjLj40692ELj0ELj2147483399EEEEEEEE16property_classesEv"
 "_ZN4Rcpp6class_IN5rstan8stan_fitIN26model_stan_steps_namespace16model_stan_stepsEN5boost6random23additive_combine_engineINS6_26linear_congruential_engineIjLj40014ELj0ELj2147483563EEENS8_IjLj40692ELj0ELj2147483399EEEEEEEE17get_typeinfo_nameEv"
 "_ZN4Rcpp6class_IN5rstan8stan_fitIN26model_stan_steps_namespace16model_stan_stepsEN5boost6random23additive_combine_engineINS6_26linear_congruential_engineIjLj40014ELj0ELj2147483563EEENS8_IjLj40692ELj0ELj2147483399EEEEEEEE20property_is_readonlyERKSs"
 "_ZN4Rcpp6class_IN5rstan8stan_fitIN26model_stan_steps_namespace16model_stan_stepsEN5boost6random23additive_combine_engineINS6_26linear_congruential_engineIjLj40014ELj0ELj2147483563EEENS8_IjLj40692ELj0ELj2147483399EEEEEEEE23has_default_constructorEv"
 "_ZN4Rcpp6class_IN5rstan8stan_fitIN26model_stan_steps_namespace16model_stan_stepsEN5boost6random23additive_combine_engineINS6_26linear_congruential_engineIjLj40014ELj0ELj2147483563EEENS8_IjLj40692ELj0ELj2147483399EEEEEEEE6fieldsERKNS_4XPtrINS_10class_BaseENS_15PreserveStorageEXadL_ZNS_25standard_delete_finalizerISF_EEvPT_EELb0EEE"
 "_ZN4Rcpp6class_IN5rstan8stan_fitIN26model_stan_steps_namespace16model_stan_stepsEN5boost6random23additive_combine_engineINS6_26linear_congruential_engineIjLj40014ELj0ELj2147483563EEENS8_IjLj40692ELj0ELj2147483399EEEEEEEE6invokeEP7SEXPRECSF_PSF_i"
 "_ZN4Rcpp6class_IN5rstan8stan_fitIN26model_stan_steps_namespace16model_stan_stepsEN5boost6random23additive_combine_engineINS6_26linear_congruential_engineIjLj40014ELj0ELj2147483563EEENS8_IjLj40692ELj0ELj2147483399EEEEEEEE8completeEv"
 "_ZN4Rcpp6class_IN5rstan8stan_fitIN26model_stan_steps_namespace16model_stan_stepsEN5boost6random23additive_combine_engineINS6_26linear_congruential_engineIjLj40014ELj0ELj2147483563EEENS8_IjLj40692ELj0ELj2147483399EEEEEEEE9AddMethodEPKcPNS_9CppMethodISC_EEPFbPP7SEXPRECiESF_"
 "_ZN4Rcpp6class_IN5rstan8stan_fitIN26model_stan_steps_namespace16model_stan_stepsEN5boost6random23additive_combine_engineINS6_26linear_congruential_engineIjLj40014ELj0ELj2147483563EEENS8_IjLj40692ELj0ELj2147483399EEEEEEEED0Ev"
 "_ZN4Rcpp6class_IN5rstan8stan_fitIN26model_stan_steps_namespace16model_stan_stepsEN5boost6random23additive_combine_engineINS6_26linear_congruential_engineIjLj40014ELj0ELj2147483563EEENS8_IjLj40692ELj0ELj2147483399EEEEEEEED1Ev"
 "_ZN4Rcpp6class_IN5rstan8stan_fitIN30model_stan_boeck_ext_namespace20model_stan_boeck_extEN5boost6random23additive_combine_engineINS6_26linear_congruential_engineIjLj40014ELj0ELj2147483563EEENS8_IjLj40692ELj0ELj2147483399EEEEEEEE10getMethodsERKNS_4XPtrINS_10class_BaseENS_15PreserveStorageEXadL_ZNS_25standard_delete_finalizerISF_EEvPT_EELb0EEERSs"
 "_ZN4Rcpp6class_IN5rstan8stan_fitIN30model_stan_boeck_ext_namespace20model_stan_boeck_extEN5boost6random23additive_combine_engineINS6_26linear_congruential_engineIjLj40014ELj0ELj2147483563EEENS8_IjLj40692ELj0ELj2147483399EEEEEEEE10has_methodERKSs"
 "_ZN4Rcpp6class_IN5rstan8stan_fitIN30model_stan_boeck_ext_namespace20model_stan_boeck_extEN5boost6random23additive_combine_engineINS6_26linear_congruential_engineIjLj40014ELj0ELj2147483563EEENS8_IjLj40692ELj0ELj2147483399EEEEEEEE11getPropertyEP7SEXPRECSF_"
 "_ZN4Rcpp6class_IN5rstan8stan_fitIN30model_stan_boeck_ext_namespace20model_stan_boeck_extEN5boost6random23additive_combine_engineINS6_26linear_congruential_engineIjLj40014ELj0ELj2147483563EEENS8_IjLj40692ELj0ELj2147483399EEEEEEEE11invoke_voidEP7SEXPRECSF_PSF_i"
 "_ZN4Rcpp6class_IN5rstan8stan_fitIN30model_stan_boeck_ext_namespace20model_stan_boeck_extEN5boost6random23additive_combine_engineINS6_26linear_congruential_engineIjLj40014ELj0ELj2147483563EEENS8_IjLj40692ELj0ELj2147483399EEEEEEEE11newInstanceEPP7SEXPRECi"
 "_ZN4Rcpp6class_IN5rstan8stan_fitIN30model_stan_boeck_ext_namespace20model_stan_boeck_extEN5boost6random23additive_combine_engineINS6_26linear_congruential_engineIjLj40014ELj0ELj2147483563EEENS8_IjLj40692ELj0ELj2147483399EEEEEEEE11setPropertyEP7SEXPRECSF_SF_"
 "_ZN4Rcpp6class_IN5rstan8stan_fitIN30model_stan_boeck_ext_namespace20model_stan_boeck_extEN5boost6random23additive_combine_engineINS6_26linear_congruential_engineIjLj40014ELj0ELj2147483563EEENS8_IjLj40692ELj0ELj2147483399EEEEEEEE12get_instanceEv"
 "_ZN4Rcpp6class_IN5rstan8stan_fitIN30model_stan_boeck_ext_namespace20model_stan_boeck_extEN5boost6random23additive_combine_engineINS6_26linear_congruential_engineIjLj40014ELj0ELj2147483563EEENS8_IjLj40692ELj0ELj2147483399EEEEEEEE12has_propertyERKSs"
 "_ZN4Rcpp6class_IN5rstan8stan_fitIN30model_stan_boeck_ext_namespace20model_stan_boeck_extEN5boost6random23additive_combine_engineINS6_26linear_congruential_engineIjLj40014ELj0ELj2147483563EEENS8_IjLj40692ELj0ELj2147483399EEEEEEEE12method_namesEv"
 "_ZN4Rcpp6class_IN5rstan8stan_fitIN30model_stan_boeck_ext_namespace20model_stan_boeck_extEN5boost6random23additive_combine_engineINS6_26linear_congruential_engineIjLj40014ELj0ELj2147483563EEENS8_IjLj40692ELj0ELj2147483399EEEEEEEE13methods_arityEv"
 "_ZN4Rcpp6class_IN5rstan8stan_fitIN30model_stan_boeck_ext_namespace20model_stan_boeck_extEN5boost6random23additive_combine_engineINS6_26linear_congruential_engineIjLj40014ELj0ELj2147483563EEENS8_IjLj40692ELj0ELj2147483399EEEEEEEE13run_finalizerEP7SEXPREC"
 "_ZN4Rcpp6class_IN5rstan8stan_fitIN30model_stan_boeck_ext_namespace20model_stan_boeck_extEN5boost6random23additive_combine_engineINS6_26linear_congruential_engineIjLj40014ELj0ELj2147483563EEENS8_IjLj40692ELj0ELj2147483399EEEEEEEE14invoke_notvoidEP7SEXPRECSF_PSF_i"
 "_ZN4Rcpp6class_IN5rstan8stan_fitIN30model_stan_boeck_ext_namespace20model_stan_boeck_extEN5boost6random23additive_combine_engineINS6_26linear_congruential_engineIjLj40014ELj0ELj2147483563EEENS8_IjLj40692ELj0ELj2147483399EEEEEEEE14property_classERKSs"
 "_ZN4Rcpp6class_IN5rstan8stan_fitIN30model_stan_boeck_ext_namespace20model_stan_boeck_extEN5boost6random23additive_combine_engineINS6_26linear_congruential_engineIjLj40014ELj0ELj2147483563EEENS8_IjLj40692ELj0ELj2147483399EEEEEEEE14property_namesEv"
 "_ZN4Rcpp6class_IN5rstan8stan_fitIN30model_stan_boeck_ext_namespace20model_stan_boeck_extEN5boost6random23additive_combine_engineINS6_26linear_congruential_engineIjLj40014ELj0ELj2147483563EEENS8_IjLj40692ELj0ELj2147483399EEEEEEEE15getConstructorsERKNS_4XPtrINS_10class_BaseENS_15PreserveStorageEXadL_ZNS_25standard_delete_finalizerISF_EEvPT_EELb0EEERSs"
 "_ZN4Rcpp6class_IN5rstan8stan_fitIN30model_stan_boeck_ext_namespace20model_stan_boeck_extEN5boost6random23additive_combine_engineINS6_26linear_congruential_engineIjLj40014ELj0ELj2147483563EEENS8_IjLj40692ELj0ELj2147483399EEEEEEEE16methods_voidnessEv"
 "_ZN4Rcpp6class_IN5rstan8stan_fitIN30model_stan_boeck_ext_namespace20model_stan_boeck_extEN5boost6random23additive_combine_engineINS6_26linear_congruential_engineIjLj40014ELj0ELj2147483563EEENS8_IjLj40692ELj0ELj2147483399EEEEEEEE16property_classesEv"
 "_ZN4Rcpp6class_IN5rstan8stan_fitIN30model_stan_boeck_ext_namespace20model_stan_boeck_extEN5boost6random23additive_combine_engineINS6_26linear_congruential_engineIjLj40014ELj0ELj2147483563EEENS8_IjLj40692ELj0ELj2147483399EEEEEEEE17get_typeinfo_nameEv"
 "_ZN4Rcpp6class_IN5rstan8stan_fitIN30model_stan_boeck_ext_namespace20model_stan_boeck_extEN5boost6random23additive_combine_engineINS6_26linear_congruential_engineIjLj40014ELj0ELj2147483563EEENS8_IjLj40692ELj0ELj2147483399EEEEEEEE20property_is_readonlyERKSs"
 "_ZN4Rcpp6class_IN5rstan8stan_fitIN30model_stan_boeck_ext_namespace20model_stan_boeck_extEN5boost6random23additive_combine_engineINS6_26linear_congruential_engineIjLj40014ELj0ELj2147483563EEENS8_IjLj40692ELj0ELj2147483399EEEEEEEE23has_default_constructorEv"
 "_ZN4Rcpp6class_IN5rstan8stan_fitIN30model_stan_boeck_ext_namespace20model_stan_boeck_extEN5boost6random23additive_combine_engineINS6_26linear_congruential_engineIjLj40014ELj0ELj2147483563EEENS8_IjLj40692ELj0ELj2147483399EEEEEEEE6fieldsERKNS_4XPtrINS_10class_BaseENS_15PreserveStorageEXadL_ZNS_25standard_delete_finalizerISF_EEvPT_EELb0EEE"
 "_ZN4Rcpp6class_IN5rstan8stan_fitIN30model_stan_boeck_ext_namespace20model_stan_boeck_extEN5boost6random23additive_combine_engineINS6_26linear_congruential_engineIjLj40014ELj0ELj2147483563EEENS8_IjLj40692ELj0ELj2147483399EEEEEEEE6invokeEP7SEXPRECSF_PSF_i"
 "_ZN4Rcpp6class_IN5rstan8stan_fitIN30model_stan_boeck_ext_namespace20model_stan_boeck_extEN5boost6random23additive_combine_engineINS6_26linear_congruential_engineIjLj40014ELj0ELj2147483563EEENS8_IjLj40692ELj0ELj2147483399EEEEEEEE8completeEv"
 "_ZN4Rcpp6class_IN5rstan8stan_fitIN30model_stan_boeck_ext_namespace20model_stan_boeck_extEN5boost6random23additive_combine_engineINS6_26linear_congruential_engineIjLj40014ELj0ELj2147483563EEENS8_IjLj40692ELj0ELj2147483399EEEEEEEE9AddMethodEPKcPNS_9CppMethodISC_EEPFbPP7SEXPRECiESF_"
 "_ZN4Rcpp6class_IN5rstan8stan_fitIN30model_stan_boeck_ext_namespace20model_stan_boeck_extEN5boost6random23additive_combine_engineINS6_26linear_congruential_engineIjLj40014ELj0ELj2147483563EEENS8_IjLj40692ELj0ELj2147483399EEEEEEEED0Ev"
 "_ZN4Rcpp6class_IN5rstan8stan_fitIN30model_stan_boeck_ext_namespace20model_stan_boeck_extEN5boost6random23additive_combine_engineINS6_26linear_congruential_engineIjLj40014ELj0ELj2147483563EEENS8_IjLj40692ELj0ELj2147483399EEEEEEEED1Ev"
 "_ZN4Rcpp6class_IN5rstan8stan_fitIN31model_stan_boeck_2012_namespace21model_stan_boeck_2012EN5boost6random23additive_combine_engineINS6_26linear_congruential_engineIjLj40014ELj0ELj2147483563EEENS8_IjLj40692ELj0ELj2147483399EEEEEEEE10getMethodsERKNS_4XPtrINS_10class_BaseENS_15PreserveStorageEXadL_ZNS_25standard_delete_finalizerISF_EEvPT_EELb0EEERSs"
 "_ZN4Rcpp6class_IN5rstan8stan_fitIN31model_stan_boeck_2012_namespace21model_stan_boeck_2012EN5boost6random23additive_combine_engineINS6_26linear_congruential_engineIjLj40014ELj0ELj2147483563EEENS8_IjLj40692ELj0ELj2147483399EEEEEEEE10has_methodERKSs"
 "_ZN4Rcpp6class_IN5rstan8stan_fitIN31model_stan_boeck_2012_namespace21model_stan_boeck_2012EN5boost6random23additive_combine_engineINS6_26linear_congruential_engineIjLj40014ELj0ELj2147483563EEENS8_IjLj40692ELj0ELj2147483399EEEEEEEE11getPropertyEP7SEXPRECSF_"
 "_ZN4Rcpp6class_IN5rstan8stan_fitIN31model_stan_boeck_2012_namespace21model_stan_boeck_2012EN5boost6random23additive_combine_engineINS6_26linear_congruential_engineIjLj40014ELj0ELj2147483563EEENS8_IjLj40692ELj0ELj2147483399EEEEEEEE11invoke_voidEP7SEXPRECSF_PSF_i"
 "_ZN4Rcpp6class_IN5rstan8stan_fitIN31model_stan_boeck_2012_namespace21model_stan_boeck_2012EN5boost6random23additive_combine_engineINS6_26linear_congruential_engineIjLj40014ELj0ELj2147483563EEENS8_IjLj40692ELj0ELj2147483399EEEEEEEE11newInstanceEPP7SEXPRECi"
 "_ZN4Rcpp6class_IN5rstan8stan_fitIN31model_stan_boeck_2012_namespace21model_stan_boeck_2012EN5boost6random23additive_combine_engineINS6_26linear_congruential_engineIjLj40014ELj0ELj2147483563EEENS8_IjLj40692ELj0ELj2147483399EEEEEEEE11setPropertyEP7SEXPRECSF_SF_"
 "_ZN4Rcpp6class_IN5rstan8stan_fitIN31model_stan_boeck_2012_namespace21model_stan_boeck_2012EN5boost6random23additive_combine_engineINS6_26linear_congruential_engineIjLj40014ELj0ELj2147483563EEENS8_IjLj40692ELj0ELj2147483399EEEEEEEE12get_instanceEv"
 "_ZN4Rcpp6class_IN5rstan8stan_fitIN31model_stan_boeck_2012_namespace21model_stan_boeck_2012EN5boost6random23additive_combine_engineINS6_26linear_congruential_engineIjLj40014ELj0ELj2147483563EEENS8_IjLj40692ELj0ELj2147483399EEEEEEEE12has_propertyERKSs"
 "_ZN4Rcpp6class_IN5rstan8stan_fitIN31model_stan_boeck_2012_namespace21model_stan_boeck_2012EN5boost6random23additive_combine_engineINS6_26linear_congruential_engineIjLj40014ELj0ELj2147483563EEENS8_IjLj40692ELj0ELj2147483399EEEEEEEE12method_namesEv"
 "_ZN4Rcpp6class_IN5rstan8stan_fitIN31model_stan_boeck_2012_namespace21model_stan_boeck_2012EN5boost6random23additive_combine_engineINS6_26linear_congruential_engineIjLj40014ELj0ELj2147483563EEENS8_IjLj40692ELj0ELj2147483399EEEEEEEE13methods_arityEv"
 "_ZN4Rcpp6class_IN5rstan8stan_fitIN31model_stan_boeck_2012_namespace21model_stan_boeck_2012EN5boost6random23additive_combine_engineINS6_26linear_congruential_engineIjLj40014ELj0ELj2147483563EEENS8_IjLj40692ELj0ELj2147483399EEEEEEEE13run_finalizerEP7SEXPREC"
 "_ZN4Rcpp6class_IN5rstan8stan_fitIN31model_stan_boeck_2012_namespace21model_stan_boeck_2012EN5boost6random23additive_combine_engineINS6_26linear_congruential_engineIjLj40014ELj0ELj2147483563EEENS8_IjLj40692ELj0ELj2147483399EEEEEEEE14invoke_notvoidEP7SEXPRECSF_PSF_i"
 "_ZN4Rcpp6class_IN5rstan8stan_fitIN31model_stan_boeck_2012_namespace21model_stan_boeck_2012EN5boost6random23additive_combine_engineINS6_26linear_congruential_engineIjLj40014ELj0ELj2147483563EEENS8_IjLj40692ELj0ELj2147483399EEEEEEEE14property_classERKSs"
 "_ZN4Rcpp6class_IN5rstan8stan_fitIN31model_stan_boeck_2012_namespace21model_stan_boeck_2012EN5boost6random23additive_combine_engineINS6_26linear_congruential_engineIjLj40014ELj0ELj2147483563EEENS8_IjLj40692ELj0ELj2147483399EEEEEEEE14property_namesEv"
 "_ZN4Rcpp6class_IN5rstan8stan_fitIN31model_stan_boeck_2012_namespace21model_stan_boeck_2012EN5boost6random23additive_combine_engineINS6_26linear_congruential_engineIjLj40014ELj0ELj2147483563EEENS8_IjLj40692ELj0ELj2147483399EEEEEEEE15getConstructorsERKNS_4XPtrINS_10class_BaseENS_15PreserveStorageEXadL_ZNS_25standard_delete_finalizerISF_EEvPT_EELb0EEERSs"
 "_ZN4Rcpp6class_IN5rstan8stan_fitIN31model_stan_boeck_2012_namespace21model_stan_boeck_2012EN5boost6random23additive_combine_engineINS6_26linear_congruential_engineIjLj40014ELj0ELj2147483563EEENS8_IjLj40692ELj0ELj2147483399EEEEEEEE16methods_voidnessEv"
 "_ZN4Rcpp6class_IN5rstan8stan_fitIN31model_stan_boeck_2012_namespace21model_stan_boeck_2012EN5boost6random23additive_combine_engineINS6_26linear_congruential_engineIjLj40014ELj0ELj2147483563EEENS8_IjLj40692ELj0ELj2147483399EEEEEEEE16property_classesEv"
 "_ZN4Rcpp6class_IN5rstan8stan_fitIN31model_stan_boeck_2012_namespace21model_stan_boeck_2012EN5boost6random23additive_combine_engineINS6_26linear_congruential_engineIjLj40014ELj0ELj2147483563EEENS8_IjLj40692ELj0ELj2147483399EEEEEEEE17get_typeinfo_nameEv"
 "_ZN4Rcpp6class_IN5rstan8stan_fitIN31model_stan_boeck_2012_namespace21model_stan_boeck_2012EN5boost6random23additive_combine_engineINS6_26linear_congruential_engineIjLj40014ELj0ELj2147483563EEENS8_IjLj40692ELj0ELj2147483399EEEEEEEE20property_is_readonlyERKSs"
 "_ZN4Rcpp6class_IN5rstan8stan_fitIN31model_stan_boeck_2012_namespace21model_stan_boeck_2012EN5boost6random23additive_combine_engineINS6_26linear_congruential_engineIjLj40014ELj0ELj2147483563EEENS8_IjLj40692ELj0ELj2147483399EEEEEEEE23has_default_constructorEv"
 "_ZN4Rcpp6class_IN5rstan8stan_fitIN31model_stan_boeck_2012_namespace21model_stan_boeck_2012EN5boost6random23additive_combine_engineINS6_26linear_congruential_engineIjLj40014ELj0ELj2147483563EEENS8_IjLj40692ELj0ELj2147483399EEEEEEEE6fieldsERKNS_4XPtrINS_10class_BaseENS_15PreserveStorageEXadL_ZNS_25standard_delete_finalizerISF_EEvPT_EELb0EEE"
 "_ZN4Rcpp6class_IN5rstan8stan_fitIN31model_stan_boeck_2012_namespace21model_stan_boeck_2012EN5boost6random23additive_combine_engineINS6_26linear_congruential_engineIjLj40014ELj0ELj2147483563EEENS8_IjLj40692ELj0ELj2147483399EEEEEEEE6invokeEP7SEXPRECSF_PSF_i"
 "_ZN4Rcpp6class_IN5rstan8stan_fitIN31model_stan_boeck_2012_namespace21model_stan_boeck_2012EN5boost6random23additive_combine_engineINS6_26linear_congruential_engineIjLj40014ELj0ELj2147483563EEENS8_IjLj40692ELj0ELj2147483399EEEEEEEE8completeEv"
 "_ZN4Rcpp6class_IN5rstan8stan_fitIN31model_stan_boeck_2012_namespace21model_stan_boeck_2012EN5boost6random23additive_combine_engineINS6_26linear_congruential_engineIjLj40014ELj0ELj2147483563EEENS8_IjLj40692ELj0ELj2147483399EEEEEEEE9AddMethodEPKcPNS_9CppMethodISC_EEPFbPP7SEXPRECiESF_"
 "_ZN4Rcpp6class_IN5rstan8stan_fitIN31model_stan_boeck_2012_namespace21model_stan_boeck_2012EN5boost6random23additive_combine_engineINS6_26linear_congruential_engineIjLj40014ELj0ELj2147483563EEENS8_IjLj40692ELj0ELj2147483399EEEEEEEED0Ev"
 "_ZN4Rcpp6class_IN5rstan8stan_fitIN31model_stan_boeck_2012_namespace21model_stan_boeck_2012EN5boost6random23additive_combine_engineINS6_26linear_congruential_engineIjLj40014ELj0ELj2147483563EEENS8_IjLj40692ELj0ELj2147483399EEEEEEEED1Ev"
 "_ZN4Rcpp6class_IN5rstan8stan_fitIN31model_stan_boeck_ext2_namespace21model_stan_boeck_ext2EN5boost6random23additive_combine_engineINS6_26linear_congruential_engineIjLj40014ELj0ELj2147483563EEENS8_IjLj40692ELj0ELj2147483399EEEEEEEE10getMethodsERKNS_4XPtrINS_10class_BaseENS_15PreserveStorageEXadL_ZNS_25standard_delete_finalizerISF_EEvPT_EELb0EEERSs"
 "_ZN4Rcpp6class_IN5rstan8stan_fitIN31model_stan_boeck_ext2_namespace21model_stan_boeck_ext2EN5boost6random23additive_combine_engineINS6_26linear_congruential_engineIjLj40014ELj0ELj2147483563EEENS8_IjLj40692ELj0ELj2147483399EEEEEEEE10has_methodERKSs"
 "_ZN4Rcpp6class_IN5rstan8stan_fitIN31model_stan_boeck_ext2_namespace21model_stan_boeck_ext2EN5boost6random23additive_combine_engineINS6_26linear_congruential_engineIjLj40014ELj0ELj2147483563EEENS8_IjLj40692ELj0ELj2147483399EEEEEEEE11getPropertyEP7SEXPRECSF_"
 "_ZN4Rcpp6class_IN5rstan8stan_fitIN31model_stan_boeck_ext2_namespace21model_stan_boeck_ext2EN5boost6random23additive_combine_engineINS6_26linear_congruential_engineIjLj40014ELj0ELj2147483563EEENS8_IjLj40692ELj0ELj2147483399EEEEEEEE11invoke_voidEP7SEXPRECSF_PSF_i"
 "_ZN4Rcpp6class_IN5rstan8stan_fitIN31model_stan_boeck_ext2_namespace21model_stan_boeck_ext2EN5boost6random23additive_combine_engineINS6_26linear_congruential_engineIjLj40014ELj0ELj2147483563EEENS8_IjLj40692ELj0ELj2147483399EEEEEEEE11newInstanceEPP7SEXPRECi"
 "_ZN4Rcpp6class_IN5rstan8stan_fitIN31model_stan_boeck_ext2_namespace21model_stan_boeck_ext2EN5boost6random23additive_combine_engineINS6_26linear_congruential_engineIjLj40014ELj0ELj2147483563EEENS8_IjLj40692ELj0ELj2147483399EEEEEEEE11setPropertyEP7SEXPRECSF_SF_"
 "_ZN4Rcpp6class_IN5rstan8stan_fitIN31model_stan_boeck_ext2_namespace21model_stan_boeck_ext2EN5boost6random23additive_combine_engineINS6_26linear_congruential_engineIjLj40014ELj0ELj2147483563EEENS8_IjLj40692ELj0ELj2147483399EEEEEEEE12get_instanceEv"
 "_ZN4Rcpp6class_IN5rstan8stan_fitIN31model_stan_boeck_ext2_namespace21model_stan_boeck_ext2EN5boost6random23additive_combine_engineINS6_26linear_congruential_engineIjLj40014ELj0ELj2147483563EEENS8_IjLj40692ELj0ELj2147483399EEEEEEEE12has_propertyERKSs"
 "_ZN4Rcpp6class_IN5rstan8stan_fitIN31model_stan_boeck_ext2_namespace21model_stan_boeck_ext2EN5boost6random23additive_combine_engineINS6_26linear_congruential_engineIjLj40014ELj0ELj2147483563EEENS8_IjLj40692ELj0ELj2147483399EEEEEEEE12method_namesEv"
 "_ZN4Rcpp6class_IN5rstan8stan_fitIN31model_stan_boeck_ext2_namespace21model_stan_boeck_ext2EN5boost6random23additive_combine_engineINS6_26linear_congruential_engineIjLj40014ELj0ELj2147483563EEENS8_IjLj40692ELj0ELj2147483399EEEEEEEE13methods_arityEv"
 "_ZN4Rcpp6class_IN5rstan8stan_fitIN31model_stan_boeck_ext2_namespace21model_stan_boeck_ext2EN5boost6random23additive_combine_engineINS6_26linear_congruential_engineIjLj40014ELj0ELj2147483563EEENS8_IjLj40692ELj0ELj2147483399EEEEEEEE13run_finalizerEP7SEXPREC"
 "_ZN4Rcpp6class_IN5rstan8stan_fitIN31model_stan_boeck_ext2_namespace21model_stan_boeck_ext2EN5boost6random23additive_combine_engineINS6_26linear_congruential_engineIjLj40014ELj0ELj2147483563EEENS8_IjLj40692ELj0ELj2147483399EEEEEEEE14invoke_notvoidEP7SEXPRECSF_PSF_i"
 "_ZN4Rcpp6class_IN5rstan8stan_fitIN31model_stan_boeck_ext2_namespace21model_stan_boeck_ext2EN5boost6random23additive_combine_engineINS6_26linear_congruential_engineIjLj40014ELj0ELj2147483563EEENS8_IjLj40692ELj0ELj2147483399EEEEEEEE14property_classERKSs"
 "_ZN4Rcpp6class_IN5rstan8stan_fitIN31model_stan_boeck_ext2_namespace21model_stan_boeck_ext2EN5boost6random23additive_combine_engineINS6_26linear_congruential_engineIjLj40014ELj0ELj2147483563EEENS8_IjLj40692ELj0ELj2147483399EEEEEEEE14property_namesEv"
 "_ZN4Rcpp6class_IN5rstan8stan_fitIN31model_stan_boeck_ext2_namespace21model_stan_boeck_ext2EN5boost6random23additive_combine_engineINS6_26linear_congruential_engineIjLj40014ELj0ELj2147483563EEENS8_IjLj40692ELj0ELj2147483399EEEEEEEE15getConstructorsERKNS_4XPtrINS_10class_BaseENS_15PreserveStorageEXadL_ZNS_25standard_delete_finalizerISF_EEvPT_EELb0EEERSs"
 "_ZN4Rcpp6class_IN5rstan8stan_fitIN31model_stan_boeck_ext2_namespace21model_stan_boeck_ext2EN5boost6random23additive_combine_engineINS6_26linear_congruential_engineIjLj40014ELj0ELj2147483563EEENS8_IjLj40692ELj0ELj2147483399EEEEEEEE16methods_voidnessEv"
 "_ZN4Rcpp6class_IN5rstan8stan_fitIN31model_stan_boeck_ext2_namespace21model_stan_boeck_ext2EN5boost6random23additive_combine_engineINS6_26linear_congruential_engineIjLj40014ELj0ELj2147483563EEENS8_IjLj40692ELj0ELj2147483399EEEEEEEE16property_classesEv"
 "_ZN4Rcpp6class_IN5rstan8stan_fitIN31model_stan_boeck_ext2_namespace21model_stan_boeck_ext2EN5boost6random23additive_combine_engineINS6_26linear_congruential_engineIjLj40014ELj0ELj2147483563EEENS8_IjLj40692ELj0ELj2147483399EEEEEEEE17get_typeinfo_nameEv"
 "_ZN4Rcpp6class_IN5rstan8stan_fitIN31model_stan_boeck_ext2_namespace21model_stan_boeck_ext2EN5boost6random23additive_combine_engineINS6_26linear_congruential_engineIjLj40014ELj0ELj2147483563EEENS8_IjLj40692ELj0ELj2147483399EEEEEEEE20property_is_readonlyERKSs"
 "_ZN4Rcpp6class_IN5rstan8stan_fitIN31model_stan_boeck_ext2_namespace21model_stan_boeck_ext2EN5boost6random23additive_combine_engineINS6_26linear_congruential_engineIjLj40014ELj0ELj2147483563EEENS8_IjLj40692ELj0ELj2147483399EEEEEEEE23has_default_constructorEv"
 "_ZN4Rcpp6class_IN5rstan8stan_fitIN31model_stan_boeck_ext2_namespace21model_stan_boeck_ext2EN5boost6random23additive_combine_engineINS6_26linear_congruential_engineIjLj40014ELj0ELj2147483563EEENS8_IjLj40692ELj0ELj2147483399EEEEEEEE6fieldsERKNS_4XPtrINS_10class_BaseENS_15PreserveStorageEXadL_ZNS_25standard_delete_finalizerISF_EEvPT_EELb0EEE"
 "_ZN4Rcpp6class_IN5rstan8stan_fitIN31model_stan_boeck_ext2_namespace21model_stan_boeck_ext2EN5boost6random23additive_combine_engineINS6_26linear_congruential_engineIjLj40014ELj0ELj2147483563EEENS8_IjLj40692ELj0ELj2147483399EEEEEEEE6invokeEP7SEXPRECSF_PSF_i"
 "_ZN4Rcpp6class_IN5rstan8stan_fitIN31model_stan_boeck_ext2_namespace21model_stan_boeck_ext2EN5boost6random23additive_combine_engineINS6_26linear_congruential_engineIjLj40014ELj0ELj2147483563EEENS8_IjLj40692ELj0ELj2147483399EEEEEEEE8completeEv"
 "_ZN4Rcpp6class_IN5rstan8stan_fitIN31model_stan_boeck_ext2_namespace21model_stan_boeck_ext2EN5boost6random23additive_combine_engineINS6_26linear_congruential_engineIjLj40014ELj0ELj2147483563EEENS8_IjLj40692ELj0ELj2147483399EEEEEEEE9AddMethodEPKcPNS_9CppMethodISC_EEPFbPP7SEXPRECiESF_"
 "_ZN4Rcpp6class_IN5rstan8stan_fitIN31model_stan_boeck_ext2_namespace21model_stan_boeck_ext2EN5boost6random23additive_combine_engineINS6_26linear_congruential_engineIjLj40014ELj0ELj2147483563EEENS8_IjLj40692ELj0ELj2147483399EEEEEEEED0Ev"
 "_ZN4Rcpp6class_IN5rstan8stan_fitIN31model_stan_boeck_ext2_namespace21model_stan_boeck_ext2EN5boost6random23additive_combine_engineINS6_26linear_congruential_engineIjLj40014ELj0ELj2147483563EEENS8_IjLj40692ELj0ELj2147483399EEEEEEEED1Ev"
 "_ZN4Rcpp6class_IN5rstan8stan_fitIN32model_stan_boeck_shift_namespace22model_stan_boeck_shiftEN5boost6random23additive_combine_engineINS6_26linear_congruential_engineIjLj40014ELj0ELj2147483563EEENS8_IjLj40692ELj0ELj2147483399EEEEEEEE10getMethodsERKNS_4XPtrINS_10class_BaseENS_15PreserveStorageEXadL_ZNS_25standard_delete_finalizerISF_EEvPT_EELb0EEERSs"
 "_ZN4Rcpp6class_IN5rstan8stan_fitIN32model_stan_boeck_shift_namespace22model_stan_boeck_shiftEN5boost6random23additive_combine_engineINS6_26linear_congruential_engineIjLj40014ELj0ELj2147483563EEENS8_IjLj40692ELj0ELj2147483399EEEEEEEE10has_methodERKSs"
 "_ZN4Rcpp6class_IN5rstan8stan_fitIN32model_stan_boeck_shift_namespace22model_stan_boeck_shiftEN5boost6random23additive_combine_engineINS6_26linear_congruential_engineIjLj40014ELj0ELj2147483563EEENS8_IjLj40692ELj0ELj2147483399EEEEEEEE11getPropertyEP7SEXPRECSF_"
 "_ZN4Rcpp6class_IN5rstan8stan_fitIN32model_stan_boeck_shift_namespace22model_stan_boeck_shiftEN5boost6random23additive_combine_engineINS6_26linear_congruential_engineIjLj40014ELj0ELj2147483563EEENS8_IjLj40692ELj0ELj2147483399EEEEEEEE11invoke_voidEP7SEXPRECSF_PSF_i"
 "_ZN4Rcpp6class_IN5rstan8stan_fitIN32model_stan_boeck_shift_namespace22model_stan_boeck_shiftEN5boost6random23additive_combine_engineINS6_26linear_congruential_engineIjLj40014ELj0ELj2147483563EEENS8_IjLj40692ELj0ELj2147483399EEEEEEEE11newInstanceEPP7SEXPRECi"
 "_ZN4Rcpp6class_IN5rstan8stan_fitIN32model_stan_boeck_shift_namespace22model_stan_boeck_shiftEN5boost6random23additive_combine_engineINS6_26linear_congruential_engineIjLj40014ELj0ELj2147483563EEENS8_IjLj40692ELj0ELj2147483399EEEEEEEE11setPropertyEP7SEXPRECSF_SF_"
 "_ZN4Rcpp6class_IN5rstan8stan_fitIN32model_stan_boeck_shift_namespace22model_stan_boeck_shiftEN5boost6random23additive_combine_engineINS6_26linear_congruential_engineIjLj40014ELj0ELj2147483563EEENS8_IjLj40692ELj0ELj2147483399EEEEEEEE12get_instanceEv"
 "_ZN4Rcpp6class_IN5rstan8stan_fitIN32model_stan_boeck_shift_namespace22model_stan_boeck_shiftEN5boost6random23additive_combine_engineINS6_26linear_congruential_engineIjLj40014ELj0ELj2147483563EEENS8_IjLj40692ELj0ELj2147483399EEEEEEEE12has_propertyERKSs"
 "_ZN4Rcpp6class_IN5rstan8stan_fitIN32model_stan_boeck_shift_namespace22model_stan_boeck_shiftEN5boost6random23additive_combine_engineINS6_26linear_congruential_engineIjLj40014ELj0ELj2147483563EEENS8_IjLj40692ELj0ELj2147483399EEEEEEEE12method_namesEv"
 "_ZN4Rcpp6class_IN5rstan8stan_fitIN32model_stan_boeck_shift_namespace22model_stan_boeck_shiftEN5boost6random23additive_combine_engineINS6_26linear_congruential_engineIjLj40014ELj0ELj2147483563EEENS8_IjLj40692ELj0ELj2147483399EEEEEEEE13methods_arityEv"
 "_ZN4Rcpp6class_IN5rstan8stan_fitIN32model_stan_boeck_shift_namespace22model_stan_boeck_shiftEN5boost6random23additive_combine_engineINS6_26linear_congruential_engineIjLj40014ELj0ELj2147483563EEENS8_IjLj40692ELj0ELj2147483399EEEEEEEE13run_finalizerEP7SEXPREC"
 "_ZN4Rcpp6class_IN5rstan8stan_fitIN32model_stan_boeck_shift_namespace22model_stan_boeck_shiftEN5boost6random23additive_combine_engineINS6_26linear_congruential_engineIjLj40014ELj0ELj2147483563EEENS8_IjLj40692ELj0ELj2147483399EEEEEEEE14invoke_notvoidEP7SEXPRECSF_PSF_i"
 "_ZN4Rcpp6class_IN5rstan8stan_fitIN32model_stan_boeck_shift_namespace22model_stan_boeck_shiftEN5boost6random23additive_combine_engineINS6_26linear_congruential_engineIjLj40014ELj0ELj2147483563EEENS8_IjLj40692ELj0ELj2147483399EEEEEEEE14property_classERKSs"
 "_ZN4Rcpp6class_IN5rstan8stan_fitIN32model_stan_boeck_shift_namespace22model_stan_boeck_shiftEN5boost6random23additive_combine_engineINS6_26linear_congruential_engineIjLj40014ELj0ELj2147483563EEENS8_IjLj40692ELj0ELj2147483399EEEEEEEE14property_namesEv"
 "_ZN4Rcpp6class_IN5rstan8stan_fitIN32model_stan_boeck_shift_namespace22model_stan_boeck_shiftEN5boost6random23additive_combine_engineINS6_26linear_congruential_engineIjLj40014ELj0ELj2147483563EEENS8_IjLj40692ELj0ELj2147483399EEEEEEEE15getConstructorsERKNS_4XPtrINS_10class_BaseENS_15PreserveStorageEXadL_ZNS_25standard_delete_finalizerISF_EEvPT_EELb0EEERSs"
 "_ZN4Rcpp6class_IN5rstan8stan_fitIN32model_stan_boeck_shift_namespace22model_stan_boeck_shiftEN5boost6random23additive_combine_engineINS6_26linear_congruential_engineIjLj40014ELj0ELj2147483563EEENS8_IjLj40692ELj0ELj2147483399EEEEEEEE16methods_voidnessEv"
 "_ZN4Rcpp6class_IN5rstan8stan_fitIN32model_stan_boeck_shift_namespace22model_stan_boeck_shiftEN5boost6random23additive_combine_engineINS6_26linear_congruential_engineIjLj40014ELj0ELj2147483563EEENS8_IjLj40692ELj0ELj2147483399EEEEEEEE16property_classesEv"
 "_ZN4Rcpp6class_IN5rstan8stan_fitIN32model_stan_boeck_shift_namespace22model_stan_boeck_shiftEN5boost6random23additive_combine_engineINS6_26linear_congruential_engineIjLj40014ELj0ELj2147483563EEENS8_IjLj40692ELj0ELj2147483399EEEEEEEE17get_typeinfo_nameEv"
 "_ZN4Rcpp6class_IN5rstan8stan_fitIN32model_stan_boeck_shift_namespace22model_stan_boeck_shiftEN5boost6random23additive_combine_engineINS6_26linear_congruential_engineIjLj40014ELj0ELj2147483563EEENS8_IjLj40692ELj0ELj2147483399EEEEEEEE20property_is_readonlyERKSs"
 "_ZN4Rcpp6class_IN5rstan8stan_fitIN32model_stan_boeck_shift_namespace22model_stan_boeck_shiftEN5boost6random23additive_combine_engineINS6_26linear_congruential_engineIjLj40014ELj0ELj2147483563EEENS8_IjLj40692ELj0ELj2147483399EEEEEEEE23has_default_constructorEv"
 "_ZN4Rcpp6class_IN5rstan8stan_fitIN32model_stan_boeck_shift_namespace22model_stan_boeck_shiftEN5boost6random23additive_combine_engineINS6_26linear_congruential_engineIjLj40014ELj0ELj2147483563EEENS8_IjLj40692ELj0ELj2147483399EEEEEEEE6fieldsERKNS_4XPtrINS_10class_BaseENS_15PreserveStorageEXadL_ZNS_25standard_delete_finalizerISF_EEvPT_EELb0EEE"
 "_ZN4Rcpp6class_IN5rstan8stan_fitIN32model_stan_boeck_shift_namespace22model_stan_boeck_shiftEN5boost6random23additive_combine_engineINS6_26linear_congruential_engineIjLj40014ELj0ELj2147483563EEENS8_IjLj40692ELj0ELj2147483399EEEEEEEE6invokeEP7SEXPRECSF_PSF_i"
 "_ZN4Rcpp6class_IN5rstan8stan_fitIN32model_stan_boeck_shift_namespace22model_stan_boeck_shiftEN5boost6random23additive_combine_engineINS6_26linear_congruential_engineIjLj40014ELj0ELj2147483563EEENS8_IjLj40692ELj0ELj2147483399EEEEEEEE8completeEv"
 "_ZN4Rcpp6class_IN5rstan8stan_fitIN32model_stan_boeck_shift_namespace22model_stan_boeck_shiftEN5boost6random23additive_combine_engineINS6_26linear_congruential_engineIjLj40014ELj0ELj2147483563EEENS8_IjLj40692ELj0ELj2147483399EEEEEEEE9AddMethodEPKcPNS_9CppMethodISC_EEPFbPP7SEXPRECiESF_"
 "_ZN4Rcpp6class_IN5rstan8stan_fitIN32model_stan_boeck_shift_namespace22model_stan_boeck_shiftEN5boost6random23additive_combine_engineINS6_26linear_congruential_engineIjLj40014ELj0ELj2147483563EEENS8_IjLj40692ELj0ELj2147483399EEEEEEEED0Ev"
 "_ZN4Rcpp6class_IN5rstan8stan_fitIN32model_stan_boeck_shift_namespace22model_stan_boeck_shiftEN5boost6random23additive_combine_engineINS6_26linear_congruential_engineIjLj40014ELj0ELj2147483563EEENS8_IjLj40692ELj0ELj2147483399EEEEEEEED1Ev"
 "_ZN4Rcpp6class_IN5rstan8stan_fitIN33model_stan_boeck_ext_HH_namespace23model_stan_boeck_ext_HHEN5boost6random23additive_combine_engineINS6_26linear_congruential_engineIjLj40014ELj0ELj2147483563EEENS8_IjLj40692ELj0ELj2147483399EEEEEEEE10getMethodsERKNS_4XPtrINS_10class_BaseENS_15PreserveStorageEXadL_ZNS_25standard_delete_finalizerISF_EEvPT_EELb0EEERSs"
 "_ZN4Rcpp6class_IN5rstan8stan_fitIN33model_stan_boeck_ext_HH_namespace23model_stan_boeck_ext_HHEN5boost6random23additive_combine_engineINS6_26linear_congruential_engineIjLj40014ELj0ELj2147483563EEENS8_IjLj40692ELj0ELj2147483399EEEEEEEE10has_methodERKSs"
 "_ZN4Rcpp6class_IN5rstan8stan_fitIN33model_stan_boeck_ext_HH_namespace23model_stan_boeck_ext_HHEN5boost6random23additive_combine_engineINS6_26linear_congruential_engineIjLj40014ELj0ELj2147483563EEENS8_IjLj40692ELj0ELj2147483399EEEEEEEE11getPropertyEP7SEXPRECSF_"
 "_ZN4Rcpp6class_IN5rstan8stan_fitIN33model_stan_boeck_ext_HH_namespace23model_stan_boeck_ext_HHEN5boost6random23additive_combine_engineINS6_26linear_congruential_engineIjLj40014ELj0ELj2147483563EEENS8_IjLj40692ELj0ELj2147483399EEEEEEEE11invoke_voidEP7SEXPRECSF_PSF_i"
 "_ZN4Rcpp6class_IN5rstan8stan_fitIN33model_stan_boeck_ext_HH_namespace23model_stan_boeck_ext_HHEN5boost6random23additive_combine_engineINS6_26linear_congruential_engineIjLj40014ELj0ELj2147483563EEENS8_IjLj40692ELj0ELj2147483399EEEEEEEE11newInstanceEPP7SEXPRECi"
 "_ZN4Rcpp6class_IN5rstan8stan_fitIN33model_stan_boeck_ext_HH_namespace23model_stan_boeck_ext_HHEN5boost6random23additive_combine_engineINS6_26linear_congruential_engineIjLj40014ELj0ELj2147483563EEENS8_IjLj40692ELj0ELj2147483399EEEEEEEE11setPropertyEP7SEXPRECSF_SF_"
 "_ZN4Rcpp6class_IN5rstan8stan_fitIN33model_stan_boeck_ext_HH_namespace23model_stan_boeck_ext_HHEN5boost6random23additive_combine_engineINS6_26linear_congruential_engineIjLj40014ELj0ELj2147483563EEENS8_IjLj40692ELj0ELj2147483399EEEEEEEE12get_instanceEv"
 "_ZN4Rcpp6class_IN5rstan8stan_fitIN33model_stan_boeck_ext_HH_namespace23model_stan_boeck_ext_HHEN5boost6random23additive_combine_engineINS6_26linear_congruential_engineIjLj40014ELj0ELj2147483563EEENS8_IjLj40692ELj0ELj2147483399EEEEEEEE12has_propertyERKSs"
 "_ZN4Rcpp6class_IN5rstan8stan_fitIN33model_stan_boeck_ext_HH_namespace23model_stan_boeck_ext_HHEN5boost6random23additive_combine_engineINS6_26linear_congruential_engineIjLj40014ELj0ELj2147483563EEENS8_IjLj40692ELj0ELj2147483399EEEEEEEE12method_namesEv"
 "_ZN4Rcpp6class_IN5rstan8stan_fitIN33model_stan_boeck_ext_HH_namespace23model_stan_boeck_ext_HHEN5boost6random23additive_combine_engineINS6_26linear_congruential_engineIjLj40014ELj0ELj2147483563EEENS8_IjLj40692ELj0ELj2147483399EEEEEEEE13methods_arityEv"
 "_ZN4Rcpp6class_IN5rstan8stan_fitIN33model_stan_boeck_ext_HH_namespace23model_stan_boeck_ext_HHEN5boost6random23additive_combine_engineINS6_26linear_congruential_engineIjLj40014ELj0ELj2147483563EEENS8_IjLj40692ELj0ELj2147483399EEEEEEEE13run_finalizerEP7SEXPREC"
 "_ZN4Rcpp6class_IN5rstan8stan_fitIN33model_stan_boeck_ext_HH_namespace23model_stan_boeck_ext_HHEN5boost6random23additive_combine_engineINS6_26linear_congruential_engineIjLj40014ELj0ELj2147483563EEENS8_IjLj40692ELj0ELj2147483399EEEEEEEE14invoke_notvoidEP7SEXPRECSF_PSF_i"
 "_ZN4Rcpp6class_IN5rstan8stan_fitIN33model_stan_boeck_ext_HH_namespace23model_stan_boeck_ext_HHEN5boost6random23additive_combine_engineINS6_26linear_congruential_engineIjLj40014ELj0ELj2147483563EEENS8_IjLj40692ELj0ELj2147483399EEEEEEEE14property_classERKSs"
 "_ZN4Rcpp6class_IN5rstan8stan_fitIN33model_stan_boeck_ext_HH_namespace23model_stan_boeck_ext_HHEN5boost6random23additive_combine_engineINS6_26linear_congruential_engineIjLj40014ELj0ELj2147483563EEENS8_IjLj40692ELj0ELj2147483399EEEEEEEE14property_namesEv"
 "_ZN4Rcpp6class_IN5rstan8stan_fitIN33model_stan_boeck_ext_HH_namespace23model_stan_boeck_ext_HHEN5boost6random23additive_combine_engineINS6_26linear_congruential_engineIjLj40014ELj0ELj2147483563EEENS8_IjLj40692ELj0ELj2147483399EEEEEEEE15getConstructorsERKNS_4XPtrINS_10class_BaseENS_15PreserveStorageEXadL_ZNS_25standard_delete_finalizerISF_EEvPT_EELb0EEERSs"
 "_ZN4Rcpp6class_IN5rstan8stan_fitIN33model_stan_boeck_ext_HH_namespace23model_stan_boeck_ext_HHEN5boost6random23additive_combine_engineINS6_26linear_congruential_engineIjLj40014ELj0ELj2147483563EEENS8_IjLj40692ELj0ELj2147483399EEEEEEEE16methods_voidnessEv"
 "_ZN4Rcpp6class_IN5rstan8stan_fitIN33model_stan_boeck_ext_HH_namespace23model_stan_boeck_ext_HHEN5boost6random23additive_combine_engineINS6_26linear_congruential_engineIjLj40014ELj0ELj2147483563EEENS8_IjLj40692ELj0ELj2147483399EEEEEEEE16property_classesEv"
 "_ZN4Rcpp6class_IN5rstan8stan_fitIN33model_stan_boeck_ext_HH_namespace23model_stan_boeck_ext_HHEN5boost6random23additive_combine_engineINS6_26linear_congruential_engineIjLj40014ELj0ELj2147483563EEENS8_IjLj40692ELj0ELj2147483399EEEEEEEE17get_typeinfo_nameEv"
 "_ZN4Rcpp6class_IN5rstan8stan_fitIN33model_stan_boeck_ext_HH_namespace23model_stan_boeck_ext_HHEN5boost6random23additive_combine_engineINS6_26linear_congruential_engineIjLj40014ELj0ELj2147483563EEENS8_IjLj40692ELj0ELj2147483399EEEEEEEE20property_is_readonlyERKSs"
 "_ZN4Rcpp6class_IN5rstan8stan_fitIN33model_stan_boeck_ext_HH_namespace23model_stan_boeck_ext_HHEN5boost6random23additive_combine_engineINS6_26linear_congruential_engineIjLj40014ELj0ELj2147483563EEENS8_IjLj40692ELj0ELj2147483399EEEEEEEE23has_default_constructorEv"
 "_ZN4Rcpp6class_IN5rstan8stan_fitIN33model_stan_boeck_ext_HH_namespace23model_stan_boeck_ext_HHEN5boost6random23additive_combine_engineINS6_26linear_congruential_engineIjLj40014ELj0ELj2147483563EEENS8_IjLj40692ELj0ELj2147483399EEEEEEEE6fieldsERKNS_4XPtrINS_10class_BaseENS_15PreserveStorageEXadL_ZNS_25standard_delete_finalizerISF_EEvPT_EELb0EEE"
 "_ZN4Rcpp6class_IN5rstan8stan_fitIN33model_stan_boeck_ext_HH_namespace23model_stan_boeck_ext_HHEN5boost6random23additive_combine_engineINS6_26linear_congruential_engineIjLj40014ELj0ELj2147483563EEENS8_IjLj40692ELj0ELj2147483399EEEEEEEE6invokeEP7SEXPRECSF_PSF_i"
 "_ZN4Rcpp6class_IN5rstan8stan_fitIN33model_stan_boeck_ext_HH_namespace23model_stan_boeck_ext_HHEN5boost6random23additive_combine_engineINS6_26linear_congruential_engineIjLj40014ELj0ELj2147483563EEENS8_IjLj40692ELj0ELj2147483399EEEEEEEE8completeEv"
 "_ZN4Rcpp6class_IN5rstan8stan_fitIN33model_stan_boeck_ext_HH_namespace23model_stan_boeck_ext_HHEN5boost6random23additive_combine_engineINS6_26linear_congruential_engineIjLj40014ELj0ELj2147483563EEENS8_IjLj40692ELj0ELj2147483399EEEEEEEE9AddMethodEPKcPNS_9CppMethodISC_EEPFbPP7SEXPRECiESF_"
 "_ZN4Rcpp6class_IN5rstan8stan_fitIN33model_stan_boeck_ext_HH_namespace23model_stan_boeck_ext_HHEN5boost6random23additive_combine_engineINS6_26linear_congruential_engineIjLj40014ELj0ELj2147483563EEENS8_IjLj40692ELj0ELj2147483399EEEEEEEED0Ev"
 "_ZN4Rcpp6class_IN5rstan8stan_fitIN33model_stan_boeck_ext_HH_namespace23model_stan_boeck_ext_HHEN5boost6random23additive_combine_engineINS6_26linear_congruential_engineIjLj40014ELj0ELj2147483563EEENS8_IjLj40692ELj0ELj2147483399EEEEEEEED1Ev"
 "_ZN4Rcpp6Module8AddClassEPKcPNS_10class_BaseE"
 "_ZN4Rcpp6ModuleC1EPKc"
 "_ZN4Rcpp6r_castILi13EEEP7SEXPRECS2_"
 "_ZN4Rcpp6r_castILi14EEEP7SEXPRECS2_"
 "_ZN4Rcpp6traits13RangeExporterISt6vectorISsSaISsEEE3getEv"
 "_ZN4Rcpp6traits17ContainerExporterISt6vectordE3getEv"
 "_ZN4Rcpp6VectorILi14ENS_15PreserveStorageEE16create__dispatchINS_6traits12named_objectIdEES6_EES2_NS4_17integral_constantIbLb1EEERKT_RKT0_"
 "_ZN4Rcpp6VectorILi19ENS_15PreserveStorageEE16create__dispatchINS_6traits12named_objectIiEEEES2_NS4_17integral_constantIbLb1EEERKT_"
 "_ZN4Rcpp6VectorILi19ENS_15PreserveStorageEE16create__dispatchINS_6traits12named_objectIP7SEXPRECEEEES2_NS4_17integral_constantIbLb1EEERKT_"
 "_ZN4Rcpp6VectorILi19ENS_15PreserveStorageEE16create__dispatchINS_6traits12named_objectISt6vectorIdSaIdEEEENS5_IdEEEES2_NS4_17integral_constantIbLb1EEERKT_RKT0_"
 "_ZN4Rcpp6VectorILi19ENS_15PreserveStorageEEC1EP7SEXPREC"
 "_ZN4Rcpp6VectorILi19ENS_15PreserveStorageEEC1IN9__gnu_cxx17__normal_iteratorIPKNS0_ILi14ES1_EESt6vectorIS6_SaIS6_EEEEEET_SD_"
 "_ZN4Rcpp8internal10basic_castILi10EEEP7SEXPRECS3_"
 "_ZN4Rcpp8internal10basic_castILi13EEEP7SEXPRECS3_"
 "_ZN4Rcpp8internal10basic_castILi14EEEP7SEXPRECS3_"
 "_ZN4Rcpp8internal12primitive_asIbEET_P7SEXPREC"
 "_ZN4Rcpp8internal12primitive_asIdEET_P7SEXPREC"
 "_ZN4Rcpp8internal12primitive_asIiEET_P7SEXPREC"
 "_ZN4Rcpp8internal12primitive_asIjEET_P7SEXPREC"
 "_ZN4Rcpp8internal13r_init_vectorILi14EEEvP7SEXPREC"
 "_ZN4Rcpp8internal18export_range__implIN9__gnu_cxx17__normal_iteratorIPdSt6vectorIdSaIdEEEEdEEvP7SEXPRECT_NS_6traits17integral_constantIbLb0EEE"
 "_ZN4Rcpp8internal18export_range__implIN9__gnu_cxx17__normal_iteratorIPiSt6vectorIiSaIiEEEEiEEvP7SEXPRECT_NS_6traits17integral_constantIbLb0EEE"
 "_ZN4Rcpp8internal18export_range__implIN9__gnu_cxx17__normal_iteratorIPjSt6vectorIjSaIjEEEEjEEvP7SEXPRECT_NS_6traits17integral_constantIbLb1EEE"
 "_ZN4Rcpp8internal22export_range__dispatchIN9__gnu_cxx17__normal_iteratorIPSsSt6vectorISsSaISsEEEESsEEvP7SEXPRECT_NS_6traits17r_type_string_tagE"
 "_ZN4Rcpp8internal26range_wrap_dispatch___implIN9__gnu_cxx17__normal_iteratorIPKSsSt6vectorISsSaISsEEEESsEEP7SEXPRECT_SC_NS_6traits17r_type_string_tagE"
 "_ZN4Rcpp8internal26range_wrap_dispatch___implISt23_Rb_tree_const_iteratorISt4pairIKSsP7SEXPRECEES7_EES6_T_S9_NS_6traits29r_type_pairstring_generic_tagE"
 "_ZN4Rcpp8internal29range_wrap_dispatch___genericIN9__gnu_cxx17__normal_iteratorIPKSt6vectorIjSaIjEES4_IS6_SaIS6_EEEES6_EEP7SEXPRECT_SE_"
 "_ZN4Rcpp8internal34primitive_range_wrap__impl__nocastIN9__gnu_cxx17__normal_iteratorIPKdSt6vectorIdSaIdEEEEdEEP7SEXPRECT_SC_St26random_access_iterator_tag"
 "_ZN4Rcpp8internal3nthEP7SEXPRECi"
 "_ZN4Rcpp8RostreamILb0EED0Ev"
 "_ZN4Rcpp8RostreamILb0EED1Ev"
 "_ZN4Rcpp8RostreamILb1EED0Ev"
 "_ZN4Rcpp8RostreamILb1EED1Ev"
 "_ZN4Rcpp9CppMethodIN5rstan8stan_fitIN24model_stan_pcm_namespace14model_stan_pcmEN5boost6random23additive_combine_engineINS6_26linear_congruential_engineIjLj40014ELj0ELj2147483563EEENS8_IjLj40692ELj0ELj2147483399EEEEEEEE5nargsEv"
 "_ZN4Rcpp9CppMethodIN5rstan8stan_fitIN24model_stan_pcm_namespace14model_stan_pcmEN5boost6random23additive_combine_engineINS6_26linear_congruential_engineIjLj40014ELj0ELj2147483563EEENS8_IjLj40692ELj0ELj2147483399EEEEEEEE7is_voidEv"
 "_ZN4Rcpp9CppMethodIN5rstan8stan_fitIN24model_stan_pcm_namespace14model_stan_pcmEN5boost6random23additive_combine_engineINS6_26linear_congruential_engineIjLj40014ELj0ELj2147483563EEENS8_IjLj40692ELj0ELj2147483399EEEEEEEE8is_constEv"
 "_ZN4Rcpp9CppMethodIN5rstan8stan_fitIN24model_stan_pcm_namespace14model_stan_pcmEN5boost6random23additive_combine_engineINS6_26linear_congruential_engineIjLj40014ELj0ELj2147483563EEENS8_IjLj40692ELj0ELj2147483399EEEEEEEE9signatureERSsPKc"
 "_ZN4Rcpp9CppMethodIN5rstan8stan_fitIN24model_stan_pcm_namespace14model_stan_pcmEN5boost6random23additive_combine_engineINS6_26linear_congruential_engineIjLj40014ELj0ELj2147483563EEENS8_IjLj40692ELj0ELj2147483399EEEEEEEEclEPSC_PP7SEXPREC"
 "_ZN4Rcpp9CppMethodIN5rstan8stan_fitIN24model_stan_pcm_namespace14model_stan_pcmEN5boost6random23additive_combine_engineINS6_26linear_congruential_engineIjLj40014ELj0ELj2147483563EEENS8_IjLj40692ELj0ELj2147483399EEEEEEEED0Ev"
 "_ZN4Rcpp9CppMethodIN5rstan8stan_fitIN24model_stan_pcm_namespace14model_stan_pcmEN5boost6random23additive_combine_engineINS6_26linear_congruential_engineIjLj40014ELj0ELj2147483563EEENS8_IjLj40692ELj0ELj2147483399EEEEEEEED1Ev"
 "_ZN4Rcpp9CppMethodIN5rstan8stan_fitIN26model_stan_steps_namespace16model_stan_stepsEN5boost6random23additive_combine_engineINS6_26linear_congruential_engineIjLj40014ELj0ELj2147483563EEENS8_IjLj40692ELj0ELj2147483399EEEEEEEE5nargsEv"
 "_ZN4Rcpp9CppMethodIN5rstan8stan_fitIN26model_stan_steps_namespace16model_stan_stepsEN5boost6random23additive_combine_engineINS6_26linear_congruential_engineIjLj40014ELj0ELj2147483563EEENS8_IjLj40692ELj0ELj2147483399EEEEEEEE7is_voidEv"
 "_ZN4Rcpp9CppMethodIN5rstan8stan_fitIN26model_stan_steps_namespace16model_stan_stepsEN5boost6random23additive_combine_engineINS6_26linear_congruential_engineIjLj40014ELj0ELj2147483563EEENS8_IjLj40692ELj0ELj2147483399EEEEEEEE8is_constEv"
 "_ZN4Rcpp9CppMethodIN5rstan8stan_fitIN26model_stan_steps_namespace16model_stan_stepsEN5boost6random23additive_combine_engineINS6_26linear_congruential_engineIjLj40014ELj0ELj2147483563EEENS8_IjLj40692ELj0ELj2147483399EEEEEEEE9signatureERSsPKc"
 "_ZN4Rcpp9CppMethodIN5rstan8stan_fitIN26model_stan_steps_namespace16model_stan_stepsEN5boost6random23additive_combine_engineINS6_26linear_congruential_engineIjLj40014ELj0ELj2147483563EEENS8_IjLj40692ELj0ELj2147483399EEEEEEEEclEPSC_PP7SEXPREC"
 "_ZN4Rcpp9CppMethodIN5rstan8stan_fitIN26model_stan_steps_namespace16model_stan_stepsEN5boost6random23additive_combine_engineINS6_26linear_congruential_engineIjLj40014ELj0ELj2147483563EEENS8_IjLj40692ELj0ELj2147483399EEEEEEEED0Ev"
 "_ZN4Rcpp9CppMethodIN5rstan8stan_fitIN26model_stan_steps_namespace16model_stan_stepsEN5boost6random23additive_combine_engineINS6_26linear_congruential_engineIjLj40014ELj0ELj2147483563EEENS8_IjLj40692ELj0ELj2147483399EEEEEEEED1Ev"
 "_ZN4Rcpp9CppMethodIN5rstan8stan_fitIN30model_stan_boeck_ext_namespace20model_stan_boeck_extEN5boost6random23additive_combine_engineINS6_26linear_congruential_engineIjLj40014ELj0ELj2147483563EEENS8_IjLj40692ELj0ELj2147483399EEEEEEEE5nargsEv"
 "_ZN4Rcpp9CppMethodIN5rstan8stan_fitIN30model_stan_boeck_ext_namespace20model_stan_boeck_extEN5boost6random23additive_combine_engineINS6_26linear_congruential_engineIjLj40014ELj0ELj2147483563EEENS8_IjLj40692ELj0ELj2147483399EEEEEEEE7is_voidEv"
 "_ZN4Rcpp9CppMethodIN5rstan8stan_fitIN30model_stan_boeck_ext_namespace20model_stan_boeck_extEN5boost6random23additive_combine_engineINS6_26linear_congruential_engineIjLj40014ELj0ELj2147483563EEENS8_IjLj40692ELj0ELj2147483399EEEEEEEE8is_constEv"
 "_ZN4Rcpp9CppMethodIN5rstan8stan_fitIN30model_stan_boeck_ext_namespace20model_stan_boeck_extEN5boost6random23additive_combine_engineINS6_26linear_congruential_engineIjLj40014ELj0ELj2147483563EEENS8_IjLj40692ELj0ELj2147483399EEEEEEEE9signatureERSsPKc"
 "_ZN4Rcpp9CppMethodIN5rstan8stan_fitIN30model_stan_boeck_ext_namespace20model_stan_boeck_extEN5boost6random23additive_combine_engineINS6_26linear_congruential_engineIjLj40014ELj0ELj2147483563EEENS8_IjLj40692ELj0ELj2147483399EEEEEEEEclEPSC_PP7SEXPREC"
 "_ZN4Rcpp9CppMethodIN5rstan8stan_fitIN30model_stan_boeck_ext_namespace20model_stan_boeck_extEN5boost6random23additive_combine_engineINS6_26linear_congruential_engineIjLj40014ELj0ELj2147483563EEENS8_IjLj40692ELj0ELj2147483399EEEEEEEED0Ev"
 "_ZN4Rcpp9CppMethodIN5rstan8stan_fitIN30model_stan_boeck_ext_namespace20model_stan_boeck_extEN5boost6random23additive_combine_engineINS6_26linear_congruential_engineIjLj40014ELj0ELj2147483563EEENS8_IjLj40692ELj0ELj2147483399EEEEEEEED1Ev"
 "_ZN4Rcpp9CppMethodIN5rstan8stan_fitIN31model_stan_boeck_2012_namespace21model_stan_boeck_2012EN5boost6random23additive_combine_engineINS6_26linear_congruential_engineIjLj40014ELj0ELj2147483563EEENS8_IjLj40692ELj0ELj2147483399EEEEEEEE5nargsEv"
 "_ZN4Rcpp9CppMethodIN5rstan8stan_fitIN31model_stan_boeck_2012_namespace21model_stan_boeck_2012EN5boost6random23additive_combine_engineINS6_26linear_congruential_engineIjLj40014ELj0ELj2147483563EEENS8_IjLj40692ELj0ELj2147483399EEEEEEEE7is_voidEv"
 "_ZN4Rcpp9CppMethodIN5rstan8stan_fitIN31model_stan_boeck_2012_namespace21model_stan_boeck_2012EN5boost6random23additive_combine_engineINS6_26linear_congruential_engineIjLj40014ELj0ELj2147483563EEENS8_IjLj40692ELj0ELj2147483399EEEEEEEE8is_constEv"
 "_ZN4Rcpp9CppMethodIN5rstan8stan_fitIN31model_stan_boeck_2012_namespace21model_stan_boeck_2012EN5boost6random23additive_combine_engineINS6_26linear_congruential_engineIjLj40014ELj0ELj2147483563EEENS8_IjLj40692ELj0ELj2147483399EEEEEEEE9signatureERSsPKc"
 "_ZN4Rcpp9CppMethodIN5rstan8stan_fitIN31model_stan_boeck_2012_namespace21model_stan_boeck_2012EN5boost6random23additive_combine_engineINS6_26linear_congruential_engineIjLj40014ELj0ELj2147483563EEENS8_IjLj40692ELj0ELj2147483399EEEEEEEEclEPSC_PP7SEXPREC"
 "_ZN4Rcpp9CppMethodIN5rstan8stan_fitIN31model_stan_boeck_2012_namespace21model_stan_boeck_2012EN5boost6random23additive_combine_engineINS6_26linear_congruential_engineIjLj40014ELj0ELj2147483563EEENS8_IjLj40692ELj0ELj2147483399EEEEEEEED0Ev"
 "_ZN4Rcpp9CppMethodIN5rstan8stan_fitIN31model_stan_boeck_2012_namespace21model_stan_boeck_2012EN5boost6random23additive_combine_engineINS6_26linear_congruential_engineIjLj40014ELj0ELj2147483563EEENS8_IjLj40692ELj0ELj2147483399EEEEEEEED1Ev"
 "_ZN4Rcpp9CppMethodIN5rstan8stan_fitIN31model_stan_boeck_ext2_namespace21model_stan_boeck_ext2EN5boost6random23additive_combine_engineINS6_26linear_congruential_engineIjLj40014ELj0ELj2147483563EEENS8_IjLj40692ELj0ELj2147483399EEEEEEEE5nargsEv"
 "_ZN4Rcpp9CppMethodIN5rstan8stan_fitIN31model_stan_boeck_ext2_namespace21model_stan_boeck_ext2EN5boost6random23additive_combine_engineINS6_26linear_congruential_engineIjLj40014ELj0ELj2147483563EEENS8_IjLj40692ELj0ELj2147483399EEEEEEEE7is_voidEv"
 "_ZN4Rcpp9CppMethodIN5rstan8stan_fitIN31model_stan_boeck_ext2_namespace21model_stan_boeck_ext2EN5boost6random23additive_combine_engineINS6_26linear_congruential_engineIjLj40014ELj0ELj2147483563EEENS8_IjLj40692ELj0ELj2147483399EEEEEEEE8is_constEv"
 "_ZN4Rcpp9CppMethodIN5rstan8stan_fitIN31model_stan_boeck_ext2_namespace21model_stan_boeck_ext2EN5boost6random23additive_combine_engineINS6_26linear_congruential_engineIjLj40014ELj0ELj2147483563EEENS8_IjLj40692ELj0ELj2147483399EEEEEEEE9signatureERSsPKc"
 "_ZN4Rcpp9CppMethodIN5rstan8stan_fitIN31model_stan_boeck_ext2_namespace21model_stan_boeck_ext2EN5boost6random23additive_combine_engineINS6_26linear_congruential_engineIjLj40014ELj0ELj2147483563EEENS8_IjLj40692ELj0ELj2147483399EEEEEEEEclEPSC_PP7SEXPREC"
 "_ZN4Rcpp9CppMethodIN5rstan8stan_fitIN31model_stan_boeck_ext2_namespace21model_stan_boeck_ext2EN5boost6random23additive_combine_engineINS6_26linear_congruential_engineIjLj40014ELj0ELj2147483563EEENS8_IjLj40692ELj0ELj2147483399EEEEEEEED0Ev"
 "_ZN4Rcpp9CppMethodIN5rstan8stan_fitIN31model_stan_boeck_ext2_namespace21model_stan_boeck_ext2EN5boost6random23additive_combine_engineINS6_26linear_congruential_engineIjLj40014ELj0ELj2147483563EEENS8_IjLj40692ELj0ELj2147483399EEEEEEEED1Ev"
 "_ZN4Rcpp9CppMethodIN5rstan8stan_fitIN32model_stan_boeck_shift_namespace22model_stan_boeck_shiftEN5boost6random23additive_combine_engineINS6_26linear_congruential_engineIjLj40014ELj0ELj2147483563EEENS8_IjLj40692ELj0ELj2147483399EEEEEEEE5nargsEv"
 "_ZN4Rcpp9CppMethodIN5rstan8stan_fitIN32model_stan_boeck_shift_namespace22model_stan_boeck_shiftEN5boost6random23additive_combine_engineINS6_26linear_congruential_engineIjLj40014ELj0ELj2147483563EEENS8_IjLj40692ELj0ELj2147483399EEEEEEEE7is_voidEv"
 "_ZN4Rcpp9CppMethodIN5rstan8stan_fitIN32model_stan_boeck_shift_namespace22model_stan_boeck_shiftEN5boost6random23additive_combine_engineINS6_26linear_congruential_engineIjLj40014ELj0ELj2147483563EEENS8_IjLj40692ELj0ELj2147483399EEEEEEEE8is_constEv"
 "_ZN4Rcpp9CppMethodIN5rstan8stan_fitIN32model_stan_boeck_shift_namespace22model_stan_boeck_shiftEN5boost6random23additive_combine_engineINS6_26linear_congruential_engineIjLj40014ELj0ELj2147483563EEENS8_IjLj40692ELj0ELj2147483399EEEEEEEE9signatureERSsPKc"
 "_ZN4Rcpp9CppMethodIN5rstan8stan_fitIN32model_stan_boeck_shift_namespace22model_stan_boeck_shiftEN5boost6random23additive_combine_engineINS6_26linear_congruential_engineIjLj40014ELj0ELj2147483563EEENS8_IjLj40692ELj0ELj2147483399EEEEEEEEclEPSC_PP7SEXPREC"
 "_ZN4Rcpp9CppMethodIN5rstan8stan_fitIN32model_stan_boeck_shift_namespace22model_stan_boeck_shiftEN5boost6random23additive_combine_engineINS6_26linear_congruential_engineIjLj40014ELj0ELj2147483563EEENS8_IjLj40692ELj0ELj2147483399EEEEEEEED0Ev"
 "_ZN4Rcpp9CppMethodIN5rstan8stan_fitIN32model_stan_boeck_shift_namespace22model_stan_boeck_shiftEN5boost6random23additive_combine_engineINS6_26linear_congruential_engineIjLj40014ELj0ELj2147483563EEENS8_IjLj40692ELj0ELj2147483399EEEEEEEED1Ev"
 "_ZN4Rcpp9CppMethodIN5rstan8stan_fitIN33model_stan_boeck_ext_HH_namespace23model_stan_boeck_ext_HHEN5boost6random23additive_combine_engineINS6_26linear_congruential_engineIjLj40014ELj0ELj2147483563EEENS8_IjLj40692ELj0ELj2147483399EEEEEEEE5nargsEv"
 "_ZN4Rcpp9CppMethodIN5rstan8stan_fitIN33model_stan_boeck_ext_HH_namespace23model_stan_boeck_ext_HHEN5boost6random23additive_combine_engineINS6_26linear_congruential_engineIjLj40014ELj0ELj2147483563EEENS8_IjLj40692ELj0ELj2147483399EEEEEEEE7is_voidEv"
 "_ZN4Rcpp9CppMethodIN5rstan8stan_fitIN33model_stan_boeck_ext_HH_namespace23model_stan_boeck_ext_HHEN5boost6random23additive_combine_engineINS6_26linear_congruential_engineIjLj40014ELj0ELj2147483563EEENS8_IjLj40692ELj0ELj2147483399EEEEEEEE8is_constEv"
 "_ZN4Rcpp9CppMethodIN5rstan8stan_fitIN33model_stan_boeck_ext_HH_namespace23model_stan_boeck_ext_HHEN5boost6random23additive_combine_engineINS6_26linear_congruential_engineIjLj40014ELj0ELj2147483563EEENS8_IjLj40692ELj0ELj2147483399EEEEEEEE9signatureERSsPKc"
 "_ZN4Rcpp9CppMethodIN5rstan8stan_fitIN33model_stan_boeck_ext_HH_namespace23model_stan_boeck_ext_HHEN5boost6random23additive_combine_engineINS6_26linear_congruential_engineIjLj40014ELj0ELj2147483563EEENS8_IjLj40692ELj0ELj2147483399EEEEEEEEclEPSC_PP7SEXPREC"
 "_ZN4Rcpp9CppMethodIN5rstan8stan_fitIN33model_stan_boeck_ext_HH_namespace23model_stan_boeck_ext_HHEN5boost6random23additive_combine_engineINS6_26linear_congruential_engineIjLj40014ELj0ELj2147483563EEENS8_IjLj40692ELj0ELj2147483399EEEEEEEED0Ev"
 "_ZN4Rcpp9CppMethodIN5rstan8stan_fitIN33model_stan_boeck_ext_HH_namespace23model_stan_boeck_ext_HHEN5boost6random23additive_combine_engineINS6_26linear_congruential_engineIjLj40014ELj0ELj2147483563EEENS8_IjLj40692ELj0ELj2147483399EEEEEEEED1Ev"
 "_ZN4Rcpp9exceptionC1EPKcb"
 "_ZN4Rcpp9exceptionD0Ev"
 "_ZN4Rcpp9exceptionD1Ev"
 "_ZN4Rcpp9Rcpp_evalEP7SEXPRECS1_"
 "_ZN4Rcpp9signatureIP7SEXPRECS2_S2_EEvRSsPKc"
 "_ZN4Rcpp9signatureIP7SEXPRECS2_S2_S2_EEvRSsPKc"
 "_ZN4Rcpp9yes_arityILi1EEEbPP7SEXPRECi"
 "_ZN4Rcpp9yes_arityILi2EEEbPP7SEXPRECi"
 "_ZN4Rcpp9yes_arityILi3EEEbPP7SEXPRECi"
 "_ZN4stan11variational14print_progressEiiiibRKSsS2_RNS_9callbacks6loggerE"
 "_ZN4stan11variational15normal_fullrank10set_L_cholERKN5Eigen6MatrixIdLin1ELin1ELi0ELin1ELin1EEE"
 "_ZN4stan11variational15normal_fullrank11set_to_zeroEv"
 "_ZN4stan11variational15normal_fullrank6set_muERKN5Eigen6MatrixIdLin1ELi1ELi0ELin1ELi1EEE"
 "_ZN4stan11variational15normal_fullrankaSERKS1_"
 "_ZN4stan11variational15normal_fullrankC1ERKN5Eigen6MatrixIdLin1ELi1ELi0ELin1ELi1EEE"
 "_ZN4stan11variational15normal_fullrankC1ERKS1_"
 "_ZN4stan11variational15normal_fullrankC1Ey"
 "_ZN4stan11variational15normal_fullrankdVERKS1_"
 "_ZN4stan11variational15normal_fullrankmLEd"
 "_ZN4stan11variational15normal_fullrankpLEd"
 "_ZN4stan11variational15normal_fullrankpLERKS1_"
 "_ZN4stan11variational16normal_meanfield11set_to_zeroEv"
 "_ZN4stan11variational16normal_meanfield6set_muERKN5Eigen6MatrixIdLin1ELi1ELi0ELin1ELi1EEE"
 "_ZN4stan11variational16normal_meanfield9set_omegaERKN5Eigen6MatrixIdLin1ELi1ELi0ELin1ELi1EEE"
 "_ZN4stan11variational16normal_meanfieldC1ERKN5Eigen6MatrixIdLin1ELi1ELi0ELin1ELi1EEE"
 "_ZN4stan11variational16normal_meanfieldC1ERKS1_"
 "_ZN4stan11variational16normal_meanfieldC1Ey"
 "_ZN4stan11variational16normal_meanfielddVERKS1_"
 "_ZN4stan11variational16normal_meanfieldpLEd"
 "_ZN4stan11variational16normal_meanfieldpLERKS1_"
 "_ZN4stan11variationaldvENS0_15normal_fullrankERKS1_"
 "_ZN4stan11variationaldvENS0_16normal_meanfieldERKS1_"
 "_ZN4stan11variationalmlEdNS0_15normal_fullrankE"
 "_ZN4stan11variationalmlEdNS0_16normal_meanfieldE"
 "_ZN4stan11variationalplEdNS0_15normal_fullrankE"
 "_ZN4stan11variationalplEdNS0_16normal_meanfieldE"
 "_ZN4stan11variationalplENS0_15normal_fullrankERKS1_"
 "_ZN4stan11variationalplENS0_16normal_meanfieldERKS1_"
 "_ZN4stan12optimization10WolfLSZoomINS0_12ModelAdaptorIN24model_stan_pcm_namespace14model_stan_pcmEEEdN5Eigen6MatrixIdLin1ELi1ELi0ELin1ELi1EEEEEiRT0_RT1_SA_SC_RT_RKSB_RKS9_SI_SI_SI_SG_S9_S9_S9_S9_S9_S9_SI_"
 "_ZN4stan12optimization10WolfLSZoomINS0_12ModelAdaptorIN26model_stan_steps_namespace16model_stan_stepsEEEdN5Eigen6MatrixIdLin1ELi1ELi0ELin1ELi1EEEEEiRT0_RT1_SA_SC_RT_RKSB_RKS9_SI_SI_SI_SG_S9_S9_S9_S9_S9_S9_SI_"
 "_ZN4stan12optimization10WolfLSZoomINS0_12ModelAdaptorIN30model_stan_boeck_ext_namespace20model_stan_boeck_extEEEdN5Eigen6MatrixIdLin1ELi1ELi0ELin1ELi1EEEEEiRT0_RT1_SA_SC_RT_RKSB_RKS9_SI_SI_SI_SG_S9_S9_S9_S9_S9_S9_SI_"
 "_ZN4stan12optimization10WolfLSZoomINS0_12ModelAdaptorIN31model_stan_boeck_2012_namespace21model_stan_boeck_2012EEEdN5Eigen6MatrixIdLin1ELi1ELi0ELin1ELi1EEEEEiRT0_RT1_SA_SC_RT_RKSB_RKS9_SI_SI_SI_SG_S9_S9_S9_S9_S9_S9_SI_"
 "_ZN4stan12optimization10WolfLSZoomINS0_12ModelAdaptorIN31model_stan_boeck_ext2_namespace21model_stan_boeck_ext2EEEdN5Eigen6MatrixIdLin1ELi1ELi0ELin1ELi1EEEEEiRT0_RT1_SA_SC_RT_RKSB_RKS9_SI_SI_SI_SG_S9_S9_S9_S9_S9_S9_SI_"
 "_ZN4stan12optimization10WolfLSZoomINS0_12ModelAdaptorIN32model_stan_boeck_shift_namespace22model_stan_boeck_shiftEEEdN5Eigen6MatrixIdLin1ELi1ELi0ELin1ELi1EEEEEiRT0_RT1_SA_SC_RT_RKSB_RKS9_SI_SI_SI_SG_S9_S9_S9_S9_S9_S9_SI_"
 "_ZN4stan12optimization10WolfLSZoomINS0_12ModelAdaptorIN33model_stan_boeck_ext_HH_namespace23model_stan_boeck_ext_HHEEEdN5Eigen6MatrixIdLin1ELi1ELi0ELin1ELi1EEEEEiRT0_RT1_SA_SC_RT_RKSB_RKS9_SI_SI_SI_SG_S9_S9_S9_S9_S9_S9_SI_"
 "_ZN4stan12optimization11CubicInterpIdEET_RKS2_S4_S4_S4_S4_S4_"
 "_ZN4stan12optimization11LBFGSUpdateIdLin1EE6updateERKN5Eigen6MatrixIdLin1ELi1ELi0ELin1ELi1EEES7_b"
 "_ZN4stan12optimization11newton_stepIN24model_stan_pcm_namespace14model_stan_pcmEEEdRT_RSt6vectorIdSaIdEERS6_IiSaIiEEPSo"
 "_ZN4stan12optimization11newton_stepIN26model_stan_steps_namespace16model_stan_stepsEEEdRT_RSt6vectorIdSaIdEERS6_IiSaIiEEPSo"
 "_ZN4stan12optimization11newton_stepIN30model_stan_boeck_ext_namespace20model_stan_boeck_extEEEdRT_RSt6vectorIdSaIdEERS6_IiSaIiEEPSo"
 "_ZN4stan12optimization11newton_stepIN31model_stan_boeck_2012_namespace21model_stan_boeck_2012EEEdRT_RSt6vectorIdSaIdEERS6_IiSaIiEEPSo"
 "_ZN4stan12optimization11newton_stepIN31model_stan_boeck_ext2_namespace21model_stan_boeck_ext2EEEdRT_RSt6vectorIdSaIdEERS6_IiSaIiEEPSo"
 "_ZN4stan12optimization11newton_stepIN32model_stan_boeck_shift_namespace22model_stan_boeck_shiftEEEdRT_RSt6vectorIdSaIdEERS6_IiSaIiEEPSo"
 "_ZN4stan12optimization11newton_stepIN33model_stan_boeck_ext_HH_namespace23model_stan_boeck_ext_HHEEEdRT_RSt6vectorIdSaIdEERS6_IiSaIiEEPSo"
 "_ZN4stan12optimization12ModelAdaptorIN24model_stan_pcm_namespace14model_stan_pcmEEclERKN5Eigen6MatrixIdLin1ELi1ELi0ELin1ELi1EEERdRS7_"
 "_ZN4stan12optimization12ModelAdaptorIN24model_stan_pcm_namespace14model_stan_pcmEED1Ev"
 "_ZN4stan12optimization12ModelAdaptorIN26model_stan_steps_namespace16model_stan_stepsEEclERKN5Eigen6MatrixIdLin1ELi1ELi0ELin1ELi1EEERdRS7_"
 "_ZN4stan12optimization12ModelAdaptorIN26model_stan_steps_namespace16model_stan_stepsEED1Ev"
 "_ZN4stan12optimization12ModelAdaptorIN30model_stan_boeck_ext_namespace20model_stan_boeck_extEEclERKN5Eigen6MatrixIdLin1ELi1ELi0ELin1ELi1EEERdRS7_"
 "_ZN4stan12optimization12ModelAdaptorIN30model_stan_boeck_ext_namespace20model_stan_boeck_extEED1Ev"
 "_ZN4stan12optimization12ModelAdaptorIN31model_stan_boeck_2012_namespace21model_stan_boeck_2012EEclERKN5Eigen6MatrixIdLin1ELi1ELi0ELin1ELi1EEERdRS7_"
 "_ZN4stan12optimization12ModelAdaptorIN31model_stan_boeck_2012_namespace21model_stan_boeck_2012EED1Ev"
 "_ZN4stan12optimization12ModelAdaptorIN31model_stan_boeck_ext2_namespace21model_stan_boeck_ext2EEclERKN5Eigen6MatrixIdLin1ELi1ELi0ELin1ELi1EEERdRS7_"
 "_ZN4stan12optimization12ModelAdaptorIN31model_stan_boeck_ext2_namespace21model_stan_boeck_ext2EED1Ev"
 "_ZN4stan12optimization12ModelAdaptorIN32model_stan_boeck_shift_namespace22model_stan_boeck_shiftEEclERKN5Eigen6MatrixIdLin1ELi1ELi0ELin1ELi1EEERdRS7_"
 "_ZN4stan12optimization12ModelAdaptorIN32model_stan_boeck_shift_namespace22model_stan_boeck_shiftEED1Ev"
 "_ZN4stan12optimization12ModelAdaptorIN33model_stan_boeck_ext_HH_namespace23model_stan_boeck_ext_HHEEclERKN5Eigen6MatrixIdLin1ELi1ELi0ELin1ELi1EEERdRS7_"
 "_ZN4stan12optimization12ModelAdaptorIN33model_stan_boeck_ext_HH_namespace23model_stan_boeck_ext_HHEED1Ev"
 "_ZN4stan12optimization13BFGSMinimizerINS0_12ModelAdaptorIN24model_stan_pcm_namespace14model_stan_pcmEEENS0_11LBFGSUpdateIdLin1EEEdLin1EE15get_code_stringEi"
 "_ZN4stan12optimization13BFGSMinimizerINS0_12ModelAdaptorIN24model_stan_pcm_namespace14model_stan_pcmEEENS0_11LBFGSUpdateIdLin1EEEdLin1EED2Ev"
 "_ZN4stan12optimization13BFGSMinimizerINS0_12ModelAdaptorIN24model_stan_pcm_namespace14model_stan_pcmEEENS0_15BFGSUpdate_HInvIdLin1EEEdLin1EE15get_code_stringEi"
 "_ZN4stan12optimization13BFGSMinimizerINS0_12ModelAdaptorIN24model_stan_pcm_namespace14model_stan_pcmEEENS0_15BFGSUpdate_HInvIdLin1EEEdLin1EED2Ev"
 "_ZN4stan12optimization13BFGSMinimizerINS0_12ModelAdaptorIN26model_stan_steps_namespace16model_stan_stepsEEENS0_11LBFGSUpdateIdLin1EEEdLin1EE15get_code_stringEi"
 "_ZN4stan12optimization13BFGSMinimizerINS0_12ModelAdaptorIN26model_stan_steps_namespace16model_stan_stepsEEENS0_11LBFGSUpdateIdLin1EEEdLin1EED2Ev"
 "_ZN4stan12optimization13BFGSMinimizerINS0_12ModelAdaptorIN26model_stan_steps_namespace16model_stan_stepsEEENS0_15BFGSUpdate_HInvIdLin1EEEdLin1EE15get_code_stringEi"
 "_ZN4stan12optimization13BFGSMinimizerINS0_12ModelAdaptorIN26model_stan_steps_namespace16model_stan_stepsEEENS0_15BFGSUpdate_HInvIdLin1EEEdLin1EED2Ev"
 "_ZN4stan12optimization13BFGSMinimizerINS0_12ModelAdaptorIN30model_stan_boeck_ext_namespace20model_stan_boeck_extEEENS0_11LBFGSUpdateIdLin1EEEdLin1EE15get_code_stringEi"
 "_ZN4stan12optimization13BFGSMinimizerINS0_12ModelAdaptorIN30model_stan_boeck_ext_namespace20model_stan_boeck_extEEENS0_11LBFGSUpdateIdLin1EEEdLin1EED2Ev"
 "_ZN4stan12optimization13BFGSMinimizerINS0_12ModelAdaptorIN30model_stan_boeck_ext_namespace20model_stan_boeck_extEEENS0_15BFGSUpdate_HInvIdLin1EEEdLin1EE15get_code_stringEi"
 "_ZN4stan12optimization13BFGSMinimizerINS0_12ModelAdaptorIN30model_stan_boeck_ext_namespace20model_stan_boeck_extEEENS0_15BFGSUpdate_HInvIdLin1EEEdLin1EED2Ev"
 "_ZN4stan12optimization13BFGSMinimizerINS0_12ModelAdaptorIN31model_stan_boeck_2012_namespace21model_stan_boeck_2012EEENS0_11LBFGSUpdateIdLin1EEEdLin1EE15get_code_stringEi"
 "_ZN4stan12optimization13BFGSMinimizerINS0_12ModelAdaptorIN31model_stan_boeck_2012_namespace21model_stan_boeck_2012EEENS0_11LBFGSUpdateIdLin1EEEdLin1EED2Ev"
 "_ZN4stan12optimization13BFGSMinimizerINS0_12ModelAdaptorIN31model_stan_boeck_2012_namespace21model_stan_boeck_2012EEENS0_15BFGSUpdate_HInvIdLin1EEEdLin1EE15get_code_stringEi"
 "_ZN4stan12optimization13BFGSMinimizerINS0_12ModelAdaptorIN31model_stan_boeck_2012_namespace21model_stan_boeck_2012EEENS0_15BFGSUpdate_HInvIdLin1EEEdLin1EED2Ev"
 "_ZN4stan12optimization13BFGSMinimizerINS0_12ModelAdaptorIN31model_stan_boeck_ext2_namespace21model_stan_boeck_ext2EEENS0_11LBFGSUpdateIdLin1EEEdLin1EE15get_code_stringEi"
 "_ZN4stan12optimization13BFGSMinimizerINS0_12ModelAdaptorIN31model_stan_boeck_ext2_namespace21model_stan_boeck_ext2EEENS0_11LBFGSUpdateIdLin1EEEdLin1EED2Ev"
 "_ZN4stan12optimization13BFGSMinimizerINS0_12ModelAdaptorIN31model_stan_boeck_ext2_namespace21model_stan_boeck_ext2EEENS0_15BFGSUpdate_HInvIdLin1EEEdLin1EE15get_code_stringEi"
 "_ZN4stan12optimization13BFGSMinimizerINS0_12ModelAdaptorIN31model_stan_boeck_ext2_namespace21model_stan_boeck_ext2EEENS0_15BFGSUpdate_HInvIdLin1EEEdLin1EED2Ev"
 "_ZN4stan12optimization13BFGSMinimizerINS0_12ModelAdaptorIN32model_stan_boeck_shift_namespace22model_stan_boeck_shiftEEENS0_11LBFGSUpdateIdLin1EEEdLin1EE15get_code_stringEi"
 "_ZN4stan12optimization13BFGSMinimizerINS0_12ModelAdaptorIN32model_stan_boeck_shift_namespace22model_stan_boeck_shiftEEENS0_11LBFGSUpdateIdLin1EEEdLin1EED2Ev"
 "_ZN4stan12optimization13BFGSMinimizerINS0_12ModelAdaptorIN32model_stan_boeck_shift_namespace22model_stan_boeck_shiftEEENS0_15BFGSUpdate_HInvIdLin1EEEdLin1EE15get_code_stringEi"
 "_ZN4stan12optimization13BFGSMinimizerINS0_12ModelAdaptorIN32model_stan_boeck_shift_namespace22model_stan_boeck_shiftEEENS0_15BFGSUpdate_HInvIdLin1EEEdLin1EED2Ev"
 "_ZN4stan12optimization13BFGSMinimizerINS0_12ModelAdaptorIN33model_stan_boeck_ext_HH_namespace23model_stan_boeck_ext_HHEEENS0_11LBFGSUpdateIdLin1EEEdLin1EE15get_code_stringEi"
 "_ZN4stan12optimization13BFGSMinimizerINS0_12ModelAdaptorIN33model_stan_boeck_ext_HH_namespace23model_stan_boeck_ext_HHEEENS0_11LBFGSUpdateIdLin1EEEdLin1EED2Ev"
 "_ZN4stan12optimization13BFGSMinimizerINS0_12ModelAdaptorIN33model_stan_boeck_ext_HH_namespace23model_stan_boeck_ext_HHEEENS0_15BFGSUpdate_HInvIdLin1EEEdLin1EE15get_code_stringEi"
 "_ZN4stan12optimization13BFGSMinimizerINS0_12ModelAdaptorIN33model_stan_boeck_ext_HH_namespace23model_stan_boeck_ext_HHEEENS0_15BFGSUpdate_HInvIdLin1EEEdLin1EED2Ev"
 "_ZN4stan12optimization15BFGSUpdate_HInvIdLin1EE6updateERKN5Eigen6MatrixIdLin1ELi1ELi0ELin1ELi1EEES7_b"
 "_ZN4stan12optimization15WolfeLineSearchINS0_12ModelAdaptorIN24model_stan_pcm_namespace14model_stan_pcmEEEdN5Eigen6MatrixIdLin1ELi1ELi0ELin1ELi1EEEEEiRT_RT0_RT1_SC_SE_RKSD_SG_RKSB_SG_SI_SI_SI_"
 "_ZN4stan12optimization15WolfeLineSearchINS0_12ModelAdaptorIN26model_stan_steps_namespace16model_stan_stepsEEEdN5Eigen6MatrixIdLin1ELi1ELi0ELin1ELi1EEEEEiRT_RT0_RT1_SC_SE_RKSD_SG_RKSB_SG_SI_SI_SI_"
 "_ZN4stan12optimization15WolfeLineSearchINS0_12ModelAdaptorIN30model_stan_boeck_ext_namespace20model_stan_boeck_extEEEdN5Eigen6MatrixIdLin1ELi1ELi0ELin1ELi1EEEEEiRT_RT0_RT1_SC_SE_RKSD_SG_RKSB_SG_SI_SI_SI_"
 "_ZN4stan12optimization15WolfeLineSearchINS0_12ModelAdaptorIN31model_stan_boeck_2012_namespace21model_stan_boeck_2012EEEdN5Eigen6MatrixIdLin1ELi1ELi0ELin1ELi1EEEEEiRT_RT0_RT1_SC_SE_RKSD_SG_RKSB_SG_SI_SI_SI_"
 "_ZN4stan12optimization15WolfeLineSearchINS0_12ModelAdaptorIN31model_stan_boeck_ext2_namespace21model_stan_boeck_ext2EEEdN5Eigen6MatrixIdLin1ELi1ELi0ELin1ELi1EEEEEiRT_RT0_RT1_SC_SE_RKSD_SG_RKSB_SG_SI_SI_SI_"
 "_ZN4stan12optimization15WolfeLineSearchINS0_12ModelAdaptorIN32model_stan_boeck_shift_namespace22model_stan_boeck_shiftEEEdN5Eigen6MatrixIdLin1ELi1ELi0ELin1ELi1EEEEEiRT_RT0_RT1_SC_SE_RKSD_SG_RKSB_SG_SI_SI_SI_"
 "_ZN4stan12optimization15WolfeLineSearchINS0_12ModelAdaptorIN33model_stan_boeck_ext_HH_namespace23model_stan_boeck_ext_HHEEEdN5Eigen6MatrixIdLin1ELi1ELi0ELin1ELi1EEEEEiRT_RT0_RT1_SC_SE_RKSD_SG_RKSB_SG_SI_SI_SI_"
 "_ZN4stan12optimization32make_negative_definite_and_solveERN5Eigen6MatrixIdLin1ELin1ELi0ELin1ELin1EEERNS2_IdLin1ELi1ELi0ELin1ELi1EEE"
 "_ZN4stan2io11dump_reader10scan_charsEPKcb"
 "_ZN4stan2io11dump_reader10scan_valueEv"
 "_ZN4stan2io11dump_reader11scan_doubleEv"
 "_ZN4stan2io11dump_reader11scan_numberEv"
 "_ZN4stan2io11dump_reader14scan_seq_valueEv"
 "_ZN4stan2io11dump_reader17scan_struct_valueEv"
 "_ZN4stan2io11dump_reader17scan_zero_doublesEv"
 "_ZN4stan2io11dump_reader18scan_name_unquotedEv"
 "_ZN4stan2io11dump_reader7get_intEv"
 "_ZN4stan2io11dump_reader8scan_dimEv"
 "_ZN4stan2io11dump_reader8scan_intEv"
 "_ZN4stan2io11dump_reader9scan_charEc"
 "_ZN4stan2io11dump_readerD1Ev"
 "_ZN4stan2io13preproc_eventD1Ev"
 "_ZN4stan2io17empty_var_contextD0Ev"
 "_ZN4stan2io17empty_var_contextD1Ev"
 "_ZN4stan2io18random_var_context21constrained_to_vals_rERKSt6vectorIdSaIdEERKS2_IS2_IySaIyEESaIS8_EE"
 "_ZN4stan2io18random_var_contextD0Ev"
 "_ZN4stan2io18random_var_contextD1Ev"
 "_ZN4stan2io19chained_var_contextD0Ev"
 "_ZN4stan2io19chained_var_contextD1Ev"
 "_ZN4stan2io4dumpC1ERSi"
 "_ZN4stan2io4dumpD0Ev"
 "_ZN4stan2io4dumpD1Ev"
 "_ZN4stan2io6readerIdE16vector_constrainEy"
 "_ZN4stan2io6readerIdE19vector_lb_constrainIiEEN5Eigen6MatrixIdLin1ELi1ELi0ELin1ELi1EEET_y"
 "_ZN4stan2io6readerIdE19vector_lb_constrainIiEEN5Eigen6MatrixIdLin1ELi1ELi0ELin1ELi1EEET_yRd"
 "_ZN4stan2io6readerIdE20cov_matrix_constrainEy"
 "_ZN4stan2io6readerIdE20cov_matrix_constrainEyRd"
 "_ZN4stan2io6readerIdE20matrix_lub_constrainIiiEEN5Eigen6MatrixIdLin1ELin1ELi0ELin1ELin1EEET_T0_yy"
 "_ZN4stan2io6readerIdE20matrix_lub_constrainIiiEEN5Eigen6MatrixIdLin1ELin1ELi0ELin1ELin1EEET_T0_yyRd"
 "_ZN4stan2io6readerIdE20vector_lub_constrainIiiEEN5Eigen6MatrixIdLin1ELi1ELi0ELin1ELi1EEET_T0_y"
 "_ZN4stan2io6readerIdE20vector_lub_constrainIiiEEN5Eigen6MatrixIdLin1ELi1ELi0ELin1ELi1EEET_T0_yRd"
 "_ZN4stan2io6readerIdE6scalarEv"
 "_ZN4stan2io6readerINS_4math3varEE16vector_constrainEy"
 "_ZN4stan2io6readerINS_4math3varEE19vector_lb_constrainIiEEN5Eigen6MatrixIS3_Lin1ELi1ELi0ELin1ELi1EEET_y"
 "_ZN4stan2io6readerINS_4math3varEE19vector_lb_constrainIiEEN5Eigen6MatrixIS3_Lin1ELi1ELi0ELin1ELi1EEET_yRS3_"
 "_ZN4stan2io6readerINS_4math3varEE20cov_matrix_constrainEy"
 "_ZN4stan2io6readerINS_4math3varEE20cov_matrix_constrainEyRS3_"
 "_ZN4stan2io6readerINS_4math3varEE20matrix_lub_constrainIiiEEN5Eigen6MatrixIS3_Lin1ELin1ELi0ELin1ELin1EEET_T0_yy"
 "_ZN4stan2io6readerINS_4math3varEE20matrix_lub_constrainIiiEEN5Eigen6MatrixIS3_Lin1ELin1ELi0ELin1ELin1EEET_T0_yyRS3_"
 "_ZN4stan2io6readerINS_4math3varEE20vector_lub_constrainIiiEEN5Eigen6MatrixIS3_Lin1ELi1ELi0ELin1ELi1EEET_T0_y"
 "_ZN4stan2io6readerINS_4math3varEE20vector_lub_constrainIiiEEN5Eigen6MatrixIS3_Lin1ELi1ELi0ELin1ELi1EEET_T0_yRS3_"
 "_ZN4stan2io6readerINS_4math3varEE6scalarEv"
 "_ZN4stan2io6writerIdE22cov_matrix_unconstrainERN5Eigen6MatrixIdLin1ELin1ELi0ELin1ELin1EEE"
 "_ZN4stan2io6writerIdE22matrix_lub_unconstrainEddRN5Eigen6MatrixIdLin1ELin1ELi0ELin1ELin1EEE"
 "_ZN4stan2io6writerIdE22vector_lub_unconstrainEddRN5Eigen6MatrixIdLin1ELi1ELi0ELin1ELi1EEE"
 "_ZN4stan2io6writerIdEC1ERSt6vectorIdSaIdEERS3_IiSaIiEE"
 "_ZN4stan2io6writerIdED1Ev"
 "_ZN4stan4lang15rethrow_locatedERKSt9exceptioniRKNS_2io14program_readerE"
 "_ZN4stan4lang17located_exceptionISt10bad_typeidEC1ERKSsS5_"
 "_ZN4stan4lang17located_exceptionISt10bad_typeidED0Ev"
 "_ZN4stan4lang17located_exceptionISt10bad_typeidED1Ev"
 "_ZN4stan4lang17located_exceptionISt13bad_exceptionEC1ERKSsS5_"
 "_ZN4stan4lang17located_exceptionISt13bad_exceptionED0Ev"
 "_ZN4stan4lang17located_exceptionISt13bad_exceptionED1Ev"
 "_ZN4stan4lang17located_exceptionISt8bad_castEC1ERKSsS5_"
 "_ZN4stan4lang17located_exceptionISt8bad_castED0Ev"
 "_ZN4stan4lang17located_exceptionISt8bad_castED1Ev"
 "_ZN4stan4lang17located_exceptionISt9bad_allocEC1ERKSsS5_"
 "_ZN4stan4lang17located_exceptionISt9bad_allocED0Ev"
 "_ZN4stan4lang17located_exceptionISt9bad_allocED1Ev"
 "_ZN4stan4lang17located_exceptionISt9exceptionEC1ERKSsS5_"
 "_ZN4stan4lang17located_exceptionISt9exceptionED0Ev"
 "_ZN4stan4lang17located_exceptionISt9exceptionED1Ev"
 "_ZN4stan4math10initializeISt6vectorIdSaIdEEdEEvRS2_IT_SaIS5_EERKT0_"
 "_ZN4stan4math10initializeISt6vectorIN5Eigen6MatrixIdLin1ELi1ELi0ELin1ELi1EEESaIS5_EEdEEvRS2_IT_SaIS8_EERKT0_"
 "_ZN4stan4math10initializeISt6vectorIN5Eigen6MatrixINS0_3varELin1ELi1ELi0ELin1ELi1EEESaIS6_EES5_EEvRS2_IT_SaIS9_EERKT0_"
 "_ZN4stan4math10initializeISt6vectorINS0_3varESaIS3_EES3_EEvRS2_IT_SaIS6_EERKT0_"
 "_ZN4stan4math10LDLT_allocILin1ELin1EED0Ev"
 "_ZN4stan4math10LDLT_allocILin1ELin1EED1Ev"
 "_ZN4stan4math10op_dv_variD0Ev"
 "_ZN4stan4math10op_dv_variD1Ev"
 "_ZN4stan4math10op_vd_variD0Ev"
 "_ZN4stan4math10op_vd_variD1Ev"
 "_ZN4stan4math10op_vv_variD0Ev"
 "_ZN4stan4math10op_vv_variD1Ev"
 "_ZN4stan4math10Phi_approxEd"
 "_ZN4stan4math10Phi_approxERKNS0_3varE"
 "_ZN4stan4math10rep_vectorIiEEN5Eigen6MatrixIN5boost4math5tools12promote_argsIT_fffffE4typeELin1ELi1ELi0ELin1ELi1EEERKS8_i"
 "_ZN4stan4math10sum_v_vari5chainEv"
 "_ZN4stan4math10sum_v_variD0Ev"
 "_ZN4stan4math10sum_v_variD1Ev"
 "_ZN4stan4math11LDLT_factorIdLin1ELin1EEC1ERKN5Eigen6MatrixIdLin1ELin1ELi0ELin1ELin1EEE"
 "_ZN4stan4math11LDLT_factorINS0_3varELin1ELin1EEC1ERKN5Eigen6MatrixIS2_Lin1ELin1ELi0ELin1ELin1EEE"
 "_ZN4stan4math11normal_lpdfILb0EdidEENS_11return_typeIT0_T1_T2_dddE4typeERKS3_RKS4_RKS5_"
 "_ZN4stan4math11normal_lpdfILb0EdiiEENS_11return_typeIT0_T1_T2_dddE4typeERKS3_RKS4_RKS5_"
 "_ZN4stan4math11normal_lpdfILb0EN5Eigen6MatrixIdLi1ELin1ELi1ELi1ELin1EEEiNS3_IdLin1ELi1ELi0ELin1ELi1EEEEENS_11return_typeIT0_T1_T2_dddE4typeERKS7_RKS8_RKS9_"
 "_ZN4stan4math11normal_lpdfILb0EN5Eigen6MatrixIdLin1ELi1ELi0ELin1ELi1EEES4_dEENS_11return_typeIT0_T1_T2_dddE4typeERKS6_RKS7_RKS8_"
 "_ZN4stan4math11normal_lpdfILb1EN5Eigen6MatrixINS0_3varELi1ELin1ELi1ELi1ELin1EEEiNS3_IS4_Lin1ELi1ELi0ELin1ELi1EEEEENS_11return_typeIT0_T1_T2_dddE4typeERKS8_RKS9_RKSA_"
 "_ZN4stan4math11normal_lpdfILb1EN5Eigen6MatrixINS0_3varELin1ELi1ELi0ELin1ELi1EEEiiEENS_11return_typeIT0_T1_T2_dddE4typeERKS7_RKS8_RKS9_"
 "_ZN4stan4math11normal_lpdfILb1EN5Eigen6MatrixINS0_3varELin1ELi1ELi0ELin1ELi1EEENS3_IdLin1ELi1ELi0ELin1ELi1EEES4_EENS_11return_typeIT0_T1_T2_dddE4typeERKS8_RKS9_RKSA_"
 "_ZN4stan4math11normal_lpdfILb1ENS0_3varEiiEENS_11return_typeIT0_T1_T2_dddE4typeERKS4_RKS5_RKS6_"
 "_ZN4stan4math11normal_lpdfILb1ENS0_3varEiS2_EENS_11return_typeIT0_T1_T2_dddE4typeERKS4_RKS5_RKS6_"
 "_ZN4stan4math11stack_alloc18move_to_next_blockEy"
 "_ZN4stan4math11stack_allocC1Ey"
 "_ZN4stan4math12domain_errorIA1_cEEvPKcS4_RKT_S4_"
 "_ZN4stan4math12domain_errorIA1_cEEvPKcS4_RKT_S4_S4_"
 "_ZN4stan4math12domain_errorIA26_cEEvPKcS4_RKT_S4_S4_"
 "_ZN4stan4math12domain_errorIdEEvPKcS3_RKT_S3_S3_"
 "_ZN4stan4math12domain_errorIiEEvPKcS3_RKT_S3_S3_"
 "_ZN4stan4math12domain_errorINS0_3varEEEvPKcS4_RKT_S4_S4_"
 "_ZN4stan4math12domain_errorIxEEvPKcS3_RKT_S3_S3_"
 "_ZN4stan4math12elt_multiplyIddLi1ELin1EEEN5Eigen6MatrixIN5boost4math5tools12promote_argsIT_T0_ffffE4typeEXT1_EXT2_EXorLNS2_14StorageOptionsE0EquaaeqT1_Li1EneT2_Li1ELSC_1EquaaeqT2_Li1EneT1_Li1ELSC_0ELSC_0EEXT1_EXT2_EEERKNS3_IS8_XT1_EXT2_EXorLSC_0EquaaeqT1_Li1EneT2_Li1ELSC_1EquaaeqT2_Li1EneT1_Li1ELSC_0ELSC_0EEXT1_EXT2_EEERKNS3_IS9_XT1_EXT2_EXorLSC_0EquaaeqT1_Li1EneT2_Li1ELSC_1EquaaeqT2_Li1EneT1_Li1ELSC_0ELSC_0EEXT1_EXT2_EEE"
 "_ZN4stan4math12elt_multiplyIddLin1ELi1EEEN5Eigen6MatrixIN5boost4math5tools12promote_argsIT_T0_ffffE4typeEXT1_EXT2_EXorLNS2_14StorageOptionsE0EquaaeqT1_Li1EneT2_Li1ELSC_1EquaaeqT2_Li1EneT1_Li1ELSC_0ELSC_0EEXT1_EXT2_EEERKNS3_IS8_XT1_EXT2_EXorLSC_0EquaaeqT1_Li1EneT2_Li1ELSC_1EquaaeqT2_Li1EneT1_Li1ELSC_0ELSC_0EEXT1_EXT2_EEERKNS3_IS9_XT1_EXT2_EXorLSC_0EquaaeqT1_Li1EneT2_Li1ELSC_1EquaaeqT2_Li1EneT1_Li1ELSC_0ELSC_0EEXT1_EXT2_EEE"
 "_ZN4stan4math12out_of_rangeEPKciiS2_S2_"
 "_ZN4stan4math13check_simplexIdEEvPKcS3_RKN5Eigen6MatrixIT_Lin1ELi1ELi0ELin1ELi1EEE"
 "_ZN4stan4math13check_simplexINS0_3varEEEvPKcS4_RKN5Eigen6MatrixIT_Lin1ELi1ELi0ELin1ELi1EEE"
 "_ZN4stan4math13get_base1_lhsIdEERT_RN5Eigen6MatrixIS2_Lin1ELin1ELi0ELin1ELin1EEEyyPKcy"
 "_ZN4stan4math13get_base1_lhsIdEERT_RSt6vectorIS2_SaIS2_EEyPKcy"
 "_ZN4stan4math13get_base1_lhsIN5Eigen6MatrixIdLin1ELi1ELi0ELin1ELi1EEEEERT_RSt6vectorIS5_SaIS5_EEyPKcy"
 "_ZN4stan4math13get_base1_lhsIN5Eigen6MatrixINS0_3varELin1ELi1ELi0ELin1ELi1EEEEERT_RSt6vectorIS6_SaIS6_EEyPKcy"
 "_ZN4stan4math13get_base1_lhsINS0_3varEEERT_RN5Eigen6MatrixIS3_Lin1ELin1ELi0ELin1ELin1EEEyyPKcy"
 "_ZN4stan4math13get_base1_lhsINS0_3varEEERT_RSt6vectorIS3_SaIS3_EEyPKcy"
 "_ZN4stan4math13get_base1_lhsISt6vectorIdSaIdEEEERT_RS2_IS5_SaIS5_EEyPKcy"
 "_ZN4stan4math13get_base1_lhsISt6vectorIN5Eigen6MatrixIdLin1ELi1ELi0ELin1ELi1EEESaIS5_EEEERT_RS2_IS8_SaIS8_EEyPKcy"
 "_ZN4stan4math13get_base1_lhsISt6vectorIN5Eigen6MatrixINS0_3varELin1ELi1ELi0ELin1ELi1EEESaIS6_EEEERT_RS2_IS9_SaIS9_EEyPKcy"
 "_ZN4stan4math13lub_constrainIdiiEEN5boost4math5tools12promote_argsIT_T0_T1_fffE4typeES6_S7_S8_"
 "_ZN4stan4math13lub_constrainIdiiEEN5boost4math5tools12promote_argsIT_T0_T1_fffE4typeES6_S7_S8_RS6_"
 "_ZN4stan4math13lub_constrainINS0_3varEiiEEN5boost4math5tools12promote_argsIT_T0_T1_fffE4typeES7_S8_S9_"
 "_ZN4stan4math13lub_constrainINS0_3varEiiEEN5boost4math5tools12promote_argsIT_T0_T1_fffE4typeES7_S8_S9_RS7_"
 "_ZN4stan4math14inv_gamma_lpdfILb0EN5Eigen6MatrixIdLin1ELi1ELi0ELin1ELi1EEEiiEENS_11return_typeIT0_T1_T2_dddE4typeERKS6_RKS7_RKS8_"
 "_ZN4stan4math14inv_gamma_lpdfILb1EN5Eigen6MatrixINS0_3varELin1ELi1ELi0ELin1ELi1EEEiiEENS_11return_typeIT0_T1_T2_dddE4typeERKS7_RKS8_RKS9_"
 "_ZN4stan4math14precomp_v_vari5chainEv"
 "_ZN4stan4math14precomp_v_variD0Ev"
 "_ZN4stan4math14precomp_v_variD1Ev"
 "_ZN4stan4math15categorical_rngIN5boost6random23additive_combine_engineINS3_26linear_congruential_engineIjLj40014ELj0ELj2147483563EEENS5_IjLj40692ELj0ELj2147483399EEEEEEEiRKN5Eigen6MatrixIdLin1ELi1ELi0ELin1ELi1EEERT_"
 "_ZN4stan4math15chainable_allocD0Ev"
 "_ZN4stan4math15chainable_allocD1Ev"
 "_ZN4stan4math15check_symmetricIdEEvPKcS3_RKN5Eigen6MatrixIT_Lin1ELin1ELi0ELin1ELin1EEE"
 "_ZN4stan4math15check_symmetricINS0_3varEEEvPKcS4_RKN5Eigen6MatrixIT_Lin1ELin1ELi0ELin1ELin1EEE"
 "_ZN4stan4math16categorical_lpmfILb0EdEEN5boost4math5tools12promote_argsIT0_fffffE4typeEiRKN5Eigen6MatrixIS6_Lin1ELi1ELi0ELin1ELi1EEE"
 "_ZN4stan4math16categorical_lpmfILb1ENS0_3varEEEN5boost4math5tools12promote_argsIT0_fffffE4typeEiRKN5Eigen6MatrixIS7_Lin1ELi1ELi0ELin1ELi1EEE"
 "_ZN4stan4math16check_size_matchIiiEEvPKcS3_T_S3_T0_"
 "_ZN4stan4math16check_size_matchIixEEvPKcS3_T_S3_T0_"
 "_ZN4stan4math16check_size_matchIxiEEvPKcS3_T_S3_T0_"
 "_ZN4stan4math16check_size_matchIxxEEvPKcS3_S3_T_S3_S3_T0_"
 "_ZN4stan4math16check_size_matchIxxEEvPKcS3_T_S3_T0_"
 "_ZN4stan4math16check_size_matchIyxEEvPKcS3_S3_T_S3_S3_T0_"
 "_ZN4stan4math16domain_error_vecIN5Eigen6MatrixIdLin1ELi1ELi0ELin1ELi1EEEEEvPKcS6_RKT_yS6_S6_"
 "_ZN4stan4math16domain_error_vecIN5Eigen6MatrixIdLin1ELin1ELi0ELin1ELin1EEEEEvPKcS6_RKT_yS6_S6_"
 "_ZN4stan4math16domain_error_vecIN5Eigen6MatrixINS0_3varELin1ELi1ELi0ELin1ELi1EEEEEvPKcS7_RKT_yS7_S7_"
 "_ZN4stan4math16domain_error_vecIN5Eigen6MatrixINS0_3varELin1ELin1ELi0ELin1ELin1EEEEEvPKcS7_RKT_yS7_S7_"
 "_ZN4stan4math16inv_wishart_lpdfILb0EdidEEN5boost4math5tools12promote_argsIT0_T1_T2_fffE4typeERKN5Eigen6MatrixIS6_Lin1ELin1ELi0ELin1ELin1EEERKS7_RKNSC_IS8_Lin1ELin1ELi0ELin1ELin1EEE"
 "_ZN4stan4math16inv_wishart_lpdfILb1ENS0_3varEidEEN5boost4math5tools12promote_argsIT0_T1_T2_fffE4typeERKN5Eigen6MatrixIS7_Lin1ELin1ELi0ELin1ELin1EEERKS8_RKNSD_IS9_Lin1ELin1ELi0ELin1ELin1EEE"
 "_ZN4stan4math16invalid_argumentIiEEvPKcS3_RKT_S3_S3_"
 "_ZN4stan4math16invalid_argumentIxEEvPKcS3_RKT_S3_S3_"
 "_ZN4stan4math16invalid_argumentIyEEvPKcS3_RKT_S3_S3_"
 "_ZN4stan4math17check_ldlt_factorIdLin1ELin1EEEvPKcS3_RNS0_11LDLT_factorIT_XT0_EXT1_EEE"
 "_ZN4stan4math17check_ldlt_factorINS0_3varELin1ELin1EEEvPKcS4_RNS0_11LDLT_factorIT_XT0_EXT1_EEE"
 "_ZN4stan4math17factor_cov_matrixIdEEbRKN5Eigen6MatrixIT_Lin1ELin1ELi0ELin1ELin1EEERNS2_5ArrayIS4_Lin1ELi1ELi0ELin1ELi1EEESA_"
 "_ZN4stan4math17multi_normal_lpdfILb0EN5Eigen6MatrixIdLin1ELi1ELi0ELin1ELi1EEES4_NS3_IdLin1ELin1ELi0ELin1ELin1EEEEENS_11return_typeIT0_T1_T2_dddE4typeERKS7_RKS8_RKS9_"
 "_ZN4stan4math17multi_normal_lpdfILb1EN5Eigen6MatrixINS0_3varELin1ELi1ELi0ELin1ELi1EEENS3_IdLin1ELi1ELi0ELin1ELi1EEENS3_IS4_Lin1ELin1ELi0ELin1ELin1EEEEENS_11return_typeIT0_T1_T2_dddE4typeERKS9_RKSA_RKSB_"
 "_ZN4stan4math17multiply_mat_variINS0_3varELin1ELin1ES2_Lin1EE5chainEv"
 "_ZN4stan4math17multiply_mat_variINS0_3varELin1ELin1ES2_Lin1EED0Ev"
 "_ZN4stan4math17multiply_mat_variINS0_3varELin1ELin1ES2_Lin1EED1Ev"
 "_ZN4stan4math18apply_scalar_unaryINS0_12inv_sqrt_funEN5Eigen6MatrixIdLin1ELi1ELi0ELin1ELi1EEEE5applyERKS5_"
 "_ZN4stan4math18check_pos_definiteIdEEvPKcS3_RKN5Eigen6MatrixIT_Lin1ELin1ELi0ELin1ELin1EEE"
 "_ZN4stan4math18check_pos_definiteINS0_3varEEEvPKcS4_RKN5Eigen6MatrixIT_Lin1ELin1ELi0ELin1ELin1EEE"
 "_ZN4stan4math19check_positive_sizeEPKcS2_S2_i"
 "_ZN4stan4math20AutodiffStackStorageINS0_4variENS0_15chainable_allocEE10var_stack_E"
 "_ZN4stan4math20AutodiffStackStorageINS0_4variENS0_15chainable_allocEE16var_alloc_stack_E"
 "_ZN4stan4math20AutodiffStackStorageINS0_4variENS0_15chainable_allocEE18var_nochain_stack_E"
 "_ZN4stan4math20AutodiffStackStorageINS0_4variENS0_15chainable_allocEE23nested_var_stack_sizes_E"
 "_ZN4stan4math20AutodiffStackStorageINS0_4variENS0_15chainable_allocEE30nested_var_alloc_stack_starts_E"
 "_ZN4stan4math20AutodiffStackStorageINS0_4variENS0_15chainable_allocEE31nested_var_nochain_stack_sizes_E"
 "_ZN4stan4math20AutodiffStackStorageINS0_4variENS0_15chainable_allocEE9memalloc_E"
 "_ZN4stan4math20cov_matrix_constrainIdEEN5Eigen6MatrixIT_Lin1ELin1ELi0ELin1ELin1EEERKNS3_IS4_Lin1ELi1ELi0ELin1ELi1EEENS0_10index_typeIS5_E4typeERS4_"
 "_ZN4stan4math20cov_matrix_constrainIdEEN5Eigen6MatrixIT_Lin1ELin1ELi0ELin1ELin1EEERKNS3_IS4_Lin1ELi1ELi0ELin1ELi1EEENS0_10index_typeIS6_E4typeE"
 "_ZN4stan4math20cov_matrix_constrainINS0_3varEEEN5Eigen6MatrixIT_Lin1ELin1ELi0ELin1ELin1EEERKNS4_IS5_Lin1ELi1ELi0ELin1ELi1EEENS0_10index_typeIS6_E4typeERS5_"
 "_ZN4stan4math20cov_matrix_constrainINS0_3varEEEN5Eigen6MatrixIT_Lin1ELin1ELi0ELin1ELin1EEERKNS4_IS5_Lin1ELi1ELi0ELin1ELi1EEENS0_10index_typeIS7_E4typeE"
 "_ZN4stan4math20log_determinant_ldltILin1ELin1EEENS0_3varERNS0_11LDLT_factorIS2_XT_EXT0_EEE"
 "_ZN4stan4math21check_consistent_sizeIN5Eigen6MatrixIdLin1ELi1ELi0ELin1ELi1EEEEEvPKcS6_RKT_y"
 "_ZN4stan4math21check_consistent_sizeIN5Eigen6MatrixINS0_3varELin1ELi1ELi0ELin1ELi1EEEEEvPKcS7_RKT_y"
 "_ZN4stan4math22check_lower_triangularIdEEvPKcS3_RKN5Eigen6MatrixIT_Lin1ELin1ELi0ELin1ELin1EEE"
 "_ZN4stan4math24trace_inv_quad_form_ldltIddLin1ELin1ELin1ELi1EEEN5boost11enable_if_cIXaantsrNS_6is_varIT_EE5valuentsrNS4_IT0_EE5valueENS2_4math5tools12promote_argsIS5_S7_ffffE4typeEE4typeERKNS0_11LDLT_factorIS5_XT1_EXT2_EEERKN5Eigen6MatrixIS7_XT3_EXT4_EXorLNSK_14StorageOptionsE0EquaaeqT3_Li1EneT4_Li1ELSM_1EquaaeqT4_Li1EneT3_Li1ELSM_0ELSM_0EEXT3_EXT4_EEE"
 "_ZN4stan4math26precomputed_gradients_vari5chainEv"
 "_ZN4stan4math26precomputed_gradients_variD0Ev"
 "_ZN4stan4math26precomputed_gradients_variD1Ev"
 "_ZN4stan4math27validate_non_negative_indexEPKcS2_i"
 "_ZN4stan4math33multiply_lower_tri_self_transposeERKN5Eigen6MatrixIdLin1ELin1ELi0ELin1ELin1EEE"
 "_ZN4stan4math33multiply_lower_tri_self_transposeERKN5Eigen6MatrixINS0_3varELin1ELin1ELi0ELin1ELin1EEE"
 "_ZN4stan4math3addIddLi1ELin1EEEN5Eigen6MatrixIN5boost4math5tools12promote_argsIT_T0_ffffE4typeEXT1_EXT2_EXorLNS2_14StorageOptionsE0EquaaeqT1_Li1EneT2_Li1ELSC_1EquaaeqT2_Li1EneT1_Li1ELSC_0ELSC_0EEXT1_EXT2_EEERKNS3_IS8_XT1_EXT2_EXorLSC_0EquaaeqT1_Li1EneT2_Li1ELSC_1EquaaeqT2_Li1EneT1_Li1ELSC_0ELSC_0EEXT1_EXT2_EEERKNS3_IS9_XT1_EXT2_EXorLSC_0EquaaeqT1_Li1EneT2_Li1ELSC_1EquaaeqT2_Li1EneT1_Li1ELSC_0ELSC_0EEXT1_EXT2_EEE"
 "_ZN4stan4math3addINS0_3varES2_Li1ELin1EEEN5Eigen6MatrixIN5boost4math5tools12promote_argsIT_T0_ffffE4typeEXT1_EXT2_EXorLNS3_14StorageOptionsE0EquaaeqT1_Li1EneT2_Li1ELSD_1EquaaeqT2_Li1EneT1_Li1ELSD_0ELSD_0EEXT1_EXT2_EEERKNS4_IS9_XT1_EXT2_EXorLSD_0EquaaeqT1_Li1EneT2_Li1ELSD_1EquaaeqT2_Li1EneT1_Li1ELSD_0ELSD_0EEXT1_EXT2_EEERKNS4_ISA_XT1_EXT2_EXorLSD_0EquaaeqT1_Li1EneT2_Li1ELSD_1EquaaeqT2_Li1EneT1_Li1ELSD_0ELSD_0EEXT1_EXT2_EEE"
 "_ZN4stan4math3sumERKSt6vectorINS0_3varESaIS2_EE"
 "_ZN4stan4math3varC1Ed"
 "_ZN4stan4math3varC1Ei"
 "_ZN4stan4math3varpLERKS1_"
 "_ZN4stan4math4fillISt6vectorIdSaIdEEdEEvRS2_IT_SaIS5_EERKT0_"
 "_ZN4stan4math4fillISt6vectorIiSaIiEEiEEvRS2_IT_SaIS5_EERKT0_"
 "_ZN4stan4math4fillISt6vectorIN5Eigen6MatrixIdLin1ELi1ELi0ELin1ELi1EEESaIS5_EEdEEvRS2_IT_SaIS8_EERKT0_"
 "_ZN4stan4math4fillISt6vectorIN5Eigen6MatrixINS0_3varELin1ELi1ELi0ELin1ELi1EEESaIS6_EES5_EEvRS2_IT_SaIS9_EERKT0_"
 "_ZN4stan4math4fillISt6vectorINS0_3varESaIS3_EES3_EEvRS2_IT_SaIS6_EERKT0_"
 "_ZN4stan4math4sqrtERKNS0_3varE"
 "_ZN4stan4math4vari5chainEv"
 "_ZN4stan4math4variD0Ev"
 "_ZN4stan4math4variD1Ev"
 "_ZN4stan4math4varinwEy"
 "_ZN4stan4math6assignIddLin1ELi1EEEvRN5Eigen6MatrixIT_XT1_EXT2_EXorLNS2_14StorageOptionsE0EquaaeqT1_Li1EneT2_Li1ELS5_1EquaaeqT2_Li1EneT1_Li1ELS5_0ELS5_0EEXT1_EXT2_EEERKNS3_IT0_XT1_EXT2_EXorLS5_0EquaaeqT1_Li1EneT2_Li1ELS5_1EquaaeqT2_Li1EneT1_Li1ELS5_0ELS5_0EEXT1_EXT2_EEE"
 "_ZN4stan4math6assignIddLin1ELin1EEEvRN5Eigen6MatrixIT_XT1_EXT2_EXorLNS2_14StorageOptionsE0EquaaeqT1_Li1EneT2_Li1ELS5_1EquaaeqT2_Li1EneT1_Li1ELS5_0ELS5_0EEXT1_EXT2_EEERKNS3_IT0_XT1_EXT2_EXorLS5_0EquaaeqT1_Li1EneT2_Li1ELS5_1EquaaeqT2_Li1EneT1_Li1ELS5_0ELS5_0EEXT1_EXT2_EEE"
 "_ZN4stan4math6assignINS0_3varES2_Lin1ELin1EEEvRN5Eigen6MatrixIT_XT1_EXT2_EXorLNS3_14StorageOptionsE0EquaaeqT1_Li1EneT2_Li1ELS6_1EquaaeqT2_Li1EneT1_Li1ELS6_0ELS6_0EEXT1_EXT2_EEERKNS4_IT0_XT1_EXT2_EXorLS6_0EquaaeqT1_Li1EneT2_Li1ELS6_1EquaaeqT2_Li1EneT1_Li1ELS6_0ELS6_0EEXT1_EXT2_EEE"
 "_ZN4stan4math7softmaxIdEEN5Eigen6MatrixIT_Lin1ELi1ELi0ELin1ELi1EEERKS5_"
 "_ZN4stan4math8factor_UIdEEvRKN5Eigen6MatrixIT_Lin1ELin1ELi0ELin1ELin1EEERNS2_5ArrayIS4_Lin1ELi1ELi0ELin1ELi1EEE"
 "_ZN4stan4math8gradientINS_5model16model_functionalIN24model_stan_pcm_namespace14model_stan_pcmEEEEEvRKT_RKN5Eigen6MatrixIdLin1ELi1ELi0ELin1ELi1EEERdRSC_"
 "_ZN4stan4math8gradientINS_5model16model_functionalIN26model_stan_steps_namespace16model_stan_stepsEEEEEvRKT_RKN5Eigen6MatrixIdLin1ELi1ELi0ELin1ELi1EEERdRSC_"
 "_ZN4stan4math8gradientINS_5model16model_functionalIN30model_stan_boeck_ext_namespace20model_stan_boeck_extEEEEEvRKT_RKN5Eigen6MatrixIdLin1ELi1ELi0ELin1ELi1EEERdRSC_"
 "_ZN4stan4math8gradientINS_5model16model_functionalIN31model_stan_boeck_2012_namespace21model_stan_boeck_2012EEEEEvRKT_RKN5Eigen6MatrixIdLin1ELi1ELi0ELin1ELi1EEERdRSC_"
 "_ZN4stan4math8gradientINS_5model16model_functionalIN31model_stan_boeck_ext2_namespace21model_stan_boeck_ext2EEEEEvRKT_RKN5Eigen6MatrixIdLin1ELi1ELi0ELin1ELi1EEERdRSC_"
 "_ZN4stan4math8gradientINS_5model16model_functionalIN32model_stan_boeck_shift_namespace22model_stan_boeck_shiftEEEEEvRKT_RKN5Eigen6MatrixIdLin1ELi1ELi0ELin1ELi1EEERdRSC_"
 "_ZN4stan4math8gradientINS_5model16model_functionalIN33model_stan_boeck_ext_HH_namespace23model_stan_boeck_ext_HHEEEEEvRKT_RKN5Eigen6MatrixIdLin1ELi1ELi0ELin1ELi1EEERdRSC_"
 "_ZN4stan4math8internal7boundedIdddLb0EE5checkEPKcS5_RKdS7_S7_"
 "_ZN4stan4math8internal7boundedIiixLb0EE5checkEPKcS5_RKiS7_RKx"
 "_ZN4stan4math8multiplyILin1ELin1ELin1ELin1EEEN5Eigen6MatrixIdXT_EXT2_EXorLNS2_14StorageOptionsE0EquaaeqT_Li1EneT2_Li1ELS4_1EquaaeqT2_Li1EneT_Li1ELS4_0ELS4_0EEXT_EXT2_EEERKNS3_IdXT_EXT0_EXorLS4_0EquaaeqT_Li1EneT0_Li1ELS4_1EquaaeqT0_Li1EneT_Li1ELS4_0ELS4_0EEXT_EXT0_EEERKNS3_IdXT1_EXT2_EXorLS4_0EquaaeqT1_Li1EneT2_Li1ELS4_1EquaaeqT2_Li1EneT1_Li1ELS4_0ELS4_0EEXT1_EXT2_EEE"
 "_ZN4stan4math8multiplyINS0_3varELin1ELin1ES2_Lin1EEEN5boost11enable_if_cIXoosrNS3_7is_sameIT_S2_EE5valuesrNS5_IT2_S2_EE5valueEN5Eigen6MatrixIS2_XT0_EXT3_EXorLNSA_14StorageOptionsE0EquaaeqT0_Li1EneT3_Li1ELSC_1EquaaeqT3_Li1EneT0_Li1ELSC_0ELSC_0EEXT0_EXT3_EEEE4typeERKNSB_IS6_XT0_EXT1_EXorLSC_0EquaaeqT0_Li1EneT1_Li1ELSC_1EquaaeqT1_Li1EneT0_Li1ELSC_0ELSC_0EEXT0_EXT1_EEERKNSB_IS8_XT1_EXT3_EXorLSC_0EquaaeqT1_Li1EneT3_Li1ELSC_1EquaaeqT3_Li1EneT1_Li1ELSC_0ELSC_0EEXT1_EXT3_EEE"
 "_ZN4stan4math9get_base1IdEERKT_RKN5Eigen6MatrixIS2_Lin1ELin1ELi0ELin1ELin1EEEyyPKcy"
 "_ZN4stan4math9get_base1IdEERKT_RKSt6vectorIS2_SaIS2_EEyPKcy"
 "_ZN4stan4math9get_base1IiEERKT_RKSt6vectorIS2_SaIS2_EEyPKcy"
 "_ZN4stan4math9get_base1IN5Eigen6MatrixIdLin1ELi1ELi0ELin1ELi1EEEEERKT_RKSt6vectorIS5_SaIS5_EEyPKcy"
 "_ZN4stan4math9get_base1IN5Eigen6MatrixINS0_3varELin1ELi1ELi0ELin1ELi1EEEEERKT_RKSt6vectorIS6_SaIS6_EEyPKcy"
 "_ZN4stan4math9get_base1INS0_3varEEERKT_RKN5Eigen6MatrixIS3_Lin1ELin1ELi0ELin1ELin1EEEyyPKcy"
 "_ZN4stan4math9get_base1INS0_3varEEERKT_RKSt6vectorIS3_SaIS3_EEyPKcy"
 "_ZN4stan4math9get_base1ISt6vectorIdSaIdEEEERKT_RKS2_IS5_SaIS5_EEyPKcy"
 "_ZN4stan4math9get_base1ISt6vectorINS0_3varESaIS3_EEEERKT_RKS2_IS6_SaIS6_EEyPKcy"
 "_ZN4stan4math9op_v_variD0Ev"
 "_ZN4stan4math9op_v_variD1Ev"
 "_ZN4stan4mathlsERSoRKNS0_3varE"
 "_ZN4stan4mathmiEdRKNS0_3varE"
 "_ZN4stan4mathmiERKNS0_3varES3_"
 "_ZN4stan4mathmlERKNS0_3varES3_"
 "_ZN4stan4mathplERKNS0_3varES3_"
 "_ZN4stan4mcmc11diag_e_nutsIN24model_stan_pcm_namespace14model_stan_pcmEN5boost6random23additive_combine_engineINS5_26linear_congruential_engineIjLj40014ELj0ELj2147483563EEENS7_IjLj40692ELj0ELj2147483399EEEEEED0Ev"
 "_ZN4stan4mcmc11diag_e_nutsIN24model_stan_pcm_namespace14model_stan_pcmEN5boost6random23additive_combine_engineINS5_26linear_congruential_engineIjLj40014ELj0ELj2147483563EEENS7_IjLj40692ELj0ELj2147483399EEEEEED1Ev"
 "_ZN4stan4mcmc11diag_e_nutsIN26model_stan_steps_namespace16model_stan_stepsEN5boost6random23additive_combine_engineINS5_26linear_congruential_engineIjLj40014ELj0ELj2147483563EEENS7_IjLj40692ELj0ELj2147483399EEEEEED0Ev"
 "_ZN4stan4mcmc11diag_e_nutsIN26model_stan_steps_namespace16model_stan_stepsEN5boost6random23additive_combine_engineINS5_26linear_congruential_engineIjLj40014ELj0ELj2147483563EEENS7_IjLj40692ELj0ELj2147483399EEEEEED1Ev"
 "_ZN4stan4mcmc11diag_e_nutsIN30model_stan_boeck_ext_namespace20model_stan_boeck_extEN5boost6random23additive_combine_engineINS5_26linear_congruential_engineIjLj40014ELj0ELj2147483563EEENS7_IjLj40692ELj0ELj2147483399EEEEEED0Ev"
 "_ZN4stan4mcmc11diag_e_nutsIN30model_stan_boeck_ext_namespace20model_stan_boeck_extEN5boost6random23additive_combine_engineINS5_26linear_congruential_engineIjLj40014ELj0ELj2147483563EEENS7_IjLj40692ELj0ELj2147483399EEEEEED1Ev"
 "_ZN4stan4mcmc11diag_e_nutsIN31model_stan_boeck_2012_namespace21model_stan_boeck_2012EN5boost6random23additive_combine_engineINS5_26linear_congruential_engineIjLj40014ELj0ELj2147483563EEENS7_IjLj40692ELj0ELj2147483399EEEEEED0Ev"
 "_ZN4stan4mcmc11diag_e_nutsIN31model_stan_boeck_2012_namespace21model_stan_boeck_2012EN5boost6random23additive_combine_engineINS5_26linear_congruential_engineIjLj40014ELj0ELj2147483563EEENS7_IjLj40692ELj0ELj2147483399EEEEEED1Ev"
 "_ZN4stan4mcmc11diag_e_nutsIN31model_stan_boeck_ext2_namespace21model_stan_boeck_ext2EN5boost6random23additive_combine_engineINS5_26linear_congruential_engineIjLj40014ELj0ELj2147483563EEENS7_IjLj40692ELj0ELj2147483399EEEEEED0Ev"
 "_ZN4stan4mcmc11diag_e_nutsIN31model_stan_boeck_ext2_namespace21model_stan_boeck_ext2EN5boost6random23additive_combine_engineINS5_26linear_congruential_engineIjLj40014ELj0ELj2147483563EEENS7_IjLj40692ELj0ELj2147483399EEEEEED1Ev"
 "_ZN4stan4mcmc11diag_e_nutsIN32model_stan_boeck_shift_namespace22model_stan_boeck_shiftEN5boost6random23additive_combine_engineINS5_26linear_congruential_engineIjLj40014ELj0ELj2147483563EEENS7_IjLj40692ELj0ELj2147483399EEEEEED0Ev"
 "_ZN4stan4mcmc11diag_e_nutsIN32model_stan_boeck_shift_namespace22model_stan_boeck_shiftEN5boost6random23additive_combine_engineINS5_26linear_congruential_engineIjLj40014ELj0ELj2147483563EEENS7_IjLj40692ELj0ELj2147483399EEEEEED1Ev"
 "_ZN4stan4mcmc11diag_e_nutsIN33model_stan_boeck_ext_HH_namespace23model_stan_boeck_ext_HHEN5boost6random23additive_combine_engineINS5_26linear_congruential_engineIjLj40014ELj0ELj2147483563EEENS7_IjLj40692ELj0ELj2147483399EEEEEED0Ev"
 "_ZN4stan4mcmc11diag_e_nutsIN33model_stan_boeck_ext_HH_namespace23model_stan_boeck_ext_HHEN5boost6random23additive_combine_engineINS5_26linear_congruential_engineIjLj40014ELj0ELj2147483563EEENS7_IjLj40692ELj0ELj2147483399EEEEEED1Ev"
 "_ZN4stan4mcmc11unit_e_nutsIN24model_stan_pcm_namespace14model_stan_pcmEN5boost6random23additive_combine_engineINS5_26linear_congruential_engineIjLj40014ELj0ELj2147483563EEENS7_IjLj40692ELj0ELj2147483399EEEEEED0Ev"
 "_ZN4stan4mcmc11unit_e_nutsIN24model_stan_pcm_namespace14model_stan_pcmEN5boost6random23additive_combine_engineINS5_26linear_congruential_engineIjLj40014ELj0ELj2147483563EEENS7_IjLj40692ELj0ELj2147483399EEEEEED1Ev"
 "_ZN4stan4mcmc11unit_e_nutsIN26model_stan_steps_namespace16model_stan_stepsEN5boost6random23additive_combine_engineINS5_26linear_congruential_engineIjLj40014ELj0ELj2147483563EEENS7_IjLj40692ELj0ELj2147483399EEEEEED0Ev"
 "_ZN4stan4mcmc11unit_e_nutsIN26model_stan_steps_namespace16model_stan_stepsEN5boost6random23additive_combine_engineINS5_26linear_congruential_engineIjLj40014ELj0ELj2147483563EEENS7_IjLj40692ELj0ELj2147483399EEEEEED1Ev"
 "_ZN4stan4mcmc11unit_e_nutsIN30model_stan_boeck_ext_namespace20model_stan_boeck_extEN5boost6random23additive_combine_engineINS5_26linear_congruential_engineIjLj40014ELj0ELj2147483563EEENS7_IjLj40692ELj0ELj2147483399EEEEEED0Ev"
 "_ZN4stan4mcmc11unit_e_nutsIN30model_stan_boeck_ext_namespace20model_stan_boeck_extEN5boost6random23additive_combine_engineINS5_26linear_congruential_engineIjLj40014ELj0ELj2147483563EEENS7_IjLj40692ELj0ELj2147483399EEEEEED1Ev"
 "_ZN4stan4mcmc11unit_e_nutsIN31model_stan_boeck_2012_namespace21model_stan_boeck_2012EN5boost6random23additive_combine_engineINS5_26linear_congruential_engineIjLj40014ELj0ELj2147483563EEENS7_IjLj40692ELj0ELj2147483399EEEEEED0Ev"
 "_ZN4stan4mcmc11unit_e_nutsIN31model_stan_boeck_2012_namespace21model_stan_boeck_2012EN5boost6random23additive_combine_engineINS5_26linear_congruential_engineIjLj40014ELj0ELj2147483563EEENS7_IjLj40692ELj0ELj2147483399EEEEEED1Ev"
 "_ZN4stan4mcmc11unit_e_nutsIN31model_stan_boeck_ext2_namespace21model_stan_boeck_ext2EN5boost6random23additive_combine_engineINS5_26linear_congruential_engineIjLj40014ELj0ELj2147483563EEENS7_IjLj40692ELj0ELj2147483399EEEEEED0Ev"
 "_ZN4stan4mcmc11unit_e_nutsIN31model_stan_boeck_ext2_namespace21model_stan_boeck_ext2EN5boost6random23additive_combine_engineINS5_26linear_congruential_engineIjLj40014ELj0ELj2147483563EEENS7_IjLj40692ELj0ELj2147483399EEEEEED1Ev"
 "_ZN4stan4mcmc11unit_e_nutsIN32model_stan_boeck_shift_namespace22model_stan_boeck_shiftEN5boost6random23additive_combine_engineINS5_26linear_congruential_engineIjLj40014ELj0ELj2147483563EEENS7_IjLj40692ELj0ELj2147483399EEEEEED0Ev"
 "_ZN4stan4mcmc11unit_e_nutsIN32model_stan_boeck_shift_namespace22model_stan_boeck_shiftEN5boost6random23additive_combine_engineINS5_26linear_congruential_engineIjLj40014ELj0ELj2147483563EEENS7_IjLj40692ELj0ELj2147483399EEEEEED1Ev"
 "_ZN4stan4mcmc11unit_e_nutsIN33model_stan_boeck_ext_HH_namespace23model_stan_boeck_ext_HHEN5boost6random23additive_combine_engineINS5_26linear_congruential_engineIjLj40014ELj0ELj2147483563EEENS7_IjLj40692ELj0ELj2147483399EEEEEED0Ev"
 "_ZN4stan4mcmc11unit_e_nutsIN33model_stan_boeck_ext_HH_namespace23model_stan_boeck_ext_HHEN5boost6random23additive_combine_engineINS5_26linear_congruential_engineIjLj40014ELj0ELj2147483563EEENS7_IjLj40692ELj0ELj2147483399EEEEEED1Ev"
 "_ZN4stan4mcmc12base_adapter17engage_adaptationEv"
 "_ZN4stan4mcmc12base_adapter20disengage_adaptationEv"
 "_ZN4stan4mcmc12dense_e_nutsIN24model_stan_pcm_namespace14model_stan_pcmEN5boost6random23additive_combine_engineINS5_26linear_congruential_engineIjLj40014ELj0ELj2147483563EEENS7_IjLj40692ELj0ELj2147483399EEEEEED0Ev"
 "_ZN4stan4mcmc12dense_e_nutsIN24model_stan_pcm_namespace14model_stan_pcmEN5boost6random23additive_combine_engineINS5_26linear_congruential_engineIjLj40014ELj0ELj2147483563EEENS7_IjLj40692ELj0ELj2147483399EEEEEED1Ev"
 "_ZN4stan4mcmc12dense_e_nutsIN26model_stan_steps_namespace16model_stan_stepsEN5boost6random23additive_combine_engineINS5_26linear_congruential_engineIjLj40014ELj0ELj2147483563EEENS7_IjLj40692ELj0ELj2147483399EEEEEED0Ev"
 "_ZN4stan4mcmc12dense_e_nutsIN26model_stan_steps_namespace16model_stan_stepsEN5boost6random23additive_combine_engineINS5_26linear_congruential_engineIjLj40014ELj0ELj2147483563EEENS7_IjLj40692ELj0ELj2147483399EEEEEED1Ev"
 "_ZN4stan4mcmc12dense_e_nutsIN30model_stan_boeck_ext_namespace20model_stan_boeck_extEN5boost6random23additive_combine_engineINS5_26linear_congruential_engineIjLj40014ELj0ELj2147483563EEENS7_IjLj40692ELj0ELj2147483399EEEEEED0Ev"
 "_ZN4stan4mcmc12dense_e_nutsIN30model_stan_boeck_ext_namespace20model_stan_boeck_extEN5boost6random23additive_combine_engineINS5_26linear_congruential_engineIjLj40014ELj0ELj2147483563EEENS7_IjLj40692ELj0ELj2147483399EEEEEED1Ev"
 "_ZN4stan4mcmc12dense_e_nutsIN31model_stan_boeck_2012_namespace21model_stan_boeck_2012EN5boost6random23additive_combine_engineINS5_26linear_congruential_engineIjLj40014ELj0ELj2147483563EEENS7_IjLj40692ELj0ELj2147483399EEEEEED0Ev"
 "_ZN4stan4mcmc12dense_e_nutsIN31model_stan_boeck_2012_namespace21model_stan_boeck_2012EN5boost6random23additive_combine_engineINS5_26linear_congruential_engineIjLj40014ELj0ELj2147483563EEENS7_IjLj40692ELj0ELj2147483399EEEEEED1Ev"
 "_ZN4stan4mcmc12dense_e_nutsIN31model_stan_boeck_ext2_namespace21model_stan_boeck_ext2EN5boost6random23additive_combine_engineINS5_26linear_congruential_engineIjLj40014ELj0ELj2147483563EEENS7_IjLj40692ELj0ELj2147483399EEEEEED0Ev"
 "_ZN4stan4mcmc12dense_e_nutsIN31model_stan_boeck_ext2_namespace21model_stan_boeck_ext2EN5boost6random23additive_combine_engineINS5_26linear_congruential_engineIjLj40014ELj0ELj2147483563EEENS7_IjLj40692ELj0ELj2147483399EEEEEED1Ev"
 "_ZN4stan4mcmc12dense_e_nutsIN32model_stan_boeck_shift_namespace22model_stan_boeck_shiftEN5boost6random23additive_combine_engineINS5_26linear_congruential_engineIjLj40014ELj0ELj2147483563EEENS7_IjLj40692ELj0ELj2147483399EEEEEED0Ev"
 "_ZN4stan4mcmc12dense_e_nutsIN32model_stan_boeck_shift_namespace22model_stan_boeck_shiftEN5boost6random23additive_combine_engineINS5_26linear_congruential_engineIjLj40014ELj0ELj2147483563EEENS7_IjLj40692ELj0ELj2147483399EEEEEED1Ev"
 "_ZN4stan4mcmc12dense_e_nutsIN33model_stan_boeck_ext_HH_namespace23model_stan_boeck_ext_HHEN5boost6random23additive_combine_engineINS5_26linear_congruential_engineIjLj40014ELj0ELj2147483563EEENS7_IjLj40692ELj0ELj2147483399EEEEEED0Ev"
 "_ZN4stan4mcmc12dense_e_nutsIN33model_stan_boeck_ext_HH_namespace23model_stan_boeck_ext_HHEN5boost6random23additive_combine_engineINS5_26linear_congruential_engineIjLj40014ELj0ELj2147483563EEENS7_IjLj40692ELj0ELj2147483399EEEEEED1Ev"
 "_ZN4stan4mcmc12diag_e_point12write_metricERNS_9callbacks6writerE"
 "_ZN4stan4mcmc12diag_e_pointC1Ei"
 "_ZN4stan4mcmc12write_metricERNS_9callbacks6writerE"
 "_ZN4stan4mcmc13base_leapfrogINS0_13diag_e_metricIN24model_stan_pcm_namespace14model_stan_pcmEN5boost6random23additive_combine_engineINS6_26linear_congruential_engineIjLj40014ELj0ELj2147483563EEENS8_IjLj40692ELj0ELj2147483399EEEEEEEE6evolveERNS0_12diag_e_pointERSC_dRNS_9callbacks6loggerE"
 "_ZN4stan4mcmc13base_leapfrogINS0_13diag_e_metricIN26model_stan_steps_namespace16model_stan_stepsEN5boost6random23additive_combine_engineINS6_26linear_congruential_engineIjLj40014ELj0ELj2147483563EEENS8_IjLj40692ELj0ELj2147483399EEEEEEEE6evolveERNS0_12diag_e_pointERSC_dRNS_9callbacks6loggerE"
 "_ZN4stan4mcmc13base_leapfrogINS0_13diag_e_metricIN30model_stan_boeck_ext_namespace20model_stan_boeck_extEN5boost6random23additive_combine_engineINS6_26linear_congruential_engineIjLj40014ELj0ELj2147483563EEENS8_IjLj40692ELj0ELj2147483399EEEEEEEE6evolveERNS0_12diag_e_pointERSC_dRNS_9callbacks6loggerE"
 "_ZN4stan4mcmc13base_leapfrogINS0_13diag_e_metricIN31model_stan_boeck_2012_namespace21model_stan_boeck_2012EN5boost6random23additive_combine_engineINS6_26linear_congruential_engineIjLj40014ELj0ELj2147483563EEENS8_IjLj40692ELj0ELj2147483399EEEEEEEE6evolveERNS0_12diag_e_pointERSC_dRNS_9callbacks6loggerE"
 "_ZN4stan4mcmc13base_leapfrogINS0_13diag_e_metricIN31model_stan_boeck_ext2_namespace21model_stan_boeck_ext2EN5boost6random23additive_combine_engineINS6_26linear_congruential_engineIjLj40014ELj0ELj2147483563EEENS8_IjLj40692ELj0ELj2147483399EEEEEEEE6evolveERNS0_12diag_e_pointERSC_dRNS_9callbacks6loggerE"
 "_ZN4stan4mcmc13base_leapfrogINS0_13diag_e_metricIN32model_stan_boeck_shift_namespace22model_stan_boeck_shiftEN5boost6random23additive_combine_engineINS6_26linear_congruential_engineIjLj40014ELj0ELj2147483563EEENS8_IjLj40692ELj0ELj2147483399EEEEEEEE6evolveERNS0_12diag_e_pointERSC_dRNS_9callbacks6loggerE"
 "_ZN4stan4mcmc13base_leapfrogINS0_13diag_e_metricIN33model_stan_boeck_ext_HH_namespace23model_stan_boeck_ext_HHEN5boost6random23additive_combine_engineINS6_26linear_congruential_engineIjLj40014ELj0ELj2147483563EEENS8_IjLj40692ELj0ELj2147483399EEEEEEEE6evolveERNS0_12diag_e_pointERSC_dRNS_9callbacks6loggerE"
 "_ZN4stan4mcmc13base_leapfrogINS0_13unit_e_metricIN24model_stan_pcm_namespace14model_stan_pcmEN5boost6random23additive_combine_engineINS6_26linear_congruential_engineIjLj40014ELj0ELj2147483563EEENS8_IjLj40692ELj0ELj2147483399EEEEEEEE6evolveERNS0_12unit_e_pointERSC_dRNS_9callbacks6loggerE"
 "_ZN4stan4mcmc13base_leapfrogINS0_13unit_e_metricIN26model_stan_steps_namespace16model_stan_stepsEN5boost6random23additive_combine_engineINS6_26linear_congruential_engineIjLj40014ELj0ELj2147483563EEENS8_IjLj40692ELj0ELj2147483399EEEEEEEE6evolveERNS0_12unit_e_pointERSC_dRNS_9callbacks6loggerE"
 "_ZN4stan4mcmc13base_leapfrogINS0_13unit_e_metricIN30model_stan_boeck_ext_namespace20model_stan_boeck_extEN5boost6random23additive_combine_engineINS6_26linear_congruential_engineIjLj40014ELj0ELj2147483563EEENS8_IjLj40692ELj0ELj2147483399EEEEEEEE6evolveERNS0_12unit_e_pointERSC_dRNS_9callbacks6loggerE"
 "_ZN4stan4mcmc13base_leapfrogINS0_13unit_e_metricIN31model_stan_boeck_2012_namespace21model_stan_boeck_2012EN5boost6random23additive_combine_engineINS6_26linear_congruential_engineIjLj40014ELj0ELj2147483563EEENS8_IjLj40692ELj0ELj2147483399EEEEEEEE6evolveERNS0_12unit_e_pointERSC_dRNS_9callbacks6loggerE"
 "_ZN4stan4mcmc13base_leapfrogINS0_13unit_e_metricIN31model_stan_boeck_ext2_namespace21model_stan_boeck_ext2EN5boost6random23additive_combine_engineINS6_26linear_congruential_engineIjLj40014ELj0ELj2147483563EEENS8_IjLj40692ELj0ELj2147483399EEEEEEEE6evolveERNS0_12unit_e_pointERSC_dRNS_9callbacks6loggerE"
 "_ZN4stan4mcmc13base_leapfrogINS0_13unit_e_metricIN32model_stan_boeck_shift_namespace22model_stan_boeck_shiftEN5boost6random23additive_combine_engineINS6_26linear_congruential_engineIjLj40014ELj0ELj2147483563EEENS8_IjLj40692ELj0ELj2147483399EEEEEEEE6evolveERNS0_12unit_e_pointERSC_dRNS_9callbacks6loggerE"
 "_ZN4stan4mcmc13base_leapfrogINS0_13unit_e_metricIN33model_stan_boeck_ext_HH_namespace23model_stan_boeck_ext_HHEN5boost6random23additive_combine_engineINS6_26linear_congruential_engineIjLj40014ELj0ELj2147483563EEENS8_IjLj40692ELj0ELj2147483399EEEEEEEE6evolveERNS0_12unit_e_pointERSC_dRNS_9callbacks6loggerE"
 "_ZN4stan4mcmc13base_leapfrogINS0_14dense_e_metricIN24model_stan_pcm_namespace14model_stan_pcmEN5boost6random23additive_combine_engineINS6_26linear_congruential_engineIjLj40014ELj0ELj2147483563EEENS8_IjLj40692ELj0ELj2147483399EEEEEEEE6evolveERNS0_13dense_e_pointERSC_dRNS_9callbacks6loggerE"
 "_ZN4stan4mcmc13base_leapfrogINS0_14dense_e_metricIN26model_stan_steps_namespace16model_stan_stepsEN5boost6random23additive_combine_engineINS6_26linear_congruential_engineIjLj40014ELj0ELj2147483563EEENS8_IjLj40692ELj0ELj2147483399EEEEEEEE6evolveERNS0_13dense_e_pointERSC_dRNS_9callbacks6loggerE"
 "_ZN4stan4mcmc13base_leapfrogINS0_14dense_e_metricIN30model_stan_boeck_ext_namespace20model_stan_boeck_extEN5boost6random23additive_combine_engineINS6_26linear_congruential_engineIjLj40014ELj0ELj2147483563EEENS8_IjLj40692ELj0ELj2147483399EEEEEEEE6evolveERNS0_13dense_e_pointERSC_dRNS_9callbacks6loggerE"
 "_ZN4stan4mcmc13base_leapfrogINS0_14dense_e_metricIN31model_stan_boeck_2012_namespace21model_stan_boeck_2012EN5boost6random23additive_combine_engineINS6_26linear_congruential_engineIjLj40014ELj0ELj2147483563EEENS8_IjLj40692ELj0ELj2147483399EEEEEEEE6evolveERNS0_13dense_e_pointERSC_dRNS_9callbacks6loggerE"
 "_ZN4stan4mcmc13base_leapfrogINS0_14dense_e_metricIN31model_stan_boeck_ext2_namespace21model_stan_boeck_ext2EN5boost6random23additive_combine_engineINS6_26linear_congruential_engineIjLj40014ELj0ELj2147483563EEENS8_IjLj40692ELj0ELj2147483399EEEEEEEE6evolveERNS0_13dense_e_pointERSC_dRNS_9callbacks6loggerE"
 "_ZN4stan4mcmc13base_leapfrogINS0_14dense_e_metricIN32model_stan_boeck_shift_namespace22model_stan_boeck_shiftEN5boost6random23additive_combine_engineINS6_26linear_congruential_engineIjLj40014ELj0ELj2147483563EEENS8_IjLj40692ELj0ELj2147483399EEEEEEEE6evolveERNS0_13dense_e_pointERSC_dRNS_9callbacks6loggerE"
 "_ZN4stan4mcmc13base_leapfrogINS0_14dense_e_metricIN33model_stan_boeck_ext_HH_namespace23model_stan_boeck_ext_HHEN5boost6random23additive_combine_engineINS6_26linear_congruential_engineIjLj40014ELj0ELj2147483563EEENS8_IjLj40692ELj0ELj2147483399EEEEEEEE6evolveERNS0_13dense_e_pointERSC_dRNS_9callbacks6loggerE"
 "_ZN4stan4mcmc13dense_e_point12write_metricERNS_9callbacks6writerE"
 "_ZN4stan4mcmc13dense_e_pointC1Ei"
 "_ZN4stan4mcmc13diag_e_metricIN24model_stan_pcm_namespace14model_stan_pcmEN5boost6random23additive_combine_engineINS5_26linear_congruential_engineIjLj40014ELj0ELj2147483563EEENS7_IjLj40692ELj0ELj2147483399EEEEEE1TERNS0_12diag_e_pointE"
 "_ZN4stan4mcmc13diag_e_metricIN24model_stan_pcm_namespace14model_stan_pcmEN5boost6random23additive_combine_engineINS5_26linear_congruential_engineIjLj40014ELj0ELj2147483563EEENS7_IjLj40692ELj0ELj2147483399EEEEEE3phiERNS0_12diag_e_pointE"
 "_ZN4stan4mcmc13diag_e_metricIN24model_stan_pcm_namespace14model_stan_pcmEN5boost6random23additive_combine_engineINS5_26linear_congruential_engineIjLj40014ELj0ELj2147483563EEENS7_IjLj40692ELj0ELj2147483399EEEEEE3tauERNS0_12diag_e_pointE"
 "_ZN4stan4mcmc13diag_e_metricIN24model_stan_pcm_namespace14model_stan_pcmEN5boost6random23additive_combine_engineINS5_26linear_congruential_engineIjLj40014ELj0ELj2147483563EEENS7_IjLj40692ELj0ELj2147483399EEEEEE5dG_dtERNS0_12diag_e_pointERNS_9callbacks6loggerE"
 "_ZN4stan4mcmc13diag_e_metricIN24model_stan_pcm_namespace14model_stan_pcmEN5boost6random23additive_combine_engineINS5_26linear_congruential_engineIjLj40014ELj0ELj2147483563EEENS7_IjLj40692ELj0ELj2147483399EEEEEE7dphi_dqERNS0_12diag_e_pointERNS_9callbacks6loggerE"
 "_ZN4stan4mcmc13diag_e_metricIN24model_stan_pcm_namespace14model_stan_pcmEN5boost6random23additive_combine_engineINS5_26linear_congruential_engineIjLj40014ELj0ELj2147483563EEENS7_IjLj40692ELj0ELj2147483399EEEEEE7dtau_dpERNS0_12diag_e_pointE"
 "_ZN4stan4mcmc13diag_e_metricIN24model_stan_pcm_namespace14model_stan_pcmEN5boost6random23additive_combine_engineINS5_26linear_congruential_engineIjLj40014ELj0ELj2147483563EEENS7_IjLj40692ELj0ELj2147483399EEEEEE7dtau_dqERNS0_12diag_e_pointERNS_9callbacks6loggerE"
 "_ZN4stan4mcmc13diag_e_metricIN24model_stan_pcm_namespace14model_stan_pcmEN5boost6random23additive_combine_engineINS5_26linear_congruential_engineIjLj40014ELj0ELj2147483563EEENS7_IjLj40692ELj0ELj2147483399EEEEEE8sample_pERNS0_12diag_e_pointERSA_"
 "_ZN4stan4mcmc13diag_e_metricIN26model_stan_steps_namespace16model_stan_stepsEN5boost6random23additive_combine_engineINS5_26linear_congruential_engineIjLj40014ELj0ELj2147483563EEENS7_IjLj40692ELj0ELj2147483399EEEEEE1TERNS0_12diag_e_pointE"
 "_ZN4stan4mcmc13diag_e_metricIN26model_stan_steps_namespace16model_stan_stepsEN5boost6random23additive_combine_engineINS5_26linear_congruential_engineIjLj40014ELj0ELj2147483563EEENS7_IjLj40692ELj0ELj2147483399EEEEEE3phiERNS0_12diag_e_pointE"
 "_ZN4stan4mcmc13diag_e_metricIN26model_stan_steps_namespace16model_stan_stepsEN5boost6random23additive_combine_engineINS5_26linear_congruential_engineIjLj40014ELj0ELj2147483563EEENS7_IjLj40692ELj0ELj2147483399EEEEEE3tauERNS0_12diag_e_pointE"
 "_ZN4stan4mcmc13diag_e_metricIN26model_stan_steps_namespace16model_stan_stepsEN5boost6random23additive_combine_engineINS5_26linear_congruential_engineIjLj40014ELj0ELj2147483563EEENS7_IjLj40692ELj0ELj2147483399EEEEEE5dG_dtERNS0_12diag_e_pointERNS_9callbacks6loggerE"
 "_ZN4stan4mcmc13diag_e_metricIN26model_stan_steps_namespace16model_stan_stepsEN5boost6random23additive_combine_engineINS5_26linear_congruential_engineIjLj40014ELj0ELj2147483563EEENS7_IjLj40692ELj0ELj2147483399EEEEEE7dphi_dqERNS0_12diag_e_pointERNS_9callbacks6loggerE"
 "_ZN4stan4mcmc13diag_e_metricIN26model_stan_steps_namespace16model_stan_stepsEN5boost6random23additive_combine_engineINS5_26linear_congruential_engineIjLj40014ELj0ELj2147483563EEENS7_IjLj40692ELj0ELj2147483399EEEEEE7dtau_dpERNS0_12diag_e_pointE"
 "_ZN4stan4mcmc13diag_e_metricIN26model_stan_steps_namespace16model_stan_stepsEN5boost6random23additive_combine_engineINS5_26linear_congruential_engineIjLj40014ELj0ELj2147483563EEENS7_IjLj40692ELj0ELj2147483399EEEEEE7dtau_dqERNS0_12diag_e_pointERNS_9callbacks6loggerE"
 "_ZN4stan4mcmc13diag_e_metricIN26model_stan_steps_namespace16model_stan_stepsEN5boost6random23additive_combine_engineINS5_26linear_congruential_engineIjLj40014ELj0ELj2147483563EEENS7_IjLj40692ELj0ELj2147483399EEEEEE8sample_pERNS0_12diag_e_pointERSA_"
 "_ZN4stan4mcmc13diag_e_metricIN30model_stan_boeck_ext_namespace20model_stan_boeck_extEN5boost6random23additive_combine_engineINS5_26linear_congruential_engineIjLj40014ELj0ELj2147483563EEENS7_IjLj40692ELj0ELj2147483399EEEEEE1TERNS0_12diag_e_pointE"
 "_ZN4stan4mcmc13diag_e_metricIN30model_stan_boeck_ext_namespace20model_stan_boeck_extEN5boost6random23additive_combine_engineINS5_26linear_congruential_engineIjLj40014ELj0ELj2147483563EEENS7_IjLj40692ELj0ELj2147483399EEEEEE3phiERNS0_12diag_e_pointE"
 "_ZN4stan4mcmc13diag_e_metricIN30model_stan_boeck_ext_namespace20model_stan_boeck_extEN5boost6random23additive_combine_engineINS5_26linear_congruential_engineIjLj40014ELj0ELj2147483563EEENS7_IjLj40692ELj0ELj2147483399EEEEEE3tauERNS0_12diag_e_pointE"
 "_ZN4stan4mcmc13diag_e_metricIN30model_stan_boeck_ext_namespace20model_stan_boeck_extEN5boost6random23additive_combine_engineINS5_26linear_congruential_engineIjLj40014ELj0ELj2147483563EEENS7_IjLj40692ELj0ELj2147483399EEEEEE5dG_dtERNS0_12diag_e_pointERNS_9callbacks6loggerE"
 "_ZN4stan4mcmc13diag_e_metricIN30model_stan_boeck_ext_namespace20model_stan_boeck_extEN5boost6random23additive_combine_engineINS5_26linear_congruential_engineIjLj40014ELj0ELj2147483563EEENS7_IjLj40692ELj0ELj2147483399EEEEEE7dphi_dqERNS0_12diag_e_pointERNS_9callbacks6loggerE"
 "_ZN4stan4mcmc13diag_e_metricIN30model_stan_boeck_ext_namespace20model_stan_boeck_extEN5boost6random23additive_combine_engineINS5_26linear_congruential_engineIjLj40014ELj0ELj2147483563EEENS7_IjLj40692ELj0ELj2147483399EEEEEE7dtau_dpERNS0_12diag_e_pointE"
 "_ZN4stan4mcmc13diag_e_metricIN30model_stan_boeck_ext_namespace20model_stan_boeck_extEN5boost6random23additive_combine_engineINS5_26linear_congruential_engineIjLj40014ELj0ELj2147483563EEENS7_IjLj40692ELj0ELj2147483399EEEEEE7dtau_dqERNS0_12diag_e_pointERNS_9callbacks6loggerE"
 "_ZN4stan4mcmc13diag_e_metricIN30model_stan_boeck_ext_namespace20model_stan_boeck_extEN5boost6random23additive_combine_engineINS5_26linear_congruential_engineIjLj40014ELj0ELj2147483563EEENS7_IjLj40692ELj0ELj2147483399EEEEEE8sample_pERNS0_12diag_e_pointERSA_"
 "_ZN4stan4mcmc13diag_e_metricIN31model_stan_boeck_2012_namespace21model_stan_boeck_2012EN5boost6random23additive_combine_engineINS5_26linear_congruential_engineIjLj40014ELj0ELj2147483563EEENS7_IjLj40692ELj0ELj2147483399EEEEEE1TERNS0_12diag_e_pointE"
 "_ZN4stan4mcmc13diag_e_metricIN31model_stan_boeck_2012_namespace21model_stan_boeck_2012EN5boost6random23additive_combine_engineINS5_26linear_congruential_engineIjLj40014ELj0ELj2147483563EEENS7_IjLj40692ELj0ELj2147483399EEEEEE3phiERNS0_12diag_e_pointE"
 "_ZN4stan4mcmc13diag_e_metricIN31model_stan_boeck_2012_namespace21model_stan_boeck_2012EN5boost6random23additive_combine_engineINS5_26linear_congruential_engineIjLj40014ELj0ELj2147483563EEENS7_IjLj40692ELj0ELj2147483399EEEEEE3tauERNS0_12diag_e_pointE"
 "_ZN4stan4mcmc13diag_e_metricIN31model_stan_boeck_2012_namespace21model_stan_boeck_2012EN5boost6random23additive_combine_engineINS5_26linear_congruential_engineIjLj40014ELj0ELj2147483563EEENS7_IjLj40692ELj0ELj2147483399EEEEEE5dG_dtERNS0_12diag_e_pointERNS_9callbacks6loggerE"
 "_ZN4stan4mcmc13diag_e_metricIN31model_stan_boeck_2012_namespace21model_stan_boeck_2012EN5boost6random23additive_combine_engineINS5_26linear_congruential_engineIjLj40014ELj0ELj2147483563EEENS7_IjLj40692ELj0ELj2147483399EEEEEE7dphi_dqERNS0_12diag_e_pointERNS_9callbacks6loggerE"
 "_ZN4stan4mcmc13diag_e_metricIN31model_stan_boeck_2012_namespace21model_stan_boeck_2012EN5boost6random23additive_combine_engineINS5_26linear_congruential_engineIjLj40014ELj0ELj2147483563EEENS7_IjLj40692ELj0ELj2147483399EEEEEE7dtau_dpERNS0_12diag_e_pointE"
 "_ZN4stan4mcmc13diag_e_metricIN31model_stan_boeck_2012_namespace21model_stan_boeck_2012EN5boost6random23additive_combine_engineINS5_26linear_congruential_engineIjLj40014ELj0ELj2147483563EEENS7_IjLj40692ELj0ELj2147483399EEEEEE7dtau_dqERNS0_12diag_e_pointERNS_9callbacks6loggerE"
 "_ZN4stan4mcmc13diag_e_metricIN31model_stan_boeck_2012_namespace21model_stan_boeck_2012EN5boost6random23additive_combine_engineINS5_26linear_congruential_engineIjLj40014ELj0ELj2147483563EEENS7_IjLj40692ELj0ELj2147483399EEEEEE8sample_pERNS0_12diag_e_pointERSA_"
 "_ZN4stan4mcmc13diag_e_metricIN31model_stan_boeck_ext2_namespace21model_stan_boeck_ext2EN5boost6random23additive_combine_engineINS5_26linear_congruential_engineIjLj40014ELj0ELj2147483563EEENS7_IjLj40692ELj0ELj2147483399EEEEEE1TERNS0_12diag_e_pointE"
 "_ZN4stan4mcmc13diag_e_metricIN31model_stan_boeck_ext2_namespace21model_stan_boeck_ext2EN5boost6random23additive_combine_engineINS5_26linear_congruential_engineIjLj40014ELj0ELj2147483563EEENS7_IjLj40692ELj0ELj2147483399EEEEEE3phiERNS0_12diag_e_pointE"
 "_ZN4stan4mcmc13diag_e_metricIN31model_stan_boeck_ext2_namespace21model_stan_boeck_ext2EN5boost6random23additive_combine_engineINS5_26linear_congruential_engineIjLj40014ELj0ELj2147483563EEENS7_IjLj40692ELj0ELj2147483399EEEEEE3tauERNS0_12diag_e_pointE"
 "_ZN4stan4mcmc13diag_e_metricIN31model_stan_boeck_ext2_namespace21model_stan_boeck_ext2EN5boost6random23additive_combine_engineINS5_26linear_congruential_engineIjLj40014ELj0ELj2147483563EEENS7_IjLj40692ELj0ELj2147483399EEEEEE5dG_dtERNS0_12diag_e_pointERNS_9callbacks6loggerE"
 "_ZN4stan4mcmc13diag_e_metricIN31model_stan_boeck_ext2_namespace21model_stan_boeck_ext2EN5boost6random23additive_combine_engineINS5_26linear_congruential_engineIjLj40014ELj0ELj2147483563EEENS7_IjLj40692ELj0ELj2147483399EEEEEE7dphi_dqERNS0_12diag_e_pointERNS_9callbacks6loggerE"
 "_ZN4stan4mcmc13diag_e_metricIN31model_stan_boeck_ext2_namespace21model_stan_boeck_ext2EN5boost6random23additive_combine_engineINS5_26linear_congruential_engineIjLj40014ELj0ELj2147483563EEENS7_IjLj40692ELj0ELj2147483399EEEEEE7dtau_dpERNS0_12diag_e_pointE"
 "_ZN4stan4mcmc13diag_e_metricIN31model_stan_boeck_ext2_namespace21model_stan_boeck_ext2EN5boost6random23additive_combine_engineINS5_26linear_congruential_engineIjLj40014ELj0ELj2147483563EEENS7_IjLj40692ELj0ELj2147483399EEEEEE7dtau_dqERNS0_12diag_e_pointERNS_9callbacks6loggerE"
 "_ZN4stan4mcmc13diag_e_metricIN31model_stan_boeck_ext2_namespace21model_stan_boeck_ext2EN5boost6random23additive_combine_engineINS5_26linear_congruential_engineIjLj40014ELj0ELj2147483563EEENS7_IjLj40692ELj0ELj2147483399EEEEEE8sample_pERNS0_12diag_e_pointERSA_"
 "_ZN4stan4mcmc13diag_e_metricIN32model_stan_boeck_shift_namespace22model_stan_boeck_shiftEN5boost6random23additive_combine_engineINS5_26linear_congruential_engineIjLj40014ELj0ELj2147483563EEENS7_IjLj40692ELj0ELj2147483399EEEEEE1TERNS0_12diag_e_pointE"
 "_ZN4stan4mcmc13diag_e_metricIN32model_stan_boeck_shift_namespace22model_stan_boeck_shiftEN5boost6random23additive_combine_engineINS5_26linear_congruential_engineIjLj40014ELj0ELj2147483563EEENS7_IjLj40692ELj0ELj2147483399EEEEEE3phiERNS0_12diag_e_pointE"
 "_ZN4stan4mcmc13diag_e_metricIN32model_stan_boeck_shift_namespace22model_stan_boeck_shiftEN5boost6random23additive_combine_engineINS5_26linear_congruential_engineIjLj40014ELj0ELj2147483563EEENS7_IjLj40692ELj0ELj2147483399EEEEEE3tauERNS0_12diag_e_pointE"
 "_ZN4stan4mcmc13diag_e_metricIN32model_stan_boeck_shift_namespace22model_stan_boeck_shiftEN5boost6random23additive_combine_engineINS5_26linear_congruential_engineIjLj40014ELj0ELj2147483563EEENS7_IjLj40692ELj0ELj2147483399EEEEEE5dG_dtERNS0_12diag_e_pointERNS_9callbacks6loggerE"
 "_ZN4stan4mcmc13diag_e_metricIN32model_stan_boeck_shift_namespace22model_stan_boeck_shiftEN5boost6random23additive_combine_engineINS5_26linear_congruential_engineIjLj40014ELj0ELj2147483563EEENS7_IjLj40692ELj0ELj2147483399EEEEEE7dphi_dqERNS0_12diag_e_pointERNS_9callbacks6loggerE"
 "_ZN4stan4mcmc13diag_e_metricIN32model_stan_boeck_shift_namespace22model_stan_boeck_shiftEN5boost6random23additive_combine_engineINS5_26linear_congruential_engineIjLj40014ELj0ELj2147483563EEENS7_IjLj40692ELj0ELj2147483399EEEEEE7dtau_dpERNS0_12diag_e_pointE"
 "_ZN4stan4mcmc13diag_e_metricIN32model_stan_boeck_shift_namespace22model_stan_boeck_shiftEN5boost6random23additive_combine_engineINS5_26linear_congruential_engineIjLj40014ELj0ELj2147483563EEENS7_IjLj40692ELj0ELj2147483399EEEEEE7dtau_dqERNS0_12diag_e_pointERNS_9callbacks6loggerE"
 "_ZN4stan4mcmc13diag_e_metricIN32model_stan_boeck_shift_namespace22model_stan_boeck_shiftEN5boost6random23additive_combine_engineINS5_26linear_congruential_engineIjLj40014ELj0ELj2147483563EEENS7_IjLj40692ELj0ELj2147483399EEEEEE8sample_pERNS0_12diag_e_pointERSA_"
 "_ZN4stan4mcmc13diag_e_metricIN33model_stan_boeck_ext_HH_namespace23model_stan_boeck_ext_HHEN5boost6random23additive_combine_engineINS5_26linear_congruential_engineIjLj40014ELj0ELj2147483563EEENS7_IjLj40692ELj0ELj2147483399EEEEEE1TERNS0_12diag_e_pointE"
 "_ZN4stan4mcmc13diag_e_metricIN33model_stan_boeck_ext_HH_namespace23model_stan_boeck_ext_HHEN5boost6random23additive_combine_engineINS5_26linear_congruential_engineIjLj40014ELj0ELj2147483563EEENS7_IjLj40692ELj0ELj2147483399EEEEEE3phiERNS0_12diag_e_pointE"
 "_ZN4stan4mcmc13diag_e_metricIN33model_stan_boeck_ext_HH_namespace23model_stan_boeck_ext_HHEN5boost6random23additive_combine_engineINS5_26linear_congruential_engineIjLj40014ELj0ELj2147483563EEENS7_IjLj40692ELj0ELj2147483399EEEEEE3tauERNS0_12diag_e_pointE"
 "_ZN4stan4mcmc13diag_e_metricIN33model_stan_boeck_ext_HH_namespace23model_stan_boeck_ext_HHEN5boost6random23additive_combine_engineINS5_26linear_congruential_engineIjLj40014ELj0ELj2147483563EEENS7_IjLj40692ELj0ELj2147483399EEEEEE5dG_dtERNS0_12diag_e_pointERNS_9callbacks6loggerE"
 "_ZN4stan4mcmc13diag_e_metricIN33model_stan_boeck_ext_HH_namespace23model_stan_boeck_ext_HHEN5boost6random23additive_combine_engineINS5_26linear_congruential_engineIjLj40014ELj0ELj2147483563EEENS7_IjLj40692ELj0ELj2147483399EEEEEE7dphi_dqERNS0_12diag_e_pointERNS_9callbacks6loggerE"
 "_ZN4stan4mcmc13diag_e_metricIN33model_stan_boeck_ext_HH_namespace23model_stan_boeck_ext_HHEN5boost6random23additive_combine_engineINS5_26linear_congruential_engineIjLj40014ELj0ELj2147483563EEENS7_IjLj40692ELj0ELj2147483399EEEEEE7dtau_dpERNS0_12diag_e_pointE"
 "_ZN4stan4mcmc13diag_e_metricIN33model_stan_boeck_ext_HH_namespace23model_stan_boeck_ext_HHEN5boost6random23additive_combine_engineINS5_26linear_congruential_engineIjLj40014ELj0ELj2147483563EEENS7_IjLj40692ELj0ELj2147483399EEEEEE7dtau_dqERNS0_12diag_e_pointERNS_9callbacks6loggerE"
 "_ZN4stan4mcmc13diag_e_metricIN33model_stan_boeck_ext_HH_namespace23model_stan_boeck_ext_HHEN5boost6random23additive_combine_engineINS5_26linear_congruential_engineIjLj40014ELj0ELj2147483563EEENS7_IjLj40692ELj0ELj2147483399EEEEEE8sample_pERNS0_12diag_e_pointERSA_"
 "_ZN4stan4mcmc13expl_leapfrogINS0_13diag_e_metricIN24model_stan_pcm_namespace14model_stan_pcmEN5boost6random23additive_combine_engineINS6_26linear_congruential_engineIjLj40014ELj0ELj2147483563EEENS8_IjLj40692ELj0ELj2147483399EEEEEEEE12end_update_pERNS0_12diag_e_pointERSC_dRNS_9callbacks6loggerE"
 "_ZN4stan4mcmc13expl_leapfrogINS0_13diag_e_metricIN24model_stan_pcm_namespace14model_stan_pcmEN5boost6random23additive_combine_engineINS6_26linear_congruential_engineIjLj40014ELj0ELj2147483563EEENS8_IjLj40692ELj0ELj2147483399EEEEEEEE14begin_update_pERNS0_12diag_e_pointERSC_dRNS_9callbacks6loggerE"
 "_ZN4stan4mcmc13expl_leapfrogINS0_13diag_e_metricIN24model_stan_pcm_namespace14model_stan_pcmEN5boost6random23additive_combine_engineINS6_26linear_congruential_engineIjLj40014ELj0ELj2147483563EEENS8_IjLj40692ELj0ELj2147483399EEEEEEEE8update_qERNS0_12diag_e_pointERSC_dRNS_9callbacks6loggerE"
 "_ZN4stan4mcmc13expl_leapfrogINS0_13diag_e_metricIN26model_stan_steps_namespace16model_stan_stepsEN5boost6random23additive_combine_engineINS6_26linear_congruential_engineIjLj40014ELj0ELj2147483563EEENS8_IjLj40692ELj0ELj2147483399EEEEEEEE12end_update_pERNS0_12diag_e_pointERSC_dRNS_9callbacks6loggerE"
 "_ZN4stan4mcmc13expl_leapfrogINS0_13diag_e_metricIN26model_stan_steps_namespace16model_stan_stepsEN5boost6random23additive_combine_engineINS6_26linear_congruential_engineIjLj40014ELj0ELj2147483563EEENS8_IjLj40692ELj0ELj2147483399EEEEEEEE14begin_update_pERNS0_12diag_e_pointERSC_dRNS_9callbacks6loggerE"
 "_ZN4stan4mcmc13expl_leapfrogINS0_13diag_e_metricIN26model_stan_steps_namespace16model_stan_stepsEN5boost6random23additive_combine_engineINS6_26linear_congruential_engineIjLj40014ELj0ELj2147483563EEENS8_IjLj40692ELj0ELj2147483399EEEEEEEE8update_qERNS0_12diag_e_pointERSC_dRNS_9callbacks6loggerE"
 "_ZN4stan4mcmc13expl_leapfrogINS0_13diag_e_metricIN30model_stan_boeck_ext_namespace20model_stan_boeck_extEN5boost6random23additive_combine_engineINS6_26linear_congruential_engineIjLj40014ELj0ELj2147483563EEENS8_IjLj40692ELj0ELj2147483399EEEEEEEE12end_update_pERNS0_12diag_e_pointERSC_dRNS_9callbacks6loggerE"
 "_ZN4stan4mcmc13expl_leapfrogINS0_13diag_e_metricIN30model_stan_boeck_ext_namespace20model_stan_boeck_extEN5boost6random23additive_combine_engineINS6_26linear_congruential_engineIjLj40014ELj0ELj2147483563EEENS8_IjLj40692ELj0ELj2147483399EEEEEEEE14begin_update_pERNS0_12diag_e_pointERSC_dRNS_9callbacks6loggerE"
 "_ZN4stan4mcmc13expl_leapfrogINS0_13diag_e_metricIN30model_stan_boeck_ext_namespace20model_stan_boeck_extEN5boost6random23additive_combine_engineINS6_26linear_congruential_engineIjLj40014ELj0ELj2147483563EEENS8_IjLj40692ELj0ELj2147483399EEEEEEEE8update_qERNS0_12diag_e_pointERSC_dRNS_9callbacks6loggerE"
 "_ZN4stan4mcmc13expl_leapfrogINS0_13diag_e_metricIN31model_stan_boeck_2012_namespace21model_stan_boeck_2012EN5boost6random23additive_combine_engineINS6_26linear_congruential_engineIjLj40014ELj0ELj2147483563EEENS8_IjLj40692ELj0ELj2147483399EEEEEEEE12end_update_pERNS0_12diag_e_pointERSC_dRNS_9callbacks6loggerE"
 "_ZN4stan4mcmc13expl_leapfrogINS0_13diag_e_metricIN31model_stan_boeck_2012_namespace21model_stan_boeck_2012EN5boost6random23additive_combine_engineINS6_26linear_congruential_engineIjLj40014ELj0ELj2147483563EEENS8_IjLj40692ELj0ELj2147483399EEEEEEEE14begin_update_pERNS0_12diag_e_pointERSC_dRNS_9callbacks6loggerE"
 "_ZN4stan4mcmc13expl_leapfrogINS0_13diag_e_metricIN31model_stan_boeck_2012_namespace21model_stan_boeck_2012EN5boost6random23additive_combine_engineINS6_26linear_congruential_engineIjLj40014ELj0ELj2147483563EEENS8_IjLj40692ELj0ELj2147483399EEEEEEEE8update_qERNS0_12diag_e_pointERSC_dRNS_9callbacks6loggerE"
 "_ZN4stan4mcmc13expl_leapfrogINS0_13diag_e_metricIN31model_stan_boeck_ext2_namespace21model_stan_boeck_ext2EN5boost6random23additive_combine_engineINS6_26linear_congruential_engineIjLj40014ELj0ELj2147483563EEENS8_IjLj40692ELj0ELj2147483399EEEEEEEE12end_update_pERNS0_12diag_e_pointERSC_dRNS_9callbacks6loggerE"
 "_ZN4stan4mcmc13expl_leapfrogINS0_13diag_e_metricIN31model_stan_boeck_ext2_namespace21model_stan_boeck_ext2EN5boost6random23additive_combine_engineINS6_26linear_congruential_engineIjLj40014ELj0ELj2147483563EEENS8_IjLj40692ELj0ELj2147483399EEEEEEEE14begin_update_pERNS0_12diag_e_pointERSC_dRNS_9callbacks6loggerE"
 "_ZN4stan4mcmc13expl_leapfrogINS0_13diag_e_metricIN31model_stan_boeck_ext2_namespace21model_stan_boeck_ext2EN5boost6random23additive_combine_engineINS6_26linear_congruential_engineIjLj40014ELj0ELj2147483563EEENS8_IjLj40692ELj0ELj2147483399EEEEEEEE8update_qERNS0_12diag_e_pointERSC_dRNS_9callbacks6loggerE"
 "_ZN4stan4mcmc13expl_leapfrogINS0_13diag_e_metricIN32model_stan_boeck_shift_namespace22model_stan_boeck_shiftEN5boost6random23additive_combine_engineINS6_26linear_congruential_engineIjLj40014ELj0ELj2147483563EEENS8_IjLj40692ELj0ELj2147483399EEEEEEEE12end_update_pERNS0_12diag_e_pointERSC_dRNS_9callbacks6loggerE"
 "_ZN4stan4mcmc13expl_leapfrogINS0_13diag_e_metricIN32model_stan_boeck_shift_namespace22model_stan_boeck_shiftEN5boost6random23additive_combine_engineINS6_26linear_congruential_engineIjLj40014ELj0ELj2147483563EEENS8_IjLj40692ELj0ELj2147483399EEEEEEEE14begin_update_pERNS0_12diag_e_pointERSC_dRNS_9callbacks6loggerE"
 "_ZN4stan4mcmc13expl_leapfrogINS0_13diag_e_metricIN32model_stan_boeck_shift_namespace22model_stan_boeck_shiftEN5boost6random23additive_combine_engineINS6_26linear_congruential_engineIjLj40014ELj0ELj2147483563EEENS8_IjLj40692ELj0ELj2147483399EEEEEEEE8update_qERNS0_12diag_e_pointERSC_dRNS_9callbacks6loggerE"
 "_ZN4stan4mcmc13expl_leapfrogINS0_13diag_e_metricIN33model_stan_boeck_ext_HH_namespace23model_stan_boeck_ext_HHEN5boost6random23additive_combine_engineINS6_26linear_congruential_engineIjLj40014ELj0ELj2147483563EEENS8_IjLj40692ELj0ELj2147483399EEEEEEEE12end_update_pERNS0_12diag_e_pointERSC_dRNS_9callbacks6loggerE"
 "_ZN4stan4mcmc13expl_leapfrogINS0_13diag_e_metricIN33model_stan_boeck_ext_HH_namespace23model_stan_boeck_ext_HHEN5boost6random23additive_combine_engineINS6_26linear_congruential_engineIjLj40014ELj0ELj2147483563EEENS8_IjLj40692ELj0ELj2147483399EEEEEEEE14begin_update_pERNS0_12diag_e_pointERSC_dRNS_9callbacks6loggerE"
 "_ZN4stan4mcmc13expl_leapfrogINS0_13diag_e_metricIN33model_stan_boeck_ext_HH_namespace23model_stan_boeck_ext_HHEN5boost6random23additive_combine_engineINS6_26linear_congruential_engineIjLj40014ELj0ELj2147483563EEENS8_IjLj40692ELj0ELj2147483399EEEEEEEE8update_qERNS0_12diag_e_pointERSC_dRNS_9callbacks6loggerE"
 "_ZN4stan4mcmc13expl_leapfrogINS0_13unit_e_metricIN24model_stan_pcm_namespace14model_stan_pcmEN5boost6random23additive_combine_engineINS6_26linear_congruential_engineIjLj40014ELj0ELj2147483563EEENS8_IjLj40692ELj0ELj2147483399EEEEEEEE12end_update_pERNS0_12unit_e_pointERSC_dRNS_9callbacks6loggerE"
 "_ZN4stan4mcmc13expl_leapfrogINS0_13unit_e_metricIN24model_stan_pcm_namespace14model_stan_pcmEN5boost6random23additive_combine_engineINS6_26linear_congruential_engineIjLj40014ELj0ELj2147483563EEENS8_IjLj40692ELj0ELj2147483399EEEEEEEE14begin_update_pERNS0_12unit_e_pointERSC_dRNS_9callbacks6loggerE"
 "_ZN4stan4mcmc13expl_leapfrogINS0_13unit_e_metricIN24model_stan_pcm_namespace14model_stan_pcmEN5boost6random23additive_combine_engineINS6_26linear_congruential_engineIjLj40014ELj0ELj2147483563EEENS8_IjLj40692ELj0ELj2147483399EEEEEEEE8update_qERNS0_12unit_e_pointERSC_dRNS_9callbacks6loggerE"
 "_ZN4stan4mcmc13expl_leapfrogINS0_13unit_e_metricIN26model_stan_steps_namespace16model_stan_stepsEN5boost6random23additive_combine_engineINS6_26linear_congruential_engineIjLj40014ELj0ELj2147483563EEENS8_IjLj40692ELj0ELj2147483399EEEEEEEE12end_update_pERNS0_12unit_e_pointERSC_dRNS_9callbacks6loggerE"
 "_ZN4stan4mcmc13expl_leapfrogINS0_13unit_e_metricIN26model_stan_steps_namespace16model_stan_stepsEN5boost6random23additive_combine_engineINS6_26linear_congruential_engineIjLj40014ELj0ELj2147483563EEENS8_IjLj40692ELj0ELj2147483399EEEEEEEE14begin_update_pERNS0_12unit_e_pointERSC_dRNS_9callbacks6loggerE"
 "_ZN4stan4mcmc13expl_leapfrogINS0_13unit_e_metricIN26model_stan_steps_namespace16model_stan_stepsEN5boost6random23additive_combine_engineINS6_26linear_congruential_engineIjLj40014ELj0ELj2147483563EEENS8_IjLj40692ELj0ELj2147483399EEEEEEEE8update_qERNS0_12unit_e_pointERSC_dRNS_9callbacks6loggerE"
 "_ZN4stan4mcmc13expl_leapfrogINS0_13unit_e_metricIN30model_stan_boeck_ext_namespace20model_stan_boeck_extEN5boost6random23additive_combine_engineINS6_26linear_congruential_engineIjLj40014ELj0ELj2147483563EEENS8_IjLj40692ELj0ELj2147483399EEEEEEEE12end_update_pERNS0_12unit_e_pointERSC_dRNS_9callbacks6loggerE"
 "_ZN4stan4mcmc13expl_leapfrogINS0_13unit_e_metricIN30model_stan_boeck_ext_namespace20model_stan_boeck_extEN5boost6random23additive_combine_engineINS6_26linear_congruential_engineIjLj40014ELj0ELj2147483563EEENS8_IjLj40692ELj0ELj2147483399EEEEEEEE14begin_update_pERNS0_12unit_e_pointERSC_dRNS_9callbacks6loggerE"
 "_ZN4stan4mcmc13expl_leapfrogINS0_13unit_e_metricIN30model_stan_boeck_ext_namespace20model_stan_boeck_extEN5boost6random23additive_combine_engineINS6_26linear_congruential_engineIjLj40014ELj0ELj2147483563EEENS8_IjLj40692ELj0ELj2147483399EEEEEEEE8update_qERNS0_12unit_e_pointERSC_dRNS_9callbacks6loggerE"
 "_ZN4stan4mcmc13expl_leapfrogINS0_13unit_e_metricIN31model_stan_boeck_2012_namespace21model_stan_boeck_2012EN5boost6random23additive_combine_engineINS6_26linear_congruential_engineIjLj40014ELj0ELj2147483563EEENS8_IjLj40692ELj0ELj2147483399EEEEEEEE12end_update_pERNS0_12unit_e_pointERSC_dRNS_9callbacks6loggerE"
 "_ZN4stan4mcmc13expl_leapfrogINS0_13unit_e_metricIN31model_stan_boeck_2012_namespace21model_stan_boeck_2012EN5boost6random23additive_combine_engineINS6_26linear_congruential_engineIjLj40014ELj0ELj2147483563EEENS8_IjLj40692ELj0ELj2147483399EEEEEEEE14begin_update_pERNS0_12unit_e_pointERSC_dRNS_9callbacks6loggerE"
 "_ZN4stan4mcmc13expl_leapfrogINS0_13unit_e_metricIN31model_stan_boeck_2012_namespace21model_stan_boeck_2012EN5boost6random23additive_combine_engineINS6_26linear_congruential_engineIjLj40014ELj0ELj2147483563EEENS8_IjLj40692ELj0ELj2147483399EEEEEEEE8update_qERNS0_12unit_e_pointERSC_dRNS_9callbacks6loggerE"
 "_ZN4stan4mcmc13expl_leapfrogINS0_13unit_e_metricIN31model_stan_boeck_ext2_namespace21model_stan_boeck_ext2EN5boost6random23additive_combine_engineINS6_26linear_congruential_engineIjLj40014ELj0ELj2147483563EEENS8_IjLj40692ELj0ELj2147483399EEEEEEEE12end_update_pERNS0_12unit_e_pointERSC_dRNS_9callbacks6loggerE"
 "_ZN4stan4mcmc13expl_leapfrogINS0_13unit_e_metricIN31model_stan_boeck_ext2_namespace21model_stan_boeck_ext2EN5boost6random23additive_combine_engineINS6_26linear_congruential_engineIjLj40014ELj0ELj2147483563EEENS8_IjLj40692ELj0ELj2147483399EEEEEEEE14begin_update_pERNS0_12unit_e_pointERSC_dRNS_9callbacks6loggerE"
 "_ZN4stan4mcmc13expl_leapfrogINS0_13unit_e_metricIN31model_stan_boeck_ext2_namespace21model_stan_boeck_ext2EN5boost6random23additive_combine_engineINS6_26linear_congruential_engineIjLj40014ELj0ELj2147483563EEENS8_IjLj40692ELj0ELj2147483399EEEEEEEE8update_qERNS0_12unit_e_pointERSC_dRNS_9callbacks6loggerE"
 "_ZN4stan4mcmc13expl_leapfrogINS0_13unit_e_metricIN32model_stan_boeck_shift_namespace22model_stan_boeck_shiftEN5boost6random23additive_combine_engineINS6_26linear_congruential_engineIjLj40014ELj0ELj2147483563EEENS8_IjLj40692ELj0ELj2147483399EEEEEEEE12end_update_pERNS0_12unit_e_pointERSC_dRNS_9callbacks6loggerE"
 "_ZN4stan4mcmc13expl_leapfrogINS0_13unit_e_metricIN32model_stan_boeck_shift_namespace22model_stan_boeck_shiftEN5boost6random23additive_combine_engineINS6_26linear_congruential_engineIjLj40014ELj0ELj2147483563EEENS8_IjLj40692ELj0ELj2147483399EEEEEEEE14begin_update_pERNS0_12unit_e_pointERSC_dRNS_9callbacks6loggerE"
 "_ZN4stan4mcmc13expl_leapfrogINS0_13unit_e_metricIN32model_stan_boeck_shift_namespace22model_stan_boeck_shiftEN5boost6random23additive_combine_engineINS6_26linear_congruential_engineIjLj40014ELj0ELj2147483563EEENS8_IjLj40692ELj0ELj2147483399EEEEEEEE8update_qERNS0_12unit_e_pointERSC_dRNS_9callbacks6loggerE"
 "_ZN4stan4mcmc13expl_leapfrogINS0_13unit_e_metricIN33model_stan_boeck_ext_HH_namespace23model_stan_boeck_ext_HHEN5boost6random23additive_combine_engineINS6_26linear_congruential_engineIjLj40014ELj0ELj2147483563EEENS8_IjLj40692ELj0ELj2147483399EEEEEEEE12end_update_pERNS0_12unit_e_pointERSC_dRNS_9callbacks6loggerE"
 "_ZN4stan4mcmc13expl_leapfrogINS0_13unit_e_metricIN33model_stan_boeck_ext_HH_namespace23model_stan_boeck_ext_HHEN5boost6random23additive_combine_engineINS6_26linear_congruential_engineIjLj40014ELj0ELj2147483563EEENS8_IjLj40692ELj0ELj2147483399EEEEEEEE14begin_update_pERNS0_12unit_e_pointERSC_dRNS_9callbacks6loggerE"
 "_ZN4stan4mcmc13expl_leapfrogINS0_13unit_e_metricIN33model_stan_boeck_ext_HH_namespace23model_stan_boeck_ext_HHEN5boost6random23additive_combine_engineINS6_26linear_congruential_engineIjLj40014ELj0ELj2147483563EEENS8_IjLj40692ELj0ELj2147483399EEEEEEEE8update_qERNS0_12unit_e_pointERSC_dRNS_9callbacks6loggerE"
 "_ZN4stan4mcmc13expl_leapfrogINS0_14dense_e_metricIN24model_stan_pcm_namespace14model_stan_pcmEN5boost6random23additive_combine_engineINS6_26linear_congruential_engineIjLj40014ELj0ELj2147483563EEENS8_IjLj40692ELj0ELj2147483399EEEEEEEE12end_update_pERNS0_13dense_e_pointERSC_dRNS_9callbacks6loggerE"
 "_ZN4stan4mcmc13expl_leapfrogINS0_14dense_e_metricIN24model_stan_pcm_namespace14model_stan_pcmEN5boost6random23additive_combine_engineINS6_26linear_congruential_engineIjLj40014ELj0ELj2147483563EEENS8_IjLj40692ELj0ELj2147483399EEEEEEEE14begin_update_pERNS0_13dense_e_pointERSC_dRNS_9callbacks6loggerE"
 "_ZN4stan4mcmc13expl_leapfrogINS0_14dense_e_metricIN24model_stan_pcm_namespace14model_stan_pcmEN5boost6random23additive_combine_engineINS6_26linear_congruential_engineIjLj40014ELj0ELj2147483563EEENS8_IjLj40692ELj0ELj2147483399EEEEEEEE8update_qERNS0_13dense_e_pointERSC_dRNS_9callbacks6loggerE"
 "_ZN4stan4mcmc13expl_leapfrogINS0_14dense_e_metricIN26model_stan_steps_namespace16model_stan_stepsEN5boost6random23additive_combine_engineINS6_26linear_congruential_engineIjLj40014ELj0ELj2147483563EEENS8_IjLj40692ELj0ELj2147483399EEEEEEEE12end_update_pERNS0_13dense_e_pointERSC_dRNS_9callbacks6loggerE"
 "_ZN4stan4mcmc13expl_leapfrogINS0_14dense_e_metricIN26model_stan_steps_namespace16model_stan_stepsEN5boost6random23additive_combine_engineINS6_26linear_congruential_engineIjLj40014ELj0ELj2147483563EEENS8_IjLj40692ELj0ELj2147483399EEEEEEEE14begin_update_pERNS0_13dense_e_pointERSC_dRNS_9callbacks6loggerE"
 "_ZN4stan4mcmc13expl_leapfrogINS0_14dense_e_metricIN26model_stan_steps_namespace16model_stan_stepsEN5boost6random23additive_combine_engineINS6_26linear_congruential_engineIjLj40014ELj0ELj2147483563EEENS8_IjLj40692ELj0ELj2147483399EEEEEEEE8update_qERNS0_13dense_e_pointERSC_dRNS_9callbacks6loggerE"
 "_ZN4stan4mcmc13expl_leapfrogINS0_14dense_e_metricIN30model_stan_boeck_ext_namespace20model_stan_boeck_extEN5boost6random23additive_combine_engineINS6_26linear_congruential_engineIjLj40014ELj0ELj2147483563EEENS8_IjLj40692ELj0ELj2147483399EEEEEEEE12end_update_pERNS0_13dense_e_pointERSC_dRNS_9callbacks6loggerE"
 "_ZN4stan4mcmc13expl_leapfrogINS0_14dense_e_metricIN30model_stan_boeck_ext_namespace20model_stan_boeck_extEN5boost6random23additive_combine_engineINS6_26linear_congruential_engineIjLj40014ELj0ELj2147483563EEENS8_IjLj40692ELj0ELj2147483399EEEEEEEE14begin_update_pERNS0_13dense_e_pointERSC_dRNS_9callbacks6loggerE"
 "_ZN4stan4mcmc13expl_leapfrogINS0_14dense_e_metricIN30model_stan_boeck_ext_namespace20model_stan_boeck_extEN5boost6random23additive_combine_engineINS6_26linear_congruential_engineIjLj40014ELj0ELj2147483563EEENS8_IjLj40692ELj0ELj2147483399EEEEEEEE8update_qERNS0_13dense_e_pointERSC_dRNS_9callbacks6loggerE"
 "_ZN4stan4mcmc13expl_leapfrogINS0_14dense_e_metricIN31model_stan_boeck_2012_namespace21model_stan_boeck_2012EN5boost6random23additive_combine_engineINS6_26linear_congruential_engineIjLj40014ELj0ELj2147483563EEENS8_IjLj40692ELj0ELj2147483399EEEEEEEE12end_update_pERNS0_13dense_e_pointERSC_dRNS_9callbacks6loggerE"
 "_ZN4stan4mcmc13expl_leapfrogINS0_14dense_e_metricIN31model_stan_boeck_2012_namespace21model_stan_boeck_2012EN5boost6random23additive_combine_engineINS6_26linear_congruential_engineIjLj40014ELj0ELj2147483563EEENS8_IjLj40692ELj0ELj2147483399EEEEEEEE14begin_update_pERNS0_13dense_e_pointERSC_dRNS_9callbacks6loggerE"
 "_ZN4stan4mcmc13expl_leapfrogINS0_14dense_e_metricIN31model_stan_boeck_2012_namespace21model_stan_boeck_2012EN5boost6random23additive_combine_engineINS6_26linear_congruential_engineIjLj40014ELj0ELj2147483563EEENS8_IjLj40692ELj0ELj2147483399EEEEEEEE8update_qERNS0_13dense_e_pointERSC_dRNS_9callbacks6loggerE"
 "_ZN4stan4mcmc13expl_leapfrogINS0_14dense_e_metricIN31model_stan_boeck_ext2_namespace21model_stan_boeck_ext2EN5boost6random23additive_combine_engineINS6_26linear_congruential_engineIjLj40014ELj0ELj2147483563EEENS8_IjLj40692ELj0ELj2147483399EEEEEEEE12end_update_pERNS0_13dense_e_pointERSC_dRNS_9callbacks6loggerE"
 "_ZN4stan4mcmc13expl_leapfrogINS0_14dense_e_metricIN31model_stan_boeck_ext2_namespace21model_stan_boeck_ext2EN5boost6random23additive_combine_engineINS6_26linear_congruential_engineIjLj40014ELj0ELj2147483563EEENS8_IjLj40692ELj0ELj2147483399EEEEEEEE14begin_update_pERNS0_13dense_e_pointERSC_dRNS_9callbacks6loggerE"
 "_ZN4stan4mcmc13expl_leapfrogINS0_14dense_e_metricIN31model_stan_boeck_ext2_namespace21model_stan_boeck_ext2EN5boost6random23additive_combine_engineINS6_26linear_congruential_engineIjLj40014ELj0ELj2147483563EEENS8_IjLj40692ELj0ELj2147483399EEEEEEEE8update_qERNS0_13dense_e_pointERSC_dRNS_9callbacks6loggerE"
 "_ZN4stan4mcmc13expl_leapfrogINS0_14dense_e_metricIN32model_stan_boeck_shift_namespace22model_stan_boeck_shiftEN5boost6random23additive_combine_engineINS6_26linear_congruential_engineIjLj40014ELj0ELj2147483563EEENS8_IjLj40692ELj0ELj2147483399EEEEEEEE12end_update_pERNS0_13dense_e_pointERSC_dRNS_9callbacks6loggerE"
 "_ZN4stan4mcmc13expl_leapfrogINS0_14dense_e_metricIN32model_stan_boeck_shift_namespace22model_stan_boeck_shiftEN5boost6random23additive_combine_engineINS6_26linear_congruential_engineIjLj40014ELj0ELj2147483563EEENS8_IjLj40692ELj0ELj2147483399EEEEEEEE14begin_update_pERNS0_13dense_e_pointERSC_dRNS_9callbacks6loggerE"
 "_ZN4stan4mcmc13expl_leapfrogINS0_14dense_e_metricIN32model_stan_boeck_shift_namespace22model_stan_boeck_shiftEN5boost6random23additive_combine_engineINS6_26linear_congruential_engineIjLj40014ELj0ELj2147483563EEENS8_IjLj40692ELj0ELj2147483399EEEEEEEE8update_qERNS0_13dense_e_pointERSC_dRNS_9callbacks6loggerE"
 "_ZN4stan4mcmc13expl_leapfrogINS0_14dense_e_metricIN33model_stan_boeck_ext_HH_namespace23model_stan_boeck_ext_HHEN5boost6random23additive_combine_engineINS6_26linear_congruential_engineIjLj40014ELj0ELj2147483563EEENS8_IjLj40692ELj0ELj2147483399EEEEEEEE12end_update_pERNS0_13dense_e_pointERSC_dRNS_9callbacks6loggerE"
 "_ZN4stan4mcmc13expl_leapfrogINS0_14dense_e_metricIN33model_stan_boeck_ext_HH_namespace23model_stan_boeck_ext_HHEN5boost6random23additive_combine_engineINS6_26linear_congruential_engineIjLj40014ELj0ELj2147483563EEENS8_IjLj40692ELj0ELj2147483399EEEEEEEE14begin_update_pERNS0_13dense_e_pointERSC_dRNS_9callbacks6loggerE"
 "_ZN4stan4mcmc13expl_leapfrogINS0_14dense_e_metricIN33model_stan_boeck_ext_HH_namespace23model_stan_boeck_ext_HHEN5boost6random23additive_combine_engineINS6_26linear_congruential_engineIjLj40014ELj0ELj2147483563EEENS8_IjLj40692ELj0ELj2147483399EEEEEEEE8update_qERNS0_13dense_e_pointERSC_dRNS_9callbacks6loggerE"
 "_ZN4stan4mcmc13unit_e_metricIN24model_stan_pcm_namespace14model_stan_pcmEN5boost6random23additive_combine_engineINS5_26linear_congruential_engineIjLj40014ELj0ELj2147483563EEENS7_IjLj40692ELj0ELj2147483399EEEEEE1TERNS0_12unit_e_pointE"
 "_ZN4stan4mcmc13unit_e_metricIN24model_stan_pcm_namespace14model_stan_pcmEN5boost6random23additive_combine_engineINS5_26linear_congruential_engineIjLj40014ELj0ELj2147483563EEENS7_IjLj40692ELj0ELj2147483399EEEEEE3phiERNS0_12unit_e_pointE"
 "_ZN4stan4mcmc13unit_e_metricIN24model_stan_pcm_namespace14model_stan_pcmEN5boost6random23additive_combine_engineINS5_26linear_congruential_engineIjLj40014ELj0ELj2147483563EEENS7_IjLj40692ELj0ELj2147483399EEEEEE3tauERNS0_12unit_e_pointE"
 "_ZN4stan4mcmc13unit_e_metricIN24model_stan_pcm_namespace14model_stan_pcmEN5boost6random23additive_combine_engineINS5_26linear_congruential_engineIjLj40014ELj0ELj2147483563EEENS7_IjLj40692ELj0ELj2147483399EEEEEE5dG_dtERNS0_12unit_e_pointERNS_9callbacks6loggerE"
 "_ZN4stan4mcmc13unit_e_metricIN24model_stan_pcm_namespace14model_stan_pcmEN5boost6random23additive_combine_engineINS5_26linear_congruential_engineIjLj40014ELj0ELj2147483563EEENS7_IjLj40692ELj0ELj2147483399EEEEEE7dphi_dqERNS0_12unit_e_pointERNS_9callbacks6loggerE"
 "_ZN4stan4mcmc13unit_e_metricIN24model_stan_pcm_namespace14model_stan_pcmEN5boost6random23additive_combine_engineINS5_26linear_congruential_engineIjLj40014ELj0ELj2147483563EEENS7_IjLj40692ELj0ELj2147483399EEEEEE7dtau_dpERNS0_12unit_e_pointE"
 "_ZN4stan4mcmc13unit_e_metricIN24model_stan_pcm_namespace14model_stan_pcmEN5boost6random23additive_combine_engineINS5_26linear_congruential_engineIjLj40014ELj0ELj2147483563EEENS7_IjLj40692ELj0ELj2147483399EEEEEE7dtau_dqERNS0_12unit_e_pointERNS_9callbacks6loggerE"
 "_ZN4stan4mcmc13unit_e_metricIN24model_stan_pcm_namespace14model_stan_pcmEN5boost6random23additive_combine_engineINS5_26linear_congruential_engineIjLj40014ELj0ELj2147483563EEENS7_IjLj40692ELj0ELj2147483399EEEEEE8sample_pERNS0_12unit_e_pointERSA_"
 "_ZN4stan4mcmc13unit_e_metricIN26model_stan_steps_namespace16model_stan_stepsEN5boost6random23additive_combine_engineINS5_26linear_congruential_engineIjLj40014ELj0ELj2147483563EEENS7_IjLj40692ELj0ELj2147483399EEEEEE1TERNS0_12unit_e_pointE"
 "_ZN4stan4mcmc13unit_e_metricIN26model_stan_steps_namespace16model_stan_stepsEN5boost6random23additive_combine_engineINS5_26linear_congruential_engineIjLj40014ELj0ELj2147483563EEENS7_IjLj40692ELj0ELj2147483399EEEEEE3phiERNS0_12unit_e_pointE"
 "_ZN4stan4mcmc13unit_e_metricIN26model_stan_steps_namespace16model_stan_stepsEN5boost6random23additive_combine_engineINS5_26linear_congruential_engineIjLj40014ELj0ELj2147483563EEENS7_IjLj40692ELj0ELj2147483399EEEEEE3tauERNS0_12unit_e_pointE"
 "_ZN4stan4mcmc13unit_e_metricIN26model_stan_steps_namespace16model_stan_stepsEN5boost6random23additive_combine_engineINS5_26linear_congruential_engineIjLj40014ELj0ELj2147483563EEENS7_IjLj40692ELj0ELj2147483399EEEEEE5dG_dtERNS0_12unit_e_pointERNS_9callbacks6loggerE"
 "_ZN4stan4mcmc13unit_e_metricIN26model_stan_steps_namespace16model_stan_stepsEN5boost6random23additive_combine_engineINS5_26linear_congruential_engineIjLj40014ELj0ELj2147483563EEENS7_IjLj40692ELj0ELj2147483399EEEEEE7dphi_dqERNS0_12unit_e_pointERNS_9callbacks6loggerE"
 "_ZN4stan4mcmc13unit_e_metricIN26model_stan_steps_namespace16model_stan_stepsEN5boost6random23additive_combine_engineINS5_26linear_congruential_engineIjLj40014ELj0ELj2147483563EEENS7_IjLj40692ELj0ELj2147483399EEEEEE7dtau_dpERNS0_12unit_e_pointE"
 "_ZN4stan4mcmc13unit_e_metricIN26model_stan_steps_namespace16model_stan_stepsEN5boost6random23additive_combine_engineINS5_26linear_congruential_engineIjLj40014ELj0ELj2147483563EEENS7_IjLj40692ELj0ELj2147483399EEEEEE7dtau_dqERNS0_12unit_e_pointERNS_9callbacks6loggerE"
 "_ZN4stan4mcmc13unit_e_metricIN26model_stan_steps_namespace16model_stan_stepsEN5boost6random23additive_combine_engineINS5_26linear_congruential_engineIjLj40014ELj0ELj2147483563EEENS7_IjLj40692ELj0ELj2147483399EEEEEE8sample_pERNS0_12unit_e_pointERSA_"
 "_ZN4stan4mcmc13unit_e_metricIN30model_stan_boeck_ext_namespace20model_stan_boeck_extEN5boost6random23additive_combine_engineINS5_26linear_congruential_engineIjLj40014ELj0ELj2147483563EEENS7_IjLj40692ELj0ELj2147483399EEEEEE1TERNS0_12unit_e_pointE"
 "_ZN4stan4mcmc13unit_e_metricIN30model_stan_boeck_ext_namespace20model_stan_boeck_extEN5boost6random23additive_combine_engineINS5_26linear_congruential_engineIjLj40014ELj0ELj2147483563EEENS7_IjLj40692ELj0ELj2147483399EEEEEE3phiERNS0_12unit_e_pointE"
 "_ZN4stan4mcmc13unit_e_metricIN30model_stan_boeck_ext_namespace20model_stan_boeck_extEN5boost6random23additive_combine_engineINS5_26linear_congruential_engineIjLj40014ELj0ELj2147483563EEENS7_IjLj40692ELj0ELj2147483399EEEEEE3tauERNS0_12unit_e_pointE"
 "_ZN4stan4mcmc13unit_e_metricIN30model_stan_boeck_ext_namespace20model_stan_boeck_extEN5boost6random23additive_combine_engineINS5_26linear_congruential_engineIjLj40014ELj0ELj2147483563EEENS7_IjLj40692ELj0ELj2147483399EEEEEE5dG_dtERNS0_12unit_e_pointERNS_9callbacks6loggerE"
 "_ZN4stan4mcmc13unit_e_metricIN30model_stan_boeck_ext_namespace20model_stan_boeck_extEN5boost6random23additive_combine_engineINS5_26linear_congruential_engineIjLj40014ELj0ELj2147483563EEENS7_IjLj40692ELj0ELj2147483399EEEEEE7dphi_dqERNS0_12unit_e_pointERNS_9callbacks6loggerE"
 "_ZN4stan4mcmc13unit_e_metricIN30model_stan_boeck_ext_namespace20model_stan_boeck_extEN5boost6random23additive_combine_engineINS5_26linear_congruential_engineIjLj40014ELj0ELj2147483563EEENS7_IjLj40692ELj0ELj2147483399EEEEEE7dtau_dpERNS0_12unit_e_pointE"
 "_ZN4stan4mcmc13unit_e_metricIN30model_stan_boeck_ext_namespace20model_stan_boeck_extEN5boost6random23additive_combine_engineINS5_26linear_congruential_engineIjLj40014ELj0ELj2147483563EEENS7_IjLj40692ELj0ELj2147483399EEEEEE7dtau_dqERNS0_12unit_e_pointERNS_9callbacks6loggerE"
 "_ZN4stan4mcmc13unit_e_metricIN30model_stan_boeck_ext_namespace20model_stan_boeck_extEN5boost6random23additive_combine_engineINS5_26linear_congruential_engineIjLj40014ELj0ELj2147483563EEENS7_IjLj40692ELj0ELj2147483399EEEEEE8sample_pERNS0_12unit_e_pointERSA_"
 "_ZN4stan4mcmc13unit_e_metricIN31model_stan_boeck_2012_namespace21model_stan_boeck_2012EN5boost6random23additive_combine_engineINS5_26linear_congruential_engineIjLj40014ELj0ELj2147483563EEENS7_IjLj40692ELj0ELj2147483399EEEEEE1TERNS0_12unit_e_pointE"
 "_ZN4stan4mcmc13unit_e_metricIN31model_stan_boeck_2012_namespace21model_stan_boeck_2012EN5boost6random23additive_combine_engineINS5_26linear_congruential_engineIjLj40014ELj0ELj2147483563EEENS7_IjLj40692ELj0ELj2147483399EEEEEE3phiERNS0_12unit_e_pointE"
 "_ZN4stan4mcmc13unit_e_metricIN31model_stan_boeck_2012_namespace21model_stan_boeck_2012EN5boost6random23additive_combine_engineINS5_26linear_congruential_engineIjLj40014ELj0ELj2147483563EEENS7_IjLj40692ELj0ELj2147483399EEEEEE3tauERNS0_12unit_e_pointE"
 "_ZN4stan4mcmc13unit_e_metricIN31model_stan_boeck_2012_namespace21model_stan_boeck_2012EN5boost6random23additive_combine_engineINS5_26linear_congruential_engineIjLj40014ELj0ELj2147483563EEENS7_IjLj40692ELj0ELj2147483399EEEEEE5dG_dtERNS0_12unit_e_pointERNS_9callbacks6loggerE"
 "_ZN4stan4mcmc13unit_e_metricIN31model_stan_boeck_2012_namespace21model_stan_boeck_2012EN5boost6random23additive_combine_engineINS5_26linear_congruential_engineIjLj40014ELj0ELj2147483563EEENS7_IjLj40692ELj0ELj2147483399EEEEEE7dphi_dqERNS0_12unit_e_pointERNS_9callbacks6loggerE"
 "_ZN4stan4mcmc13unit_e_metricIN31model_stan_boeck_2012_namespace21model_stan_boeck_2012EN5boost6random23additive_combine_engineINS5_26linear_congruential_engineIjLj40014ELj0ELj2147483563EEENS7_IjLj40692ELj0ELj2147483399EEEEEE7dtau_dpERNS0_12unit_e_pointE"
 "_ZN4stan4mcmc13unit_e_metricIN31model_stan_boeck_2012_namespace21model_stan_boeck_2012EN5boost6random23additive_combine_engineINS5_26linear_congruential_engineIjLj40014ELj0ELj2147483563EEENS7_IjLj40692ELj0ELj2147483399EEEEEE7dtau_dqERNS0_12unit_e_pointERNS_9callbacks6loggerE"
 "_ZN4stan4mcmc13unit_e_metricIN31model_stan_boeck_2012_namespace21model_stan_boeck_2012EN5boost6random23additive_combine_engineINS5_26linear_congruential_engineIjLj40014ELj0ELj2147483563EEENS7_IjLj40692ELj0ELj2147483399EEEEEE8sample_pERNS0_12unit_e_pointERSA_"
 "_ZN4stan4mcmc13unit_e_metricIN31model_stan_boeck_ext2_namespace21model_stan_boeck_ext2EN5boost6random23additive_combine_engineINS5_26linear_congruential_engineIjLj40014ELj0ELj2147483563EEENS7_IjLj40692ELj0ELj2147483399EEEEEE1TERNS0_12unit_e_pointE"
 "_ZN4stan4mcmc13unit_e_metricIN31model_stan_boeck_ext2_namespace21model_stan_boeck_ext2EN5boost6random23additive_combine_engineINS5_26linear_congruential_engineIjLj40014ELj0ELj2147483563EEENS7_IjLj40692ELj0ELj2147483399EEEEEE3phiERNS0_12unit_e_pointE"
 "_ZN4stan4mcmc13unit_e_metricIN31model_stan_boeck_ext2_namespace21model_stan_boeck_ext2EN5boost6random23additive_combine_engineINS5_26linear_congruential_engineIjLj40014ELj0ELj2147483563EEENS7_IjLj40692ELj0ELj2147483399EEEEEE3tauERNS0_12unit_e_pointE"
 "_ZN4stan4mcmc13unit_e_metricIN31model_stan_boeck_ext2_namespace21model_stan_boeck_ext2EN5boost6random23additive_combine_engineINS5_26linear_congruential_engineIjLj40014ELj0ELj2147483563EEENS7_IjLj40692ELj0ELj2147483399EEEEEE5dG_dtERNS0_12unit_e_pointERNS_9callbacks6loggerE"
 "_ZN4stan4mcmc13unit_e_metricIN31model_stan_boeck_ext2_namespace21model_stan_boeck_ext2EN5boost6random23additive_combine_engineINS5_26linear_congruential_engineIjLj40014ELj0ELj2147483563EEENS7_IjLj40692ELj0ELj2147483399EEEEEE7dphi_dqERNS0_12unit_e_pointERNS_9callbacks6loggerE"
 "_ZN4stan4mcmc13unit_e_metricIN31model_stan_boeck_ext2_namespace21model_stan_boeck_ext2EN5boost6random23additive_combine_engineINS5_26linear_congruential_engineIjLj40014ELj0ELj2147483563EEENS7_IjLj40692ELj0ELj2147483399EEEEEE7dtau_dpERNS0_12unit_e_pointE"
 "_ZN4stan4mcmc13unit_e_metricIN31model_stan_boeck_ext2_namespace21model_stan_boeck_ext2EN5boost6random23additive_combine_engineINS5_26linear_congruential_engineIjLj40014ELj0ELj2147483563EEENS7_IjLj40692ELj0ELj2147483399EEEEEE7dtau_dqERNS0_12unit_e_pointERNS_9callbacks6loggerE"
 "_ZN4stan4mcmc13unit_e_metricIN31model_stan_boeck_ext2_namespace21model_stan_boeck_ext2EN5boost6random23additive_combine_engineINS5_26linear_congruential_engineIjLj40014ELj0ELj2147483563EEENS7_IjLj40692ELj0ELj2147483399EEEEEE8sample_pERNS0_12unit_e_pointERSA_"
 "_ZN4stan4mcmc13unit_e_metricIN32model_stan_boeck_shift_namespace22model_stan_boeck_shiftEN5boost6random23additive_combine_engineINS5_26linear_congruential_engineIjLj40014ELj0ELj2147483563EEENS7_IjLj40692ELj0ELj2147483399EEEEEE1TERNS0_12unit_e_pointE"
 "_ZN4stan4mcmc13unit_e_metricIN32model_stan_boeck_shift_namespace22model_stan_boeck_shiftEN5boost6random23additive_combine_engineINS5_26linear_congruential_engineIjLj40014ELj0ELj2147483563EEENS7_IjLj40692ELj0ELj2147483399EEEEEE3phiERNS0_12unit_e_pointE"
 "_ZN4stan4mcmc13unit_e_metricIN32model_stan_boeck_shift_namespace22model_stan_boeck_shiftEN5boost6random23additive_combine_engineINS5_26linear_congruential_engineIjLj40014ELj0ELj2147483563EEENS7_IjLj40692ELj0ELj2147483399EEEEEE3tauERNS0_12unit_e_pointE"
 "_ZN4stan4mcmc13unit_e_metricIN32model_stan_boeck_shift_namespace22model_stan_boeck_shiftEN5boost6random23additive_combine_engineINS5_26linear_congruential_engineIjLj40014ELj0ELj2147483563EEENS7_IjLj40692ELj0ELj2147483399EEEEEE5dG_dtERNS0_12unit_e_pointERNS_9callbacks6loggerE"
 "_ZN4stan4mcmc13unit_e_metricIN32model_stan_boeck_shift_namespace22model_stan_boeck_shiftEN5boost6random23additive_combine_engineINS5_26linear_congruential_engineIjLj40014ELj0ELj2147483563EEENS7_IjLj40692ELj0ELj2147483399EEEEEE7dphi_dqERNS0_12unit_e_pointERNS_9callbacks6loggerE"
 "_ZN4stan4mcmc13unit_e_metricIN32model_stan_boeck_shift_namespace22model_stan_boeck_shiftEN5boost6random23additive_combine_engineINS5_26linear_congruential_engineIjLj40014ELj0ELj2147483563EEENS7_IjLj40692ELj0ELj2147483399EEEEEE7dtau_dpERNS0_12unit_e_pointE"
 "_ZN4stan4mcmc13unit_e_metricIN32model_stan_boeck_shift_namespace22model_stan_boeck_shiftEN5boost6random23additive_combine_engineINS5_26linear_congruential_engineIjLj40014ELj0ELj2147483563EEENS7_IjLj40692ELj0ELj2147483399EEEEEE7dtau_dqERNS0_12unit_e_pointERNS_9callbacks6loggerE"
 "_ZN4stan4mcmc13unit_e_metricIN32model_stan_boeck_shift_namespace22model_stan_boeck_shiftEN5boost6random23additive_combine_engineINS5_26linear_congruential_engineIjLj40014ELj0ELj2147483563EEENS7_IjLj40692ELj0ELj2147483399EEEEEE8sample_pERNS0_12unit_e_pointERSA_"
 "_ZN4stan4mcmc13unit_e_metricIN33model_stan_boeck_ext_HH_namespace23model_stan_boeck_ext_HHEN5boost6random23additive_combine_engineINS5_26linear_congruential_engineIjLj40014ELj0ELj2147483563EEENS7_IjLj40692ELj0ELj2147483399EEEEEE1TERNS0_12unit_e_pointE"
 "_ZN4stan4mcmc13unit_e_metricIN33model_stan_boeck_ext_HH_namespace23model_stan_boeck_ext_HHEN5boost6random23additive_combine_engineINS5_26linear_congruential_engineIjLj40014ELj0ELj2147483563EEENS7_IjLj40692ELj0ELj2147483399EEEEEE3phiERNS0_12unit_e_pointE"
 "_ZN4stan4mcmc13unit_e_metricIN33model_stan_boeck_ext_HH_namespace23model_stan_boeck_ext_HHEN5boost6random23additive_combine_engineINS5_26linear_congruential_engineIjLj40014ELj0ELj2147483563EEENS7_IjLj40692ELj0ELj2147483399EEEEEE3tauERNS0_12unit_e_pointE"
 "_ZN4stan4mcmc13unit_e_metricIN33model_stan_boeck_ext_HH_namespace23model_stan_boeck_ext_HHEN5boost6random23additive_combine_engineINS5_26linear_congruential_engineIjLj40014ELj0ELj2147483563EEENS7_IjLj40692ELj0ELj2147483399EEEEEE5dG_dtERNS0_12unit_e_pointERNS_9callbacks6loggerE"
 "_ZN4stan4mcmc13unit_e_metricIN33model_stan_boeck_ext_HH_namespace23model_stan_boeck_ext_HHEN5boost6random23additive_combine_engineINS5_26linear_congruential_engineIjLj40014ELj0ELj2147483563EEENS7_IjLj40692ELj0ELj2147483399EEEEEE7dphi_dqERNS0_12unit_e_pointERNS_9callbacks6loggerE"
 "_ZN4stan4mcmc13unit_e_metricIN33model_stan_boeck_ext_HH_namespace23model_stan_boeck_ext_HHEN5boost6random23additive_combine_engineINS5_26linear_congruential_engineIjLj40014ELj0ELj2147483563EEENS7_IjLj40692ELj0ELj2147483399EEEEEE7dtau_dpERNS0_12unit_e_pointE"
 "_ZN4stan4mcmc13unit_e_metricIN33model_stan_boeck_ext_HH_namespace23model_stan_boeck_ext_HHEN5boost6random23additive_combine_engineINS5_26linear_congruential_engineIjLj40014ELj0ELj2147483563EEENS7_IjLj40692ELj0ELj2147483399EEEEEE7dtau_dqERNS0_12unit_e_pointERNS_9callbacks6loggerE"
 "_ZN4stan4mcmc13unit_e_metricIN33model_stan_boeck_ext_HH_namespace23model_stan_boeck_ext_HHEN5boost6random23additive_combine_engineINS5_26linear_congruential_engineIjLj40014ELj0ELj2147483563EEENS7_IjLj40692ELj0ELj2147483399EEEEEE8sample_pERNS0_12unit_e_pointERSA_"
 "_ZN4stan4mcmc14dense_e_metricIN24model_stan_pcm_namespace14model_stan_pcmEN5boost6random23additive_combine_engineINS5_26linear_congruential_engineIjLj40014ELj0ELj2147483563EEENS7_IjLj40692ELj0ELj2147483399EEEEEE1TERNS0_13dense_e_pointE"
 "_ZN4stan4mcmc14dense_e_metricIN24model_stan_pcm_namespace14model_stan_pcmEN5boost6random23additive_combine_engineINS5_26linear_congruential_engineIjLj40014ELj0ELj2147483563EEENS7_IjLj40692ELj0ELj2147483399EEEEEE3phiERNS0_13dense_e_pointE"
 "_ZN4stan4mcmc14dense_e_metricIN24model_stan_pcm_namespace14model_stan_pcmEN5boost6random23additive_combine_engineINS5_26linear_congruential_engineIjLj40014ELj0ELj2147483563EEENS7_IjLj40692ELj0ELj2147483399EEEEEE3tauERNS0_13dense_e_pointE"
 "_ZN4stan4mcmc14dense_e_metricIN24model_stan_pcm_namespace14model_stan_pcmEN5boost6random23additive_combine_engineINS5_26linear_congruential_engineIjLj40014ELj0ELj2147483563EEENS7_IjLj40692ELj0ELj2147483399EEEEEE5dG_dtERNS0_13dense_e_pointERNS_9callbacks6loggerE"
 "_ZN4stan4mcmc14dense_e_metricIN24model_stan_pcm_namespace14model_stan_pcmEN5boost6random23additive_combine_engineINS5_26linear_congruential_engineIjLj40014ELj0ELj2147483563EEENS7_IjLj40692ELj0ELj2147483399EEEEEE7dphi_dqERNS0_13dense_e_pointERNS_9callbacks6loggerE"
 "_ZN4stan4mcmc14dense_e_metricIN24model_stan_pcm_namespace14model_stan_pcmEN5boost6random23additive_combine_engineINS5_26linear_congruential_engineIjLj40014ELj0ELj2147483563EEENS7_IjLj40692ELj0ELj2147483399EEEEEE7dtau_dpERNS0_13dense_e_pointE"
 "_ZN4stan4mcmc14dense_e_metricIN24model_stan_pcm_namespace14model_stan_pcmEN5boost6random23additive_combine_engineINS5_26linear_congruential_engineIjLj40014ELj0ELj2147483563EEENS7_IjLj40692ELj0ELj2147483399EEEEEE7dtau_dqERNS0_13dense_e_pointERNS_9callbacks6loggerE"
 "_ZN4stan4mcmc14dense_e_metricIN24model_stan_pcm_namespace14model_stan_pcmEN5boost6random23additive_combine_engineINS5_26linear_congruential_engineIjLj40014ELj0ELj2147483563EEENS7_IjLj40692ELj0ELj2147483399EEEEEE8sample_pERNS0_13dense_e_pointERSA_"
 "_ZN4stan4mcmc14dense_e_metricIN26model_stan_steps_namespace16model_stan_stepsEN5boost6random23additive_combine_engineINS5_26linear_congruential_engineIjLj40014ELj0ELj2147483563EEENS7_IjLj40692ELj0ELj2147483399EEEEEE1TERNS0_13dense_e_pointE"
 "_ZN4stan4mcmc14dense_e_metricIN26model_stan_steps_namespace16model_stan_stepsEN5boost6random23additive_combine_engineINS5_26linear_congruential_engineIjLj40014ELj0ELj2147483563EEENS7_IjLj40692ELj0ELj2147483399EEEEEE3phiERNS0_13dense_e_pointE"
 "_ZN4stan4mcmc14dense_e_metricIN26model_stan_steps_namespace16model_stan_stepsEN5boost6random23additive_combine_engineINS5_26linear_congruential_engineIjLj40014ELj0ELj2147483563EEENS7_IjLj40692ELj0ELj2147483399EEEEEE3tauERNS0_13dense_e_pointE"
 "_ZN4stan4mcmc14dense_e_metricIN26model_stan_steps_namespace16model_stan_stepsEN5boost6random23additive_combine_engineINS5_26linear_congruential_engineIjLj40014ELj0ELj2147483563EEENS7_IjLj40692ELj0ELj2147483399EEEEEE5dG_dtERNS0_13dense_e_pointERNS_9callbacks6loggerE"
 "_ZN4stan4mcmc14dense_e_metricIN26model_stan_steps_namespace16model_stan_stepsEN5boost6random23additive_combine_engineINS5_26linear_congruential_engineIjLj40014ELj0ELj2147483563EEENS7_IjLj40692ELj0ELj2147483399EEEEEE7dphi_dqERNS0_13dense_e_pointERNS_9callbacks6loggerE"
 "_ZN4stan4mcmc14dense_e_metricIN26model_stan_steps_namespace16model_stan_stepsEN5boost6random23additive_combine_engineINS5_26linear_congruential_engineIjLj40014ELj0ELj2147483563EEENS7_IjLj40692ELj0ELj2147483399EEEEEE7dtau_dpERNS0_13dense_e_pointE"
 "_ZN4stan4mcmc14dense_e_metricIN26model_stan_steps_namespace16model_stan_stepsEN5boost6random23additive_combine_engineINS5_26linear_congruential_engineIjLj40014ELj0ELj2147483563EEENS7_IjLj40692ELj0ELj2147483399EEEEEE7dtau_dqERNS0_13dense_e_pointERNS_9callbacks6loggerE"
 "_ZN4stan4mcmc14dense_e_metricIN26model_stan_steps_namespace16model_stan_stepsEN5boost6random23additive_combine_engineINS5_26linear_congruential_engineIjLj40014ELj0ELj2147483563EEENS7_IjLj40692ELj0ELj2147483399EEEEEE8sample_pERNS0_13dense_e_pointERSA_"
 "_ZN4stan4mcmc14dense_e_metricIN30model_stan_boeck_ext_namespace20model_stan_boeck_extEN5boost6random23additive_combine_engineINS5_26linear_congruential_engineIjLj40014ELj0ELj2147483563EEENS7_IjLj40692ELj0ELj2147483399EEEEEE1TERNS0_13dense_e_pointE"
 "_ZN4stan4mcmc14dense_e_metricIN30model_stan_boeck_ext_namespace20model_stan_boeck_extEN5boost6random23additive_combine_engineINS5_26linear_congruential_engineIjLj40014ELj0ELj2147483563EEENS7_IjLj40692ELj0ELj2147483399EEEEEE3phiERNS0_13dense_e_pointE"
 "_ZN4stan4mcmc14dense_e_metricIN30model_stan_boeck_ext_namespace20model_stan_boeck_extEN5boost6random23additive_combine_engineINS5_26linear_congruential_engineIjLj40014ELj0ELj2147483563EEENS7_IjLj40692ELj0ELj2147483399EEEEEE3tauERNS0_13dense_e_pointE"
 "_ZN4stan4mcmc14dense_e_metricIN30model_stan_boeck_ext_namespace20model_stan_boeck_extEN5boost6random23additive_combine_engineINS5_26linear_congruential_engineIjLj40014ELj0ELj2147483563EEENS7_IjLj40692ELj0ELj2147483399EEEEEE5dG_dtERNS0_13dense_e_pointERNS_9callbacks6loggerE"
 "_ZN4stan4mcmc14dense_e_metricIN30model_stan_boeck_ext_namespace20model_stan_boeck_extEN5boost6random23additive_combine_engineINS5_26linear_congruential_engineIjLj40014ELj0ELj2147483563EEENS7_IjLj40692ELj0ELj2147483399EEEEEE7dphi_dqERNS0_13dense_e_pointERNS_9callbacks6loggerE"
 "_ZN4stan4mcmc14dense_e_metricIN30model_stan_boeck_ext_namespace20model_stan_boeck_extEN5boost6random23additive_combine_engineINS5_26linear_congruential_engineIjLj40014ELj0ELj2147483563EEENS7_IjLj40692ELj0ELj2147483399EEEEEE7dtau_dpERNS0_13dense_e_pointE"
 "_ZN4stan4mcmc14dense_e_metricIN30model_stan_boeck_ext_namespace20model_stan_boeck_extEN5boost6random23additive_combine_engineINS5_26linear_congruential_engineIjLj40014ELj0ELj2147483563EEENS7_IjLj40692ELj0ELj2147483399EEEEEE7dtau_dqERNS0_13dense_e_pointERNS_9callbacks6loggerE"
 "_ZN4stan4mcmc14dense_e_metricIN30model_stan_boeck_ext_namespace20model_stan_boeck_extEN5boost6random23additive_combine_engineINS5_26linear_congruential_engineIjLj40014ELj0ELj2147483563EEENS7_IjLj40692ELj0ELj2147483399EEEEEE8sample_pERNS0_13dense_e_pointERSA_"
 "_ZN4stan4mcmc14dense_e_metricIN31model_stan_boeck_2012_namespace21model_stan_boeck_2012EN5boost6random23additive_combine_engineINS5_26linear_congruential_engineIjLj40014ELj0ELj2147483563EEENS7_IjLj40692ELj0ELj2147483399EEEEEE1TERNS0_13dense_e_pointE"
 "_ZN4stan4mcmc14dense_e_metricIN31model_stan_boeck_2012_namespace21model_stan_boeck_2012EN5boost6random23additive_combine_engineINS5_26linear_congruential_engineIjLj40014ELj0ELj2147483563EEENS7_IjLj40692ELj0ELj2147483399EEEEEE3phiERNS0_13dense_e_pointE"
 "_ZN4stan4mcmc14dense_e_metricIN31model_stan_boeck_2012_namespace21model_stan_boeck_2012EN5boost6random23additive_combine_engineINS5_26linear_congruential_engineIjLj40014ELj0ELj2147483563EEENS7_IjLj40692ELj0ELj2147483399EEEEEE3tauERNS0_13dense_e_pointE"
 "_ZN4stan4mcmc14dense_e_metricIN31model_stan_boeck_2012_namespace21model_stan_boeck_2012EN5boost6random23additive_combine_engineINS5_26linear_congruential_engineIjLj40014ELj0ELj2147483563EEENS7_IjLj40692ELj0ELj2147483399EEEEEE5dG_dtERNS0_13dense_e_pointERNS_9callbacks6loggerE"
 "_ZN4stan4mcmc14dense_e_metricIN31model_stan_boeck_2012_namespace21model_stan_boeck_2012EN5boost6random23additive_combine_engineINS5_26linear_congruential_engineIjLj40014ELj0ELj2147483563EEENS7_IjLj40692ELj0ELj2147483399EEEEEE7dphi_dqERNS0_13dense_e_pointERNS_9callbacks6loggerE"
 "_ZN4stan4mcmc14dense_e_metricIN31model_stan_boeck_2012_namespace21model_stan_boeck_2012EN5boost6random23additive_combine_engineINS5_26linear_congruential_engineIjLj40014ELj0ELj2147483563EEENS7_IjLj40692ELj0ELj2147483399EEEEEE7dtau_dpERNS0_13dense_e_pointE"
 "_ZN4stan4mcmc14dense_e_metricIN31model_stan_boeck_2012_namespace21model_stan_boeck_2012EN5boost6random23additive_combine_engineINS5_26linear_congruential_engineIjLj40014ELj0ELj2147483563EEENS7_IjLj40692ELj0ELj2147483399EEEEEE7dtau_dqERNS0_13dense_e_pointERNS_9callbacks6loggerE"
 "_ZN4stan4mcmc14dense_e_metricIN31model_stan_boeck_2012_namespace21model_stan_boeck_2012EN5boost6random23additive_combine_engineINS5_26linear_congruential_engineIjLj40014ELj0ELj2147483563EEENS7_IjLj40692ELj0ELj2147483399EEEEEE8sample_pERNS0_13dense_e_pointERSA_"
 "_ZN4stan4mcmc14dense_e_metricIN31model_stan_boeck_ext2_namespace21model_stan_boeck_ext2EN5boost6random23additive_combine_engineINS5_26linear_congruential_engineIjLj40014ELj0ELj2147483563EEENS7_IjLj40692ELj0ELj2147483399EEEEEE1TERNS0_13dense_e_pointE"
 "_ZN4stan4mcmc14dense_e_metricIN31model_stan_boeck_ext2_namespace21model_stan_boeck_ext2EN5boost6random23additive_combine_engineINS5_26linear_congruential_engineIjLj40014ELj0ELj2147483563EEENS7_IjLj40692ELj0ELj2147483399EEEEEE3phiERNS0_13dense_e_pointE"
 "_ZN4stan4mcmc14dense_e_metricIN31model_stan_boeck_ext2_namespace21model_stan_boeck_ext2EN5boost6random23additive_combine_engineINS5_26linear_congruential_engineIjLj40014ELj0ELj2147483563EEENS7_IjLj40692ELj0ELj2147483399EEEEEE3tauERNS0_13dense_e_pointE"
 "_ZN4stan4mcmc14dense_e_metricIN31model_stan_boeck_ext2_namespace21model_stan_boeck_ext2EN5boost6random23additive_combine_engineINS5_26linear_congruential_engineIjLj40014ELj0ELj2147483563EEENS7_IjLj40692ELj0ELj2147483399EEEEEE5dG_dtERNS0_13dense_e_pointERNS_9callbacks6loggerE"
 "_ZN4stan4mcmc14dense_e_metricIN31model_stan_boeck_ext2_namespace21model_stan_boeck_ext2EN5boost6random23additive_combine_engineINS5_26linear_congruential_engineIjLj40014ELj0ELj2147483563EEENS7_IjLj40692ELj0ELj2147483399EEEEEE7dphi_dqERNS0_13dense_e_pointERNS_9callbacks6loggerE"
 "_ZN4stan4mcmc14dense_e_metricIN31model_stan_boeck_ext2_namespace21model_stan_boeck_ext2EN5boost6random23additive_combine_engineINS5_26linear_congruential_engineIjLj40014ELj0ELj2147483563EEENS7_IjLj40692ELj0ELj2147483399EEEEEE7dtau_dpERNS0_13dense_e_pointE"
 "_ZN4stan4mcmc14dense_e_metricIN31model_stan_boeck_ext2_namespace21model_stan_boeck_ext2EN5boost6random23additive_combine_engineINS5_26linear_congruential_engineIjLj40014ELj0ELj2147483563EEENS7_IjLj40692ELj0ELj2147483399EEEEEE7dtau_dqERNS0_13dense_e_pointERNS_9callbacks6loggerE"
 "_ZN4stan4mcmc14dense_e_metricIN31model_stan_boeck_ext2_namespace21model_stan_boeck_ext2EN5boost6random23additive_combine_engineINS5_26linear_congruential_engineIjLj40014ELj0ELj2147483563EEENS7_IjLj40692ELj0ELj2147483399EEEEEE8sample_pERNS0_13dense_e_pointERSA_"
 "_ZN4stan4mcmc14dense_e_metricIN32model_stan_boeck_shift_namespace22model_stan_boeck_shiftEN5boost6random23additive_combine_engineINS5_26linear_congruential_engineIjLj40014ELj0ELj2147483563EEENS7_IjLj40692ELj0ELj2147483399EEEEEE1TERNS0_13dense_e_pointE"
 "_ZN4stan4mcmc14dense_e_metricIN32model_stan_boeck_shift_namespace22model_stan_boeck_shiftEN5boost6random23additive_combine_engineINS5_26linear_congruential_engineIjLj40014ELj0ELj2147483563EEENS7_IjLj40692ELj0ELj2147483399EEEEEE3phiERNS0_13dense_e_pointE"
 "_ZN4stan4mcmc14dense_e_metricIN32model_stan_boeck_shift_namespace22model_stan_boeck_shiftEN5boost6random23additive_combine_engineINS5_26linear_congruential_engineIjLj40014ELj0ELj2147483563EEENS7_IjLj40692ELj0ELj2147483399EEEEEE3tauERNS0_13dense_e_pointE"
 "_ZN4stan4mcmc14dense_e_metricIN32model_stan_boeck_shift_namespace22model_stan_boeck_shiftEN5boost6random23additive_combine_engineINS5_26linear_congruential_engineIjLj40014ELj0ELj2147483563EEENS7_IjLj40692ELj0ELj2147483399EEEEEE5dG_dtERNS0_13dense_e_pointERNS_9callbacks6loggerE"
 "_ZN4stan4mcmc14dense_e_metricIN32model_stan_boeck_shift_namespace22model_stan_boeck_shiftEN5boost6random23additive_combine_engineINS5_26linear_congruential_engineIjLj40014ELj0ELj2147483563EEENS7_IjLj40692ELj0ELj2147483399EEEEEE7dphi_dqERNS0_13dense_e_pointERNS_9callbacks6loggerE"
 "_ZN4stan4mcmc14dense_e_metricIN32model_stan_boeck_shift_namespace22model_stan_boeck_shiftEN5boost6random23additive_combine_engineINS5_26linear_congruential_engineIjLj40014ELj0ELj2147483563EEENS7_IjLj40692ELj0ELj2147483399EEEEEE7dtau_dpERNS0_13dense_e_pointE"
 "_ZN4stan4mcmc14dense_e_metricIN32model_stan_boeck_shift_namespace22model_stan_boeck_shiftEN5boost6random23additive_combine_engineINS5_26linear_congruential_engineIjLj40014ELj0ELj2147483563EEENS7_IjLj40692ELj0ELj2147483399EEEEEE7dtau_dqERNS0_13dense_e_pointERNS_9callbacks6loggerE"
 "_ZN4stan4mcmc14dense_e_metricIN32model_stan_boeck_shift_namespace22model_stan_boeck_shiftEN5boost6random23additive_combine_engineINS5_26linear_congruential_engineIjLj40014ELj0ELj2147483563EEENS7_IjLj40692ELj0ELj2147483399EEEEEE8sample_pERNS0_13dense_e_pointERSA_"
 "_ZN4stan4mcmc14dense_e_metricIN33model_stan_boeck_ext_HH_namespace23model_stan_boeck_ext_HHEN5boost6random23additive_combine_engineINS5_26linear_congruential_engineIjLj40014ELj0ELj2147483563EEENS7_IjLj40692ELj0ELj2147483399EEEEEE1TERNS0_13dense_e_pointE"
 "_ZN4stan4mcmc14dense_e_metricIN33model_stan_boeck_ext_HH_namespace23model_stan_boeck_ext_HHEN5boost6random23additive_combine_engineINS5_26linear_congruential_engineIjLj40014ELj0ELj2147483563EEENS7_IjLj40692ELj0ELj2147483399EEEEEE3phiERNS0_13dense_e_pointE"
 "_ZN4stan4mcmc14dense_e_metricIN33model_stan_boeck_ext_HH_namespace23model_stan_boeck_ext_HHEN5boost6random23additive_combine_engineINS5_26linear_congruential_engineIjLj40014ELj0ELj2147483563EEENS7_IjLj40692ELj0ELj2147483399EEEEEE3tauERNS0_13dense_e_pointE"
 "_ZN4stan4mcmc14dense_e_metricIN33model_stan_boeck_ext_HH_namespace23model_stan_boeck_ext_HHEN5boost6random23additive_combine_engineINS5_26linear_congruential_engineIjLj40014ELj0ELj2147483563EEENS7_IjLj40692ELj0ELj2147483399EEEEEE5dG_dtERNS0_13dense_e_pointERNS_9callbacks6loggerE"
 "_ZN4stan4mcmc14dense_e_metricIN33model_stan_boeck_ext_HH_namespace23model_stan_boeck_ext_HHEN5boost6random23additive_combine_engineINS5_26linear_congruential_engineIjLj40014ELj0ELj2147483563EEENS7_IjLj40692ELj0ELj2147483399EEEEEE7dphi_dqERNS0_13dense_e_pointERNS_9callbacks6loggerE"
 "_ZN4stan4mcmc14dense_e_metricIN33model_stan_boeck_ext_HH_namespace23model_stan_boeck_ext_HHEN5boost6random23additive_combine_engineINS5_26linear_congruential_engineIjLj40014ELj0ELj2147483563EEENS7_IjLj40692ELj0ELj2147483399EEEEEE7dtau_dpERNS0_13dense_e_pointE"
 "_ZN4stan4mcmc14dense_e_metricIN33model_stan_boeck_ext_HH_namespace23model_stan_boeck_ext_HHEN5boost6random23additive_combine_engineINS5_26linear_congruential_engineIjLj40014ELj0ELj2147483563EEENS7_IjLj40692ELj0ELj2147483399EEEEEE7dtau_dqERNS0_13dense_e_pointERNS_9callbacks6loggerE"
 "_ZN4stan4mcmc14dense_e_metricIN33model_stan_boeck_ext_HH_namespace23model_stan_boeck_ext_HHEN5boost6random23additive_combine_engineINS5_26linear_congruential_engineIjLj40014ELj0ELj2147483563EEENS7_IjLj40692ELj0ELj2147483399EEEEEE8sample_pERNS0_13dense_e_pointERSA_"
 "_ZN4stan4mcmc14var_adaptation14learn_varianceERN5Eigen6MatrixIdLin1ELi1ELi0ELin1ELi1EEERKS4_"
 "_ZN4stan4mcmc15base_adaptation7restartEv"
 "_ZN4stan4mcmc15base_static_hmcIN24model_stan_pcm_namespace14model_stan_pcmENS0_13diag_e_metricENS0_13expl_leapfrogEN5boost6random23additive_combine_engineINS7_26linear_congruential_engineIjLj40014ELj0ELj2147483563EEENS9_IjLj40692ELj0ELj2147483399EEEEEE10transitionERNS0_6sampleERNS_9callbacks6loggerE"
 "_ZN4stan4mcmc15base_static_hmcIN24model_stan_pcm_namespace14model_stan_pcmENS0_13diag_e_metricENS0_13expl_leapfrogEN5boost6random23additive_combine_engineINS7_26linear_congruential_engineIjLj40014ELj0ELj2147483563EEENS9_IjLj40692ELj0ELj2147483399EEEEEE18get_sampler_paramsERSt6vectorIdSaIdEE"
 "_ZN4stan4mcmc15base_static_hmcIN24model_stan_pcm_namespace14model_stan_pcmENS0_13diag_e_metricENS0_13expl_leapfrogEN5boost6random23additive_combine_engineINS7_26linear_congruential_engineIjLj40014ELj0ELj2147483563EEENS9_IjLj40692ELj0ELj2147483399EEEEEE20set_nominal_stepsizeEd"
 "_ZN4stan4mcmc15base_static_hmcIN24model_stan_pcm_namespace14model_stan_pcmENS0_13diag_e_metricENS0_13expl_leapfrogEN5boost6random23additive_combine_engineINS7_26linear_congruential_engineIjLj40014ELj0ELj2147483563EEENS9_IjLj40692ELj0ELj2147483399EEEEEE23get_sampler_param_namesERSt6vectorISsSaISsEE"
 "_ZN4stan4mcmc15base_static_hmcIN24model_stan_pcm_namespace14model_stan_pcmENS0_13diag_e_metricENS0_13expl_leapfrogEN5boost6random23additive_combine_engineINS7_26linear_congruential_engineIjLj40014ELj0ELj2147483563EEENS9_IjLj40692ELj0ELj2147483399EEEEEED0Ev"
 "_ZN4stan4mcmc15base_static_hmcIN24model_stan_pcm_namespace14model_stan_pcmENS0_13diag_e_metricENS0_13expl_leapfrogEN5boost6random23additive_combine_engineINS7_26linear_congruential_engineIjLj40014ELj0ELj2147483563EEENS9_IjLj40692ELj0ELj2147483399EEEEEED1Ev"
 "_ZN4stan4mcmc15base_static_hmcIN24model_stan_pcm_namespace14model_stan_pcmENS0_13unit_e_metricENS0_13expl_leapfrogEN5boost6random23additive_combine_engineINS7_26linear_congruential_engineIjLj40014ELj0ELj2147483563EEENS9_IjLj40692ELj0ELj2147483399EEEEEE10transitionERNS0_6sampleERNS_9callbacks6loggerE"
 "_ZN4stan4mcmc15base_static_hmcIN24model_stan_pcm_namespace14model_stan_pcmENS0_13unit_e_metricENS0_13expl_leapfrogEN5boost6random23additive_combine_engineINS7_26linear_congruential_engineIjLj40014ELj0ELj2147483563EEENS9_IjLj40692ELj0ELj2147483399EEEEEE18get_sampler_paramsERSt6vectorIdSaIdEE"
 "_ZN4stan4mcmc15base_static_hmcIN24model_stan_pcm_namespace14model_stan_pcmENS0_13unit_e_metricENS0_13expl_leapfrogEN5boost6random23additive_combine_engineINS7_26linear_congruential_engineIjLj40014ELj0ELj2147483563EEENS9_IjLj40692ELj0ELj2147483399EEEEEE20set_nominal_stepsizeEd"
 "_ZN4stan4mcmc15base_static_hmcIN24model_stan_pcm_namespace14model_stan_pcmENS0_13unit_e_metricENS0_13expl_leapfrogEN5boost6random23additive_combine_engineINS7_26linear_congruential_engineIjLj40014ELj0ELj2147483563EEENS9_IjLj40692ELj0ELj2147483399EEEEEE23get_sampler_param_namesERSt6vectorISsSaISsEE"
 "_ZN4stan4mcmc15base_static_hmcIN24model_stan_pcm_namespace14model_stan_pcmENS0_13unit_e_metricENS0_13expl_leapfrogEN5boost6random23additive_combine_engineINS7_26linear_congruential_engineIjLj40014ELj0ELj2147483563EEENS9_IjLj40692ELj0ELj2147483399EEEEEED0Ev"
 "_ZN4stan4mcmc15base_static_hmcIN24model_stan_pcm_namespace14model_stan_pcmENS0_13unit_e_metricENS0_13expl_leapfrogEN5boost6random23additive_combine_engineINS7_26linear_congruential_engineIjLj40014ELj0ELj2147483563EEENS9_IjLj40692ELj0ELj2147483399EEEEEED1Ev"
 "_ZN4stan4mcmc15base_static_hmcIN24model_stan_pcm_namespace14model_stan_pcmENS0_14dense_e_metricENS0_13expl_leapfrogEN5boost6random23additive_combine_engineINS7_26linear_congruential_engineIjLj40014ELj0ELj2147483563EEENS9_IjLj40692ELj0ELj2147483399EEEEEE10transitionERNS0_6sampleERNS_9callbacks6loggerE"
 "_ZN4stan4mcmc15base_static_hmcIN24model_stan_pcm_namespace14model_stan_pcmENS0_14dense_e_metricENS0_13expl_leapfrogEN5boost6random23additive_combine_engineINS7_26linear_congruential_engineIjLj40014ELj0ELj2147483563EEENS9_IjLj40692ELj0ELj2147483399EEEEEE18get_sampler_paramsERSt6vectorIdSaIdEE"
 "_ZN4stan4mcmc15base_static_hmcIN24model_stan_pcm_namespace14model_stan_pcmENS0_14dense_e_metricENS0_13expl_leapfrogEN5boost6random23additive_combine_engineINS7_26linear_congruential_engineIjLj40014ELj0ELj2147483563EEENS9_IjLj40692ELj0ELj2147483399EEEEEE20set_nominal_stepsizeEd"
 "_ZN4stan4mcmc15base_static_hmcIN24model_stan_pcm_namespace14model_stan_pcmENS0_14dense_e_metricENS0_13expl_leapfrogEN5boost6random23additive_combine_engineINS7_26linear_congruential_engineIjLj40014ELj0ELj2147483563EEENS9_IjLj40692ELj0ELj2147483399EEEEEE23get_sampler_param_namesERSt6vectorISsSaISsEE"
 "_ZN4stan4mcmc15base_static_hmcIN24model_stan_pcm_namespace14model_stan_pcmENS0_14dense_e_metricENS0_13expl_leapfrogEN5boost6random23additive_combine_engineINS7_26linear_congruential_engineIjLj40014ELj0ELj2147483563EEENS9_IjLj40692ELj0ELj2147483399EEEEEED0Ev"
 "_ZN4stan4mcmc15base_static_hmcIN24model_stan_pcm_namespace14model_stan_pcmENS0_14dense_e_metricENS0_13expl_leapfrogEN5boost6random23additive_combine_engineINS7_26linear_congruential_engineIjLj40014ELj0ELj2147483563EEENS9_IjLj40692ELj0ELj2147483399EEEEEED1Ev"
 "_ZN4stan4mcmc15base_static_hmcIN26model_stan_steps_namespace16model_stan_stepsENS0_13diag_e_metricENS0_13expl_leapfrogEN5boost6random23additive_combine_engineINS7_26linear_congruential_engineIjLj40014ELj0ELj2147483563EEENS9_IjLj40692ELj0ELj2147483399EEEEEE10transitionERNS0_6sampleERNS_9callbacks6loggerE"
 "_ZN4stan4mcmc15base_static_hmcIN26model_stan_steps_namespace16model_stan_stepsENS0_13diag_e_metricENS0_13expl_leapfrogEN5boost6random23additive_combine_engineINS7_26linear_congruential_engineIjLj40014ELj0ELj2147483563EEENS9_IjLj40692ELj0ELj2147483399EEEEEE18get_sampler_paramsERSt6vectorIdSaIdEE"
 "_ZN4stan4mcmc15base_static_hmcIN26model_stan_steps_namespace16model_stan_stepsENS0_13diag_e_metricENS0_13expl_leapfrogEN5boost6random23additive_combine_engineINS7_26linear_congruential_engineIjLj40014ELj0ELj2147483563EEENS9_IjLj40692ELj0ELj2147483399EEEEEE20set_nominal_stepsizeEd"
 "_ZN4stan4mcmc15base_static_hmcIN26model_stan_steps_namespace16model_stan_stepsENS0_13diag_e_metricENS0_13expl_leapfrogEN5boost6random23additive_combine_engineINS7_26linear_congruential_engineIjLj40014ELj0ELj2147483563EEENS9_IjLj40692ELj0ELj2147483399EEEEEE23get_sampler_param_namesERSt6vectorISsSaISsEE"
 "_ZN4stan4mcmc15base_static_hmcIN26model_stan_steps_namespace16model_stan_stepsENS0_13diag_e_metricENS0_13expl_leapfrogEN5boost6random23additive_combine_engineINS7_26linear_congruential_engineIjLj40014ELj0ELj2147483563EEENS9_IjLj40692ELj0ELj2147483399EEEEEED0Ev"
 "_ZN4stan4mcmc15base_static_hmcIN26model_stan_steps_namespace16model_stan_stepsENS0_13diag_e_metricENS0_13expl_leapfrogEN5boost6random23additive_combine_engineINS7_26linear_congruential_engineIjLj40014ELj0ELj2147483563EEENS9_IjLj40692ELj0ELj2147483399EEEEEED1Ev"
 "_ZN4stan4mcmc15base_static_hmcIN26model_stan_steps_namespace16model_stan_stepsENS0_13unit_e_metricENS0_13expl_leapfrogEN5boost6random23additive_combine_engineINS7_26linear_congruential_engineIjLj40014ELj0ELj2147483563EEENS9_IjLj40692ELj0ELj2147483399EEEEEE10transitionERNS0_6sampleERNS_9callbacks6loggerE"
 "_ZN4stan4mcmc15base_static_hmcIN26model_stan_steps_namespace16model_stan_stepsENS0_13unit_e_metricENS0_13expl_leapfrogEN5boost6random23additive_combine_engineINS7_26linear_congruential_engineIjLj40014ELj0ELj2147483563EEENS9_IjLj40692ELj0ELj2147483399EEEEEE18get_sampler_paramsERSt6vectorIdSaIdEE"
 "_ZN4stan4mcmc15base_static_hmcIN26model_stan_steps_namespace16model_stan_stepsENS0_13unit_e_metricENS0_13expl_leapfrogEN5boost6random23additive_combine_engineINS7_26linear_congruential_engineIjLj40014ELj0ELj2147483563EEENS9_IjLj40692ELj0ELj2147483399EEEEEE20set_nominal_stepsizeEd"
 "_ZN4stan4mcmc15base_static_hmcIN26model_stan_steps_namespace16model_stan_stepsENS0_13unit_e_metricENS0_13expl_leapfrogEN5boost6random23additive_combine_engineINS7_26linear_congruential_engineIjLj40014ELj0ELj2147483563EEENS9_IjLj40692ELj0ELj2147483399EEEEEE23get_sampler_param_namesERSt6vectorISsSaISsEE"
 "_ZN4stan4mcmc15base_static_hmcIN26model_stan_steps_namespace16model_stan_stepsENS0_13unit_e_metricENS0_13expl_leapfrogEN5boost6random23additive_combine_engineINS7_26linear_congruential_engineIjLj40014ELj0ELj2147483563EEENS9_IjLj40692ELj0ELj2147483399EEEEEED0Ev"
 "_ZN4stan4mcmc15base_static_hmcIN26model_stan_steps_namespace16model_stan_stepsENS0_13unit_e_metricENS0_13expl_leapfrogEN5boost6random23additive_combine_engineINS7_26linear_congruential_engineIjLj40014ELj0ELj2147483563EEENS9_IjLj40692ELj0ELj2147483399EEEEEED1Ev"
 "_ZN4stan4mcmc15base_static_hmcIN26model_stan_steps_namespace16model_stan_stepsENS0_14dense_e_metricENS0_13expl_leapfrogEN5boost6random23additive_combine_engineINS7_26linear_congruential_engineIjLj40014ELj0ELj2147483563EEENS9_IjLj40692ELj0ELj2147483399EEEEEE10transitionERNS0_6sampleERNS_9callbacks6loggerE"
 "_ZN4stan4mcmc15base_static_hmcIN26model_stan_steps_namespace16model_stan_stepsENS0_14dense_e_metricENS0_13expl_leapfrogEN5boost6random23additive_combine_engineINS7_26linear_congruential_engineIjLj40014ELj0ELj2147483563EEENS9_IjLj40692ELj0ELj2147483399EEEEEE18get_sampler_paramsERSt6vectorIdSaIdEE"
 "_ZN4stan4mcmc15base_static_hmcIN26model_stan_steps_namespace16model_stan_stepsENS0_14dense_e_metricENS0_13expl_leapfrogEN5boost6random23additive_combine_engineINS7_26linear_congruential_engineIjLj40014ELj0ELj2147483563EEENS9_IjLj40692ELj0ELj2147483399EEEEEE20set_nominal_stepsizeEd"
 "_ZN4stan4mcmc15base_static_hmcIN26model_stan_steps_namespace16model_stan_stepsENS0_14dense_e_metricENS0_13expl_leapfrogEN5boost6random23additive_combine_engineINS7_26linear_congruential_engineIjLj40014ELj0ELj2147483563EEENS9_IjLj40692ELj0ELj2147483399EEEEEE23get_sampler_param_namesERSt6vectorISsSaISsEE"
 "_ZN4stan4mcmc15base_static_hmcIN26model_stan_steps_namespace16model_stan_stepsENS0_14dense_e_metricENS0_13expl_leapfrogEN5boost6random23additive_combine_engineINS7_26linear_congruential_engineIjLj40014ELj0ELj2147483563EEENS9_IjLj40692ELj0ELj2147483399EEEEEED0Ev"
 "_ZN4stan4mcmc15base_static_hmcIN26model_stan_steps_namespace16model_stan_stepsENS0_14dense_e_metricENS0_13expl_leapfrogEN5boost6random23additive_combine_engineINS7_26linear_congruential_engineIjLj40014ELj0ELj2147483563EEENS9_IjLj40692ELj0ELj2147483399EEEEEED1Ev"
 "_ZN4stan4mcmc15base_static_hmcIN30model_stan_boeck_ext_namespace20model_stan_boeck_extENS0_13diag_e_metricENS0_13expl_leapfrogEN5boost6random23additive_combine_engineINS7_26linear_congruential_engineIjLj40014ELj0ELj2147483563EEENS9_IjLj40692ELj0ELj2147483399EEEEEE10transitionERNS0_6sampleERNS_9callbacks6loggerE"
 "_ZN4stan4mcmc15base_static_hmcIN30model_stan_boeck_ext_namespace20model_stan_boeck_extENS0_13diag_e_metricENS0_13expl_leapfrogEN5boost6random23additive_combine_engineINS7_26linear_congruential_engineIjLj40014ELj0ELj2147483563EEENS9_IjLj40692ELj0ELj2147483399EEEEEE18get_sampler_paramsERSt6vectorIdSaIdEE"
 "_ZN4stan4mcmc15base_static_hmcIN30model_stan_boeck_ext_namespace20model_stan_boeck_extENS0_13diag_e_metricENS0_13expl_leapfrogEN5boost6random23additive_combine_engineINS7_26linear_congruential_engineIjLj40014ELj0ELj2147483563EEENS9_IjLj40692ELj0ELj2147483399EEEEEE20set_nominal_stepsizeEd"
 "_ZN4stan4mcmc15base_static_hmcIN30model_stan_boeck_ext_namespace20model_stan_boeck_extENS0_13diag_e_metricENS0_13expl_leapfrogEN5boost6random23additive_combine_engineINS7_26linear_congruential_engineIjLj40014ELj0ELj2147483563EEENS9_IjLj40692ELj0ELj2147483399EEEEEE23get_sampler_param_namesERSt6vectorISsSaISsEE"
 "_ZN4stan4mcmc15base_static_hmcIN30model_stan_boeck_ext_namespace20model_stan_boeck_extENS0_13diag_e_metricENS0_13expl_leapfrogEN5boost6random23additive_combine_engineINS7_26linear_congruential_engineIjLj40014ELj0ELj2147483563EEENS9_IjLj40692ELj0ELj2147483399EEEEEED0Ev"
 "_ZN4stan4mcmc15base_static_hmcIN30model_stan_boeck_ext_namespace20model_stan_boeck_extENS0_13diag_e_metricENS0_13expl_leapfrogEN5boost6random23additive_combine_engineINS7_26linear_congruential_engineIjLj40014ELj0ELj2147483563EEENS9_IjLj40692ELj0ELj2147483399EEEEEED1Ev"
 "_ZN4stan4mcmc15base_static_hmcIN30model_stan_boeck_ext_namespace20model_stan_boeck_extENS0_13unit_e_metricENS0_13expl_leapfrogEN5boost6random23additive_combine_engineINS7_26linear_congruential_engineIjLj40014ELj0ELj2147483563EEENS9_IjLj40692ELj0ELj2147483399EEEEEE10transitionERNS0_6sampleERNS_9callbacks6loggerE"
 "_ZN4stan4mcmc15base_static_hmcIN30model_stan_boeck_ext_namespace20model_stan_boeck_extENS0_13unit_e_metricENS0_13expl_leapfrogEN5boost6random23additive_combine_engineINS7_26linear_congruential_engineIjLj40014ELj0ELj2147483563EEENS9_IjLj40692ELj0ELj2147483399EEEEEE18get_sampler_paramsERSt6vectorIdSaIdEE"
 "_ZN4stan4mcmc15base_static_hmcIN30model_stan_boeck_ext_namespace20model_stan_boeck_extENS0_13unit_e_metricENS0_13expl_leapfrogEN5boost6random23additive_combine_engineINS7_26linear_congruential_engineIjLj40014ELj0ELj2147483563EEENS9_IjLj40692ELj0ELj2147483399EEEEEE20set_nominal_stepsizeEd"
 "_ZN4stan4mcmc15base_static_hmcIN30model_stan_boeck_ext_namespace20model_stan_boeck_extENS0_13unit_e_metricENS0_13expl_leapfrogEN5boost6random23additive_combine_engineINS7_26linear_congruential_engineIjLj40014ELj0ELj2147483563EEENS9_IjLj40692ELj0ELj2147483399EEEEEE23get_sampler_param_namesERSt6vectorISsSaISsEE"
 "_ZN4stan4mcmc15base_static_hmcIN30model_stan_boeck_ext_namespace20model_stan_boeck_extENS0_13unit_e_metricENS0_13expl_leapfrogEN5boost6random23additive_combine_engineINS7_26linear_congruential_engineIjLj40014ELj0ELj2147483563EEENS9_IjLj40692ELj0ELj2147483399EEEEEED0Ev"
 "_ZN4stan4mcmc15base_static_hmcIN30model_stan_boeck_ext_namespace20model_stan_boeck_extENS0_13unit_e_metricENS0_13expl_leapfrogEN5boost6random23additive_combine_engineINS7_26linear_congruential_engineIjLj40014ELj0ELj2147483563EEENS9_IjLj40692ELj0ELj2147483399EEEEEED1Ev"
 "_ZN4stan4mcmc15base_static_hmcIN30model_stan_boeck_ext_namespace20model_stan_boeck_extENS0_14dense_e_metricENS0_13expl_leapfrogEN5boost6random23additive_combine_engineINS7_26linear_congruential_engineIjLj40014ELj0ELj2147483563EEENS9_IjLj40692ELj0ELj2147483399EEEEEE10transitionERNS0_6sampleERNS_9callbacks6loggerE"
 "_ZN4stan4mcmc15base_static_hmcIN30model_stan_boeck_ext_namespace20model_stan_boeck_extENS0_14dense_e_metricENS0_13expl_leapfrogEN5boost6random23additive_combine_engineINS7_26linear_congruential_engineIjLj40014ELj0ELj2147483563EEENS9_IjLj40692ELj0ELj2147483399EEEEEE18get_sampler_paramsERSt6vectorIdSaIdEE"
 "_ZN4stan4mcmc15base_static_hmcIN30model_stan_boeck_ext_namespace20model_stan_boeck_extENS0_14dense_e_metricENS0_13expl_leapfrogEN5boost6random23additive_combine_engineINS7_26linear_congruential_engineIjLj40014ELj0ELj2147483563EEENS9_IjLj40692ELj0ELj2147483399EEEEEE20set_nominal_stepsizeEd"
 "_ZN4stan4mcmc15base_static_hmcIN30model_stan_boeck_ext_namespace20model_stan_boeck_extENS0_14dense_e_metricENS0_13expl_leapfrogEN5boost6random23additive_combine_engineINS7_26linear_congruential_engineIjLj40014ELj0ELj2147483563EEENS9_IjLj40692ELj0ELj2147483399EEEEEE23get_sampler_param_namesERSt6vectorISsSaISsEE"
 "_ZN4stan4mcmc15base_static_hmcIN30model_stan_boeck_ext_namespace20model_stan_boeck_extENS0_14dense_e_metricENS0_13expl_leapfrogEN5boost6random23additive_combine_engineINS7_26linear_congruential_engineIjLj40014ELj0ELj2147483563EEENS9_IjLj40692ELj0ELj2147483399EEEEEED0Ev"
 "_ZN4stan4mcmc15base_static_hmcIN30model_stan_boeck_ext_namespace20model_stan_boeck_extENS0_14dense_e_metricENS0_13expl_leapfrogEN5boost6random23additive_combine_engineINS7_26linear_congruential_engineIjLj40014ELj0ELj2147483563EEENS9_IjLj40692ELj0ELj2147483399EEEEEED1Ev"
 "_ZN4stan4mcmc15base_static_hmcIN31model_stan_boeck_2012_namespace21model_stan_boeck_2012ENS0_13diag_e_metricENS0_13expl_leapfrogEN5boost6random23additive_combine_engineINS7_26linear_congruential_engineIjLj40014ELj0ELj2147483563EEENS9_IjLj40692ELj0ELj2147483399EEEEEE10transitionERNS0_6sampleERNS_9callbacks6loggerE"
 "_ZN4stan4mcmc15base_static_hmcIN31model_stan_boeck_2012_namespace21model_stan_boeck_2012ENS0_13diag_e_metricENS0_13expl_leapfrogEN5boost6random23additive_combine_engineINS7_26linear_congruential_engineIjLj40014ELj0ELj2147483563EEENS9_IjLj40692ELj0ELj2147483399EEEEEE18get_sampler_paramsERSt6vectorIdSaIdEE"
 "_ZN4stan4mcmc15base_static_hmcIN31model_stan_boeck_2012_namespace21model_stan_boeck_2012ENS0_13diag_e_metricENS0_13expl_leapfrogEN5boost6random23additive_combine_engineINS7_26linear_congruential_engineIjLj40014ELj0ELj2147483563EEENS9_IjLj40692ELj0ELj2147483399EEEEEE20set_nominal_stepsizeEd"
 "_ZN4stan4mcmc15base_static_hmcIN31model_stan_boeck_2012_namespace21model_stan_boeck_2012ENS0_13diag_e_metricENS0_13expl_leapfrogEN5boost6random23additive_combine_engineINS7_26linear_congruential_engineIjLj40014ELj0ELj2147483563EEENS9_IjLj40692ELj0ELj2147483399EEEEEE23get_sampler_param_namesERSt6vectorISsSaISsEE"
 "_ZN4stan4mcmc15base_static_hmcIN31model_stan_boeck_2012_namespace21model_stan_boeck_2012ENS0_13diag_e_metricENS0_13expl_leapfrogEN5boost6random23additive_combine_engineINS7_26linear_congruential_engineIjLj40014ELj0ELj2147483563EEENS9_IjLj40692ELj0ELj2147483399EEEEEED0Ev"
 "_ZN4stan4mcmc15base_static_hmcIN31model_stan_boeck_2012_namespace21model_stan_boeck_2012ENS0_13diag_e_metricENS0_13expl_leapfrogEN5boost6random23additive_combine_engineINS7_26linear_congruential_engineIjLj40014ELj0ELj2147483563EEENS9_IjLj40692ELj0ELj2147483399EEEEEED1Ev"
 "_ZN4stan4mcmc15base_static_hmcIN31model_stan_boeck_2012_namespace21model_stan_boeck_2012ENS0_13unit_e_metricENS0_13expl_leapfrogEN5boost6random23additive_combine_engineINS7_26linear_congruential_engineIjLj40014ELj0ELj2147483563EEENS9_IjLj40692ELj0ELj2147483399EEEEEE10transitionERNS0_6sampleERNS_9callbacks6loggerE"
 "_ZN4stan4mcmc15base_static_hmcIN31model_stan_boeck_2012_namespace21model_stan_boeck_2012ENS0_13unit_e_metricENS0_13expl_leapfrogEN5boost6random23additive_combine_engineINS7_26linear_congruential_engineIjLj40014ELj0ELj2147483563EEENS9_IjLj40692ELj0ELj2147483399EEEEEE18get_sampler_paramsERSt6vectorIdSaIdEE"
 "_ZN4stan4mcmc15base_static_hmcIN31model_stan_boeck_2012_namespace21model_stan_boeck_2012ENS0_13unit_e_metricENS0_13expl_leapfrogEN5boost6random23additive_combine_engineINS7_26linear_congruential_engineIjLj40014ELj0ELj2147483563EEENS9_IjLj40692ELj0ELj2147483399EEEEEE20set_nominal_stepsizeEd"
 "_ZN4stan4mcmc15base_static_hmcIN31model_stan_boeck_2012_namespace21model_stan_boeck_2012ENS0_13unit_e_metricENS0_13expl_leapfrogEN5boost6random23additive_combine_engineINS7_26linear_congruential_engineIjLj40014ELj0ELj2147483563EEENS9_IjLj40692ELj0ELj2147483399EEEEEE23get_sampler_param_namesERSt6vectorISsSaISsEE"
 "_ZN4stan4mcmc15base_static_hmcIN31model_stan_boeck_2012_namespace21model_stan_boeck_2012ENS0_13unit_e_metricENS0_13expl_leapfrogEN5boost6random23additive_combine_engineINS7_26linear_congruential_engineIjLj40014ELj0ELj2147483563EEENS9_IjLj40692ELj0ELj2147483399EEEEEED0Ev"
 "_ZN4stan4mcmc15base_static_hmcIN31model_stan_boeck_2012_namespace21model_stan_boeck_2012ENS0_13unit_e_metricENS0_13expl_leapfrogEN5boost6random23additive_combine_engineINS7_26linear_congruential_engineIjLj40014ELj0ELj2147483563EEENS9_IjLj40692ELj0ELj2147483399EEEEEED1Ev"
 "_ZN4stan4mcmc15base_static_hmcIN31model_stan_boeck_2012_namespace21model_stan_boeck_2012ENS0_14dense_e_metricENS0_13expl_leapfrogEN5boost6random23additive_combine_engineINS7_26linear_congruential_engineIjLj40014ELj0ELj2147483563EEENS9_IjLj40692ELj0ELj2147483399EEEEEE10transitionERNS0_6sampleERNS_9callbacks6loggerE"
 "_ZN4stan4mcmc15base_static_hmcIN31model_stan_boeck_2012_namespace21model_stan_boeck_2012ENS0_14dense_e_metricENS0_13expl_leapfrogEN5boost6random23additive_combine_engineINS7_26linear_congruential_engineIjLj40014ELj0ELj2147483563EEENS9_IjLj40692ELj0ELj2147483399EEEEEE18get_sampler_paramsERSt6vectorIdSaIdEE"
 "_ZN4stan4mcmc15base_static_hmcIN31model_stan_boeck_2012_namespace21model_stan_boeck_2012ENS0_14dense_e_metricENS0_13expl_leapfrogEN5boost6random23additive_combine_engineINS7_26linear_congruential_engineIjLj40014ELj0ELj2147483563EEENS9_IjLj40692ELj0ELj2147483399EEEEEE20set_nominal_stepsizeEd"
 "_ZN4stan4mcmc15base_static_hmcIN31model_stan_boeck_2012_namespace21model_stan_boeck_2012ENS0_14dense_e_metricENS0_13expl_leapfrogEN5boost6random23additive_combine_engineINS7_26linear_congruential_engineIjLj40014ELj0ELj2147483563EEENS9_IjLj40692ELj0ELj2147483399EEEEEE23get_sampler_param_namesERSt6vectorISsSaISsEE"
 "_ZN4stan4mcmc15base_static_hmcIN31model_stan_boeck_2012_namespace21model_stan_boeck_2012ENS0_14dense_e_metricENS0_13expl_leapfrogEN5boost6random23additive_combine_engineINS7_26linear_congruential_engineIjLj40014ELj0ELj2147483563EEENS9_IjLj40692ELj0ELj2147483399EEEEEED0Ev"
 "_ZN4stan4mcmc15base_static_hmcIN31model_stan_boeck_2012_namespace21model_stan_boeck_2012ENS0_14dense_e_metricENS0_13expl_leapfrogEN5boost6random23additive_combine_engineINS7_26linear_congruential_engineIjLj40014ELj0ELj2147483563EEENS9_IjLj40692ELj0ELj2147483399EEEEEED1Ev"
 "_ZN4stan4mcmc15base_static_hmcIN31model_stan_boeck_ext2_namespace21model_stan_boeck_ext2ENS0_13diag_e_metricENS0_13expl_leapfrogEN5boost6random23additive_combine_engineINS7_26linear_congruential_engineIjLj40014ELj0ELj2147483563EEENS9_IjLj40692ELj0ELj2147483399EEEEEE10transitionERNS0_6sampleERNS_9callbacks6loggerE"
 "_ZN4stan4mcmc15base_static_hmcIN31model_stan_boeck_ext2_namespace21model_stan_boeck_ext2ENS0_13diag_e_metricENS0_13expl_leapfrogEN5boost6random23additive_combine_engineINS7_26linear_congruential_engineIjLj40014ELj0ELj2147483563EEENS9_IjLj40692ELj0ELj2147483399EEEEEE18get_sampler_paramsERSt6vectorIdSaIdEE"
 "_ZN4stan4mcmc15base_static_hmcIN31model_stan_boeck_ext2_namespace21model_stan_boeck_ext2ENS0_13diag_e_metricENS0_13expl_leapfrogEN5boost6random23additive_combine_engineINS7_26linear_congruential_engineIjLj40014ELj0ELj2147483563EEENS9_IjLj40692ELj0ELj2147483399EEEEEE20set_nominal_stepsizeEd"
 "_ZN4stan4mcmc15base_static_hmcIN31model_stan_boeck_ext2_namespace21model_stan_boeck_ext2ENS0_13diag_e_metricENS0_13expl_leapfrogEN5boost6random23additive_combine_engineINS7_26linear_congruential_engineIjLj40014ELj0ELj2147483563EEENS9_IjLj40692ELj0ELj2147483399EEEEEE23get_sampler_param_namesERSt6vectorISsSaISsEE"
 "_ZN4stan4mcmc15base_static_hmcIN31model_stan_boeck_ext2_namespace21model_stan_boeck_ext2ENS0_13diag_e_metricENS0_13expl_leapfrogEN5boost6random23additive_combine_engineINS7_26linear_congruential_engineIjLj40014ELj0ELj2147483563EEENS9_IjLj40692ELj0ELj2147483399EEEEEED0Ev"
 "_ZN4stan4mcmc15base_static_hmcIN31model_stan_boeck_ext2_namespace21model_stan_boeck_ext2ENS0_13diag_e_metricENS0_13expl_leapfrogEN5boost6random23additive_combine_engineINS7_26linear_congruential_engineIjLj40014ELj0ELj2147483563EEENS9_IjLj40692ELj0ELj2147483399EEEEEED1Ev"
 "_ZN4stan4mcmc15base_static_hmcIN31model_stan_boeck_ext2_namespace21model_stan_boeck_ext2ENS0_13unit_e_metricENS0_13expl_leapfrogEN5boost6random23additive_combine_engineINS7_26linear_congruential_engineIjLj40014ELj0ELj2147483563EEENS9_IjLj40692ELj0ELj2147483399EEEEEE10transitionERNS0_6sampleERNS_9callbacks6loggerE"
 "_ZN4stan4mcmc15base_static_hmcIN31model_stan_boeck_ext2_namespace21model_stan_boeck_ext2ENS0_13unit_e_metricENS0_13expl_leapfrogEN5boost6random23additive_combine_engineINS7_26linear_congruential_engineIjLj40014ELj0ELj2147483563EEENS9_IjLj40692ELj0ELj2147483399EEEEEE18get_sampler_paramsERSt6vectorIdSaIdEE"
 "_ZN4stan4mcmc15base_static_hmcIN31model_stan_boeck_ext2_namespace21model_stan_boeck_ext2ENS0_13unit_e_metricENS0_13expl_leapfrogEN5boost6random23additive_combine_engineINS7_26linear_congruential_engineIjLj40014ELj0ELj2147483563EEENS9_IjLj40692ELj0ELj2147483399EEEEEE20set_nominal_stepsizeEd"
 "_ZN4stan4mcmc15base_static_hmcIN31model_stan_boeck_ext2_namespace21model_stan_boeck_ext2ENS0_13unit_e_metricENS0_13expl_leapfrogEN5boost6random23additive_combine_engineINS7_26linear_congruential_engineIjLj40014ELj0ELj2147483563EEENS9_IjLj40692ELj0ELj2147483399EEEEEE23get_sampler_param_namesERSt6vectorISsSaISsEE"
 "_ZN4stan4mcmc15base_static_hmcIN31model_stan_boeck_ext2_namespace21model_stan_boeck_ext2ENS0_13unit_e_metricENS0_13expl_leapfrogEN5boost6random23additive_combine_engineINS7_26linear_congruential_engineIjLj40014ELj0ELj2147483563EEENS9_IjLj40692ELj0ELj2147483399EEEEEED0Ev"
 "_ZN4stan4mcmc15base_static_hmcIN31model_stan_boeck_ext2_namespace21model_stan_boeck_ext2ENS0_13unit_e_metricENS0_13expl_leapfrogEN5boost6random23additive_combine_engineINS7_26linear_congruential_engineIjLj40014ELj0ELj2147483563EEENS9_IjLj40692ELj0ELj2147483399EEEEEED1Ev"
 "_ZN4stan4mcmc15base_static_hmcIN31model_stan_boeck_ext2_namespace21model_stan_boeck_ext2ENS0_14dense_e_metricENS0_13expl_leapfrogEN5boost6random23additive_combine_engineINS7_26linear_congruential_engineIjLj40014ELj0ELj2147483563EEENS9_IjLj40692ELj0ELj2147483399EEEEEE10transitionERNS0_6sampleERNS_9callbacks6loggerE"
 "_ZN4stan4mcmc15base_static_hmcIN31model_stan_boeck_ext2_namespace21model_stan_boeck_ext2ENS0_14dense_e_metricENS0_13expl_leapfrogEN5boost6random23additive_combine_engineINS7_26linear_congruential_engineIjLj40014ELj0ELj2147483563EEENS9_IjLj40692ELj0ELj2147483399EEEEEE18get_sampler_paramsERSt6vectorIdSaIdEE"
 "_ZN4stan4mcmc15base_static_hmcIN31model_stan_boeck_ext2_namespace21model_stan_boeck_ext2ENS0_14dense_e_metricENS0_13expl_leapfrogEN5boost6random23additive_combine_engineINS7_26linear_congruential_engineIjLj40014ELj0ELj2147483563EEENS9_IjLj40692ELj0ELj2147483399EEEEEE20set_nominal_stepsizeEd"
 "_ZN4stan4mcmc15base_static_hmcIN31model_stan_boeck_ext2_namespace21model_stan_boeck_ext2ENS0_14dense_e_metricENS0_13expl_leapfrogEN5boost6random23additive_combine_engineINS7_26linear_congruential_engineIjLj40014ELj0ELj2147483563EEENS9_IjLj40692ELj0ELj2147483399EEEEEE23get_sampler_param_namesERSt6vectorISsSaISsEE"
 "_ZN4stan4mcmc15base_static_hmcIN31model_stan_boeck_ext2_namespace21model_stan_boeck_ext2ENS0_14dense_e_metricENS0_13expl_leapfrogEN5boost6random23additive_combine_engineINS7_26linear_congruential_engineIjLj40014ELj0ELj2147483563EEENS9_IjLj40692ELj0ELj2147483399EEEEEED0Ev"
 "_ZN4stan4mcmc15base_static_hmcIN31model_stan_boeck_ext2_namespace21model_stan_boeck_ext2ENS0_14dense_e_metricENS0_13expl_leapfrogEN5boost6random23additive_combine_engineINS7_26linear_congruential_engineIjLj40014ELj0ELj2147483563EEENS9_IjLj40692ELj0ELj2147483399EEEEEED1Ev"
 "_ZN4stan4mcmc15base_static_hmcIN32model_stan_boeck_shift_namespace22model_stan_boeck_shiftENS0_13diag_e_metricENS0_13expl_leapfrogEN5boost6random23additive_combine_engineINS7_26linear_congruential_engineIjLj40014ELj0ELj2147483563EEENS9_IjLj40692ELj0ELj2147483399EEEEEE10transitionERNS0_6sampleERNS_9callbacks6loggerE"
 "_ZN4stan4mcmc15base_static_hmcIN32model_stan_boeck_shift_namespace22model_stan_boeck_shiftENS0_13diag_e_metricENS0_13expl_leapfrogEN5boost6random23additive_combine_engineINS7_26linear_congruential_engineIjLj40014ELj0ELj2147483563EEENS9_IjLj40692ELj0ELj2147483399EEEEEE18get_sampler_paramsERSt6vectorIdSaIdEE"
 "_ZN4stan4mcmc15base_static_hmcIN32model_stan_boeck_shift_namespace22model_stan_boeck_shiftENS0_13diag_e_metricENS0_13expl_leapfrogEN5boost6random23additive_combine_engineINS7_26linear_congruential_engineIjLj40014ELj0ELj2147483563EEENS9_IjLj40692ELj0ELj2147483399EEEEEE20set_nominal_stepsizeEd"
 "_ZN4stan4mcmc15base_static_hmcIN32model_stan_boeck_shift_namespace22model_stan_boeck_shiftENS0_13diag_e_metricENS0_13expl_leapfrogEN5boost6random23additive_combine_engineINS7_26linear_congruential_engineIjLj40014ELj0ELj2147483563EEENS9_IjLj40692ELj0ELj2147483399EEEEEE23get_sampler_param_namesERSt6vectorISsSaISsEE"
 "_ZN4stan4mcmc15base_static_hmcIN32model_stan_boeck_shift_namespace22model_stan_boeck_shiftENS0_13diag_e_metricENS0_13expl_leapfrogEN5boost6random23additive_combine_engineINS7_26linear_congruential_engineIjLj40014ELj0ELj2147483563EEENS9_IjLj40692ELj0ELj2147483399EEEEEED0Ev"
 "_ZN4stan4mcmc15base_static_hmcIN32model_stan_boeck_shift_namespace22model_stan_boeck_shiftENS0_13diag_e_metricENS0_13expl_leapfrogEN5boost6random23additive_combine_engineINS7_26linear_congruential_engineIjLj40014ELj0ELj2147483563EEENS9_IjLj40692ELj0ELj2147483399EEEEEED1Ev"
 "_ZN4stan4mcmc15base_static_hmcIN32model_stan_boeck_shift_namespace22model_stan_boeck_shiftENS0_13unit_e_metricENS0_13expl_leapfrogEN5boost6random23additive_combine_engineINS7_26linear_congruential_engineIjLj40014ELj0ELj2147483563EEENS9_IjLj40692ELj0ELj2147483399EEEEEE10transitionERNS0_6sampleERNS_9callbacks6loggerE"
 "_ZN4stan4mcmc15base_static_hmcIN32model_stan_boeck_shift_namespace22model_stan_boeck_shiftENS0_13unit_e_metricENS0_13expl_leapfrogEN5boost6random23additive_combine_engineINS7_26linear_congruential_engineIjLj40014ELj0ELj2147483563EEENS9_IjLj40692ELj0ELj2147483399EEEEEE18get_sampler_paramsERSt6vectorIdSaIdEE"
 "_ZN4stan4mcmc15base_static_hmcIN32model_stan_boeck_shift_namespace22model_stan_boeck_shiftENS0_13unit_e_metricENS0_13expl_leapfrogEN5boost6random23additive_combine_engineINS7_26linear_congruential_engineIjLj40014ELj0ELj2147483563EEENS9_IjLj40692ELj0ELj2147483399EEEEEE20set_nominal_stepsizeEd"
 "_ZN4stan4mcmc15base_static_hmcIN32model_stan_boeck_shift_namespace22model_stan_boeck_shiftENS0_13unit_e_metricENS0_13expl_leapfrogEN5boost6random23additive_combine_engineINS7_26linear_congruential_engineIjLj40014ELj0ELj2147483563EEENS9_IjLj40692ELj0ELj2147483399EEEEEE23get_sampler_param_namesERSt6vectorISsSaISsEE"
 "_ZN4stan4mcmc15base_static_hmcIN32model_stan_boeck_shift_namespace22model_stan_boeck_shiftENS0_13unit_e_metricENS0_13expl_leapfrogEN5boost6random23additive_combine_engineINS7_26linear_congruential_engineIjLj40014ELj0ELj2147483563EEENS9_IjLj40692ELj0ELj2147483399EEEEEED0Ev"
 "_ZN4stan4mcmc15base_static_hmcIN32model_stan_boeck_shift_namespace22model_stan_boeck_shiftENS0_13unit_e_metricENS0_13expl_leapfrogEN5boost6random23additive_combine_engineINS7_26linear_congruential_engineIjLj40014ELj0ELj2147483563EEENS9_IjLj40692ELj0ELj2147483399EEEEEED1Ev"
 "_ZN4stan4mcmc15base_static_hmcIN32model_stan_boeck_shift_namespace22model_stan_boeck_shiftENS0_14dense_e_metricENS0_13expl_leapfrogEN5boost6random23additive_combine_engineINS7_26linear_congruential_engineIjLj40014ELj0ELj2147483563EEENS9_IjLj40692ELj0ELj2147483399EEEEEE10transitionERNS0_6sampleERNS_9callbacks6loggerE"
 "_ZN4stan4mcmc15base_static_hmcIN32model_stan_boeck_shift_namespace22model_stan_boeck_shiftENS0_14dense_e_metricENS0_13expl_leapfrogEN5boost6random23additive_combine_engineINS7_26linear_congruential_engineIjLj40014ELj0ELj2147483563EEENS9_IjLj40692ELj0ELj2147483399EEEEEE18get_sampler_paramsERSt6vectorIdSaIdEE"
 "_ZN4stan4mcmc15base_static_hmcIN32model_stan_boeck_shift_namespace22model_stan_boeck_shiftENS0_14dense_e_metricENS0_13expl_leapfrogEN5boost6random23additive_combine_engineINS7_26linear_congruential_engineIjLj40014ELj0ELj2147483563EEENS9_IjLj40692ELj0ELj2147483399EEEEEE20set_nominal_stepsizeEd"
 "_ZN4stan4mcmc15base_static_hmcIN32model_stan_boeck_shift_namespace22model_stan_boeck_shiftENS0_14dense_e_metricENS0_13expl_leapfrogEN5boost6random23additive_combine_engineINS7_26linear_congruential_engineIjLj40014ELj0ELj2147483563EEENS9_IjLj40692ELj0ELj2147483399EEEEEE23get_sampler_param_namesERSt6vectorISsSaISsEE"
 "_ZN4stan4mcmc15base_static_hmcIN32model_stan_boeck_shift_namespace22model_stan_boeck_shiftENS0_14dense_e_metricENS0_13expl_leapfrogEN5boost6random23additive_combine_engineINS7_26linear_congruential_engineIjLj40014ELj0ELj2147483563EEENS9_IjLj40692ELj0ELj2147483399EEEEEED0Ev"
 "_ZN4stan4mcmc15base_static_hmcIN32model_stan_boeck_shift_namespace22model_stan_boeck_shiftENS0_14dense_e_metricENS0_13expl_leapfrogEN5boost6random23additive_combine_engineINS7_26linear_congruential_engineIjLj40014ELj0ELj2147483563EEENS9_IjLj40692ELj0ELj2147483399EEEEEED1Ev"
 "_ZN4stan4mcmc15base_static_hmcIN33model_stan_boeck_ext_HH_namespace23model_stan_boeck_ext_HHENS0_13diag_e_metricENS0_13expl_leapfrogEN5boost6random23additive_combine_engineINS7_26linear_congruential_engineIjLj40014ELj0ELj2147483563EEENS9_IjLj40692ELj0ELj2147483399EEEEEE10transitionERNS0_6sampleERNS_9callbacks6loggerE"
 "_ZN4stan4mcmc15base_static_hmcIN33model_stan_boeck_ext_HH_namespace23model_stan_boeck_ext_HHENS0_13diag_e_metricENS0_13expl_leapfrogEN5boost6random23additive_combine_engineINS7_26linear_congruential_engineIjLj40014ELj0ELj2147483563EEENS9_IjLj40692ELj0ELj2147483399EEEEEE18get_sampler_paramsERSt6vectorIdSaIdEE"
 "_ZN4stan4mcmc15base_static_hmcIN33model_stan_boeck_ext_HH_namespace23model_stan_boeck_ext_HHENS0_13diag_e_metricENS0_13expl_leapfrogEN5boost6random23additive_combine_engineINS7_26linear_congruential_engineIjLj40014ELj0ELj2147483563EEENS9_IjLj40692ELj0ELj2147483399EEEEEE20set_nominal_stepsizeEd"
 "_ZN4stan4mcmc15base_static_hmcIN33model_stan_boeck_ext_HH_namespace23model_stan_boeck_ext_HHENS0_13diag_e_metricENS0_13expl_leapfrogEN5boost6random23additive_combine_engineINS7_26linear_congruential_engineIjLj40014ELj0ELj2147483563EEENS9_IjLj40692ELj0ELj2147483399EEEEEE23get_sampler_param_namesERSt6vectorISsSaISsEE"
 "_ZN4stan4mcmc15base_static_hmcIN33model_stan_boeck_ext_HH_namespace23model_stan_boeck_ext_HHENS0_13diag_e_metricENS0_13expl_leapfrogEN5boost6random23additive_combine_engineINS7_26linear_congruential_engineIjLj40014ELj0ELj2147483563EEENS9_IjLj40692ELj0ELj2147483399EEEEEED0Ev"
 "_ZN4stan4mcmc15base_static_hmcIN33model_stan_boeck_ext_HH_namespace23model_stan_boeck_ext_HHENS0_13diag_e_metricENS0_13expl_leapfrogEN5boost6random23additive_combine_engineINS7_26linear_congruential_engineIjLj40014ELj0ELj2147483563EEENS9_IjLj40692ELj0ELj2147483399EEEEEED1Ev"
 "_ZN4stan4mcmc15base_static_hmcIN33model_stan_boeck_ext_HH_namespace23model_stan_boeck_ext_HHENS0_13unit_e_metricENS0_13expl_leapfrogEN5boost6random23additive_combine_engineINS7_26linear_congruential_engineIjLj40014ELj0ELj2147483563EEENS9_IjLj40692ELj0ELj2147483399EEEEEE10transitionERNS0_6sampleERNS_9callbacks6loggerE"
 "_ZN4stan4mcmc15base_static_hmcIN33model_stan_boeck_ext_HH_namespace23model_stan_boeck_ext_HHENS0_13unit_e_metricENS0_13expl_leapfrogEN5boost6random23additive_combine_engineINS7_26linear_congruential_engineIjLj40014ELj0ELj2147483563EEENS9_IjLj40692ELj0ELj2147483399EEEEEE18get_sampler_paramsERSt6vectorIdSaIdEE"
 "_ZN4stan4mcmc15base_static_hmcIN33model_stan_boeck_ext_HH_namespace23model_stan_boeck_ext_HHENS0_13unit_e_metricENS0_13expl_leapfrogEN5boost6random23additive_combine_engineINS7_26linear_congruential_engineIjLj40014ELj0ELj2147483563EEENS9_IjLj40692ELj0ELj2147483399EEEEEE20set_nominal_stepsizeEd"
 "_ZN4stan4mcmc15base_static_hmcIN33model_stan_boeck_ext_HH_namespace23model_stan_boeck_ext_HHENS0_13unit_e_metricENS0_13expl_leapfrogEN5boost6random23additive_combine_engineINS7_26linear_congruential_engineIjLj40014ELj0ELj2147483563EEENS9_IjLj40692ELj0ELj2147483399EEEEEE23get_sampler_param_namesERSt6vectorISsSaISsEE"
 "_ZN4stan4mcmc15base_static_hmcIN33model_stan_boeck_ext_HH_namespace23model_stan_boeck_ext_HHENS0_13unit_e_metricENS0_13expl_leapfrogEN5boost6random23additive_combine_engineINS7_26linear_congruential_engineIjLj40014ELj0ELj2147483563EEENS9_IjLj40692ELj0ELj2147483399EEEEEED0Ev"
 "_ZN4stan4mcmc15base_static_hmcIN33model_stan_boeck_ext_HH_namespace23model_stan_boeck_ext_HHENS0_13unit_e_metricENS0_13expl_leapfrogEN5boost6random23additive_combine_engineINS7_26linear_congruential_engineIjLj40014ELj0ELj2147483563EEENS9_IjLj40692ELj0ELj2147483399EEEEEED1Ev"
 "_ZN4stan4mcmc15base_static_hmcIN33model_stan_boeck_ext_HH_namespace23model_stan_boeck_ext_HHENS0_14dense_e_metricENS0_13expl_leapfrogEN5boost6random23additive_combine_engineINS7_26linear_congruential_engineIjLj40014ELj0ELj2147483563EEENS9_IjLj40692ELj0ELj2147483399EEEEEE10transitionERNS0_6sampleERNS_9callbacks6loggerE"
 "_ZN4stan4mcmc15base_static_hmcIN33model_stan_boeck_ext_HH_namespace23model_stan_boeck_ext_HHENS0_14dense_e_metricENS0_13expl_leapfrogEN5boost6random23additive_combine_engineINS7_26linear_congruential_engineIjLj40014ELj0ELj2147483563EEENS9_IjLj40692ELj0ELj2147483399EEEEEE18get_sampler_paramsERSt6vectorIdSaIdEE"
 "_ZN4stan4mcmc15base_static_hmcIN33model_stan_boeck_ext_HH_namespace23model_stan_boeck_ext_HHENS0_14dense_e_metricENS0_13expl_leapfrogEN5boost6random23additive_combine_engineINS7_26linear_congruential_engineIjLj40014ELj0ELj2147483563EEENS9_IjLj40692ELj0ELj2147483399EEEEEE20set_nominal_stepsizeEd"
 "_ZN4stan4mcmc15base_static_hmcIN33model_stan_boeck_ext_HH_namespace23model_stan_boeck_ext_HHENS0_14dense_e_metricENS0_13expl_leapfrogEN5boost6random23additive_combine_engineINS7_26linear_congruential_engineIjLj40014ELj0ELj2147483563EEENS9_IjLj40692ELj0ELj2147483399EEEEEE23get_sampler_param_namesERSt6vectorISsSaISsEE"
 "_ZN4stan4mcmc15base_static_hmcIN33model_stan_boeck_ext_HH_namespace23model_stan_boeck_ext_HHENS0_14dense_e_metricENS0_13expl_leapfrogEN5boost6random23additive_combine_engineINS7_26linear_congruential_engineIjLj40014ELj0ELj2147483563EEENS9_IjLj40692ELj0ELj2147483399EEEEEED0Ev"
 "_ZN4stan4mcmc15base_static_hmcIN33model_stan_boeck_ext_HH_namespace23model_stan_boeck_ext_HHENS0_14dense_e_metricENS0_13expl_leapfrogEN5boost6random23additive_combine_engineINS7_26linear_congruential_engineIjLj40014ELj0ELj2147483563EEENS9_IjLj40692ELj0ELj2147483399EEEEEED1Ev"
 "_ZN4stan4mcmc16base_hamiltonianIN24model_stan_pcm_namespace14model_stan_pcmENS0_12diag_e_pointEN5boost6random23additive_combine_engineINS6_26linear_congruential_engineIjLj40014ELj0ELj2147483563EEENS8_IjLj40692ELj0ELj2147483399EEEEEE16write_error_msg_ERKSt9exceptionRNS_9callbacks6loggerE"
 "_ZN4stan4mcmc16base_hamiltonianIN24model_stan_pcm_namespace14model_stan_pcmENS0_12diag_e_pointEN5boost6random23additive_combine_engineINS6_26linear_congruential_engineIjLj40014ELj0ELj2147483563EEENS8_IjLj40692ELj0ELj2147483399EEEEEE25update_potential_gradientERS4_RNS_9callbacks6loggerE"
 "_ZN4stan4mcmc16base_hamiltonianIN24model_stan_pcm_namespace14model_stan_pcmENS0_12unit_e_pointEN5boost6random23additive_combine_engineINS6_26linear_congruential_engineIjLj40014ELj0ELj2147483563EEENS8_IjLj40692ELj0ELj2147483399EEEEEE16write_error_msg_ERKSt9exceptionRNS_9callbacks6loggerE"
 "_ZN4stan4mcmc16base_hamiltonianIN24model_stan_pcm_namespace14model_stan_pcmENS0_12unit_e_pointEN5boost6random23additive_combine_engineINS6_26linear_congruential_engineIjLj40014ELj0ELj2147483563EEENS8_IjLj40692ELj0ELj2147483399EEEEEE25update_potential_gradientERS4_RNS_9callbacks6loggerE"
 "_ZN4stan4mcmc16base_hamiltonianIN24model_stan_pcm_namespace14model_stan_pcmENS0_13dense_e_pointEN5boost6random23additive_combine_engineINS6_26linear_congruential_engineIjLj40014ELj0ELj2147483563EEENS8_IjLj40692ELj0ELj2147483399EEEEEE16write_error_msg_ERKSt9exceptionRNS_9callbacks6loggerE"
 "_ZN4stan4mcmc16base_hamiltonianIN24model_stan_pcm_namespace14model_stan_pcmENS0_13dense_e_pointEN5boost6random23additive_combine_engineINS6_26linear_congruential_engineIjLj40014ELj0ELj2147483563EEENS8_IjLj40692ELj0ELj2147483399EEEEEE25update_potential_gradientERS4_RNS_9callbacks6loggerE"
 "_ZN4stan4mcmc16base_hamiltonianIN26model_stan_steps_namespace16model_stan_stepsENS0_12diag_e_pointEN5boost6random23additive_combine_engineINS6_26linear_congruential_engineIjLj40014ELj0ELj2147483563EEENS8_IjLj40692ELj0ELj2147483399EEEEEE16write_error_msg_ERKSt9exceptionRNS_9callbacks6loggerE"
 "_ZN4stan4mcmc16base_hamiltonianIN26model_stan_steps_namespace16model_stan_stepsENS0_12diag_e_pointEN5boost6random23additive_combine_engineINS6_26linear_congruential_engineIjLj40014ELj0ELj2147483563EEENS8_IjLj40692ELj0ELj2147483399EEEEEE25update_potential_gradientERS4_RNS_9callbacks6loggerE"
 "_ZN4stan4mcmc16base_hamiltonianIN26model_stan_steps_namespace16model_stan_stepsENS0_12unit_e_pointEN5boost6random23additive_combine_engineINS6_26linear_congruential_engineIjLj40014ELj0ELj2147483563EEENS8_IjLj40692ELj0ELj2147483399EEEEEE16write_error_msg_ERKSt9exceptionRNS_9callbacks6loggerE"
 "_ZN4stan4mcmc16base_hamiltonianIN26model_stan_steps_namespace16model_stan_stepsENS0_12unit_e_pointEN5boost6random23additive_combine_engineINS6_26linear_congruential_engineIjLj40014ELj0ELj2147483563EEENS8_IjLj40692ELj0ELj2147483399EEEEEE25update_potential_gradientERS4_RNS_9callbacks6loggerE"
 "_ZN4stan4mcmc16base_hamiltonianIN26model_stan_steps_namespace16model_stan_stepsENS0_13dense_e_pointEN5boost6random23additive_combine_engineINS6_26linear_congruential_engineIjLj40014ELj0ELj2147483563EEENS8_IjLj40692ELj0ELj2147483399EEEEEE16write_error_msg_ERKSt9exceptionRNS_9callbacks6loggerE"
 "_ZN4stan4mcmc16base_hamiltonianIN26model_stan_steps_namespace16model_stan_stepsENS0_13dense_e_pointEN5boost6random23additive_combine_engineINS6_26linear_congruential_engineIjLj40014ELj0ELj2147483563EEENS8_IjLj40692ELj0ELj2147483399EEEEEE25update_potential_gradientERS4_RNS_9callbacks6loggerE"
 "_ZN4stan4mcmc16base_hamiltonianIN30model_stan_boeck_ext_namespace20model_stan_boeck_extENS0_12diag_e_pointEN5boost6random23additive_combine_engineINS6_26linear_congruential_engineIjLj40014ELj0ELj2147483563EEENS8_IjLj40692ELj0ELj2147483399EEEEEE16write_error_msg_ERKSt9exceptionRNS_9callbacks6loggerE"
 "_ZN4stan4mcmc16base_hamiltonianIN30model_stan_boeck_ext_namespace20model_stan_boeck_extENS0_12diag_e_pointEN5boost6random23additive_combine_engineINS6_26linear_congruential_engineIjLj40014ELj0ELj2147483563EEENS8_IjLj40692ELj0ELj2147483399EEEEEE25update_potential_gradientERS4_RNS_9callbacks6loggerE"
 "_ZN4stan4mcmc16base_hamiltonianIN30model_stan_boeck_ext_namespace20model_stan_boeck_extENS0_12unit_e_pointEN5boost6random23additive_combine_engineINS6_26linear_congruential_engineIjLj40014ELj0ELj2147483563EEENS8_IjLj40692ELj0ELj2147483399EEEEEE16write_error_msg_ERKSt9exceptionRNS_9callbacks6loggerE"
 "_ZN4stan4mcmc16base_hamiltonianIN30model_stan_boeck_ext_namespace20model_stan_boeck_extENS0_12unit_e_pointEN5boost6random23additive_combine_engineINS6_26linear_congruential_engineIjLj40014ELj0ELj2147483563EEENS8_IjLj40692ELj0ELj2147483399EEEEEE25update_potential_gradientERS4_RNS_9callbacks6loggerE"
 "_ZN4stan4mcmc16base_hamiltonianIN30model_stan_boeck_ext_namespace20model_stan_boeck_extENS0_13dense_e_pointEN5boost6random23additive_combine_engineINS6_26linear_congruential_engineIjLj40014ELj0ELj2147483563EEENS8_IjLj40692ELj0ELj2147483399EEEEEE16write_error_msg_ERKSt9exceptionRNS_9callbacks6loggerE"
 "_ZN4stan4mcmc16base_hamiltonianIN30model_stan_boeck_ext_namespace20model_stan_boeck_extENS0_13dense_e_pointEN5boost6random23additive_combine_engineINS6_26linear_congruential_engineIjLj40014ELj0ELj2147483563EEENS8_IjLj40692ELj0ELj2147483399EEEEEE25update_potential_gradientERS4_RNS_9callbacks6loggerE"
 "_ZN4stan4mcmc16base_hamiltonianIN31model_stan_boeck_2012_namespace21model_stan_boeck_2012ENS0_12diag_e_pointEN5boost6random23additive_combine_engineINS6_26linear_congruential_engineIjLj40014ELj0ELj2147483563EEENS8_IjLj40692ELj0ELj2147483399EEEEEE16write_error_msg_ERKSt9exceptionRNS_9callbacks6loggerE"
 "_ZN4stan4mcmc16base_hamiltonianIN31model_stan_boeck_2012_namespace21model_stan_boeck_2012ENS0_12diag_e_pointEN5boost6random23additive_combine_engineINS6_26linear_congruential_engineIjLj40014ELj0ELj2147483563EEENS8_IjLj40692ELj0ELj2147483399EEEEEE25update_potential_gradientERS4_RNS_9callbacks6loggerE"
 "_ZN4stan4mcmc16base_hamiltonianIN31model_stan_boeck_2012_namespace21model_stan_boeck_2012ENS0_12unit_e_pointEN5boost6random23additive_combine_engineINS6_26linear_congruential_engineIjLj40014ELj0ELj2147483563EEENS8_IjLj40692ELj0ELj2147483399EEEEEE16write_error_msg_ERKSt9exceptionRNS_9callbacks6loggerE"
 "_ZN4stan4mcmc16base_hamiltonianIN31model_stan_boeck_2012_namespace21model_stan_boeck_2012ENS0_12unit_e_pointEN5boost6random23additive_combine_engineINS6_26linear_congruential_engineIjLj40014ELj0ELj2147483563EEENS8_IjLj40692ELj0ELj2147483399EEEEEE25update_potential_gradientERS4_RNS_9callbacks6loggerE"
 "_ZN4stan4mcmc16base_hamiltonianIN31model_stan_boeck_2012_namespace21model_stan_boeck_2012ENS0_13dense_e_pointEN5boost6random23additive_combine_engineINS6_26linear_congruential_engineIjLj40014ELj0ELj2147483563EEENS8_IjLj40692ELj0ELj2147483399EEEEEE16write_error_msg_ERKSt9exceptionRNS_9callbacks6loggerE"
 "_ZN4stan4mcmc16base_hamiltonianIN31model_stan_boeck_2012_namespace21model_stan_boeck_2012ENS0_13dense_e_pointEN5boost6random23additive_combine_engineINS6_26linear_congruential_engineIjLj40014ELj0ELj2147483563EEENS8_IjLj40692ELj0ELj2147483399EEEEEE25update_potential_gradientERS4_RNS_9callbacks6loggerE"
 "_ZN4stan4mcmc16base_hamiltonianIN31model_stan_boeck_ext2_namespace21model_stan_boeck_ext2ENS0_12diag_e_pointEN5boost6random23additive_combine_engineINS6_26linear_congruential_engineIjLj40014ELj0ELj2147483563EEENS8_IjLj40692ELj0ELj2147483399EEEEEE16write_error_msg_ERKSt9exceptionRNS_9callbacks6loggerE"
 "_ZN4stan4mcmc16base_hamiltonianIN31model_stan_boeck_ext2_namespace21model_stan_boeck_ext2ENS0_12diag_e_pointEN5boost6random23additive_combine_engineINS6_26linear_congruential_engineIjLj40014ELj0ELj2147483563EEENS8_IjLj40692ELj0ELj2147483399EEEEEE25update_potential_gradientERS4_RNS_9callbacks6loggerE"
 "_ZN4stan4mcmc16base_hamiltonianIN31model_stan_boeck_ext2_namespace21model_stan_boeck_ext2ENS0_12unit_e_pointEN5boost6random23additive_combine_engineINS6_26linear_congruential_engineIjLj40014ELj0ELj2147483563EEENS8_IjLj40692ELj0ELj2147483399EEEEEE16write_error_msg_ERKSt9exceptionRNS_9callbacks6loggerE"
 "_ZN4stan4mcmc16base_hamiltonianIN31model_stan_boeck_ext2_namespace21model_stan_boeck_ext2ENS0_12unit_e_pointEN5boost6random23additive_combine_engineINS6_26linear_congruential_engineIjLj40014ELj0ELj2147483563EEENS8_IjLj40692ELj0ELj2147483399EEEEEE25update_potential_gradientERS4_RNS_9callbacks6loggerE"
 "_ZN4stan4mcmc16base_hamiltonianIN31model_stan_boeck_ext2_namespace21model_stan_boeck_ext2ENS0_13dense_e_pointEN5boost6random23additive_combine_engineINS6_26linear_congruential_engineIjLj40014ELj0ELj2147483563EEENS8_IjLj40692ELj0ELj2147483399EEEEEE16write_error_msg_ERKSt9exceptionRNS_9callbacks6loggerE"
 "_ZN4stan4mcmc16base_hamiltonianIN31model_stan_boeck_ext2_namespace21model_stan_boeck_ext2ENS0_13dense_e_pointEN5boost6random23additive_combine_engineINS6_26linear_congruential_engineIjLj40014ELj0ELj2147483563EEENS8_IjLj40692ELj0ELj2147483399EEEEEE25update_potential_gradientERS4_RNS_9callbacks6loggerE"
 "_ZN4stan4mcmc16base_hamiltonianIN32model_stan_boeck_shift_namespace22model_stan_boeck_shiftENS0_12diag_e_pointEN5boost6random23additive_combine_engineINS6_26linear_congruential_engineIjLj40014ELj0ELj2147483563EEENS8_IjLj40692ELj0ELj2147483399EEEEEE16write_error_msg_ERKSt9exceptionRNS_9callbacks6loggerE"
 "_ZN4stan4mcmc16base_hamiltonianIN32model_stan_boeck_shift_namespace22model_stan_boeck_shiftENS0_12diag_e_pointEN5boost6random23additive_combine_engineINS6_26linear_congruential_engineIjLj40014ELj0ELj2147483563EEENS8_IjLj40692ELj0ELj2147483399EEEEEE25update_potential_gradientERS4_RNS_9callbacks6loggerE"
 "_ZN4stan4mcmc16base_hamiltonianIN32model_stan_boeck_shift_namespace22model_stan_boeck_shiftENS0_12unit_e_pointEN5boost6random23additive_combine_engineINS6_26linear_congruential_engineIjLj40014ELj0ELj2147483563EEENS8_IjLj40692ELj0ELj2147483399EEEEEE16write_error_msg_ERKSt9exceptionRNS_9callbacks6loggerE"
 "_ZN4stan4mcmc16base_hamiltonianIN32model_stan_boeck_shift_namespace22model_stan_boeck_shiftENS0_12unit_e_pointEN5boost6random23additive_combine_engineINS6_26linear_congruential_engineIjLj40014ELj0ELj2147483563EEENS8_IjLj40692ELj0ELj2147483399EEEEEE25update_potential_gradientERS4_RNS_9callbacks6loggerE"
 "_ZN4stan4mcmc16base_hamiltonianIN32model_stan_boeck_shift_namespace22model_stan_boeck_shiftENS0_13dense_e_pointEN5boost6random23additive_combine_engineINS6_26linear_congruential_engineIjLj40014ELj0ELj2147483563EEENS8_IjLj40692ELj0ELj2147483399EEEEEE16write_error_msg_ERKSt9exceptionRNS_9callbacks6loggerE"
 "_ZN4stan4mcmc16base_hamiltonianIN32model_stan_boeck_shift_namespace22model_stan_boeck_shiftENS0_13dense_e_pointEN5boost6random23additive_combine_engineINS6_26linear_congruential_engineIjLj40014ELj0ELj2147483563EEENS8_IjLj40692ELj0ELj2147483399EEEEEE25update_potential_gradientERS4_RNS_9callbacks6loggerE"
 "_ZN4stan4mcmc16base_hamiltonianIN33model_stan_boeck_ext_HH_namespace23model_stan_boeck_ext_HHENS0_12diag_e_pointEN5boost6random23additive_combine_engineINS6_26linear_congruential_engineIjLj40014ELj0ELj2147483563EEENS8_IjLj40692ELj0ELj2147483399EEEEEE16write_error_msg_ERKSt9exceptionRNS_9callbacks6loggerE"
 "_ZN4stan4mcmc16base_hamiltonianIN33model_stan_boeck_ext_HH_namespace23model_stan_boeck_ext_HHENS0_12diag_e_pointEN5boost6random23additive_combine_engineINS6_26linear_congruential_engineIjLj40014ELj0ELj2147483563EEENS8_IjLj40692ELj0ELj2147483399EEEEEE25update_potential_gradientERS4_RNS_9callbacks6loggerE"
 "_ZN4stan4mcmc16base_hamiltonianIN33model_stan_boeck_ext_HH_namespace23model_stan_boeck_ext_HHENS0_12unit_e_pointEN5boost6random23additive_combine_engineINS6_26linear_congruential_engineIjLj40014ELj0ELj2147483563EEENS8_IjLj40692ELj0ELj2147483399EEEEEE16write_error_msg_ERKSt9exceptionRNS_9callbacks6loggerE"
 "_ZN4stan4mcmc16base_hamiltonianIN33model_stan_boeck_ext_HH_namespace23model_stan_boeck_ext_HHENS0_12unit_e_pointEN5boost6random23additive_combine_engineINS6_26linear_congruential_engineIjLj40014ELj0ELj2147483563EEENS8_IjLj40692ELj0ELj2147483399EEEEEE25update_potential_gradientERS4_RNS_9callbacks6loggerE"
 "_ZN4stan4mcmc16base_hamiltonianIN33model_stan_boeck_ext_HH_namespace23model_stan_boeck_ext_HHENS0_13dense_e_pointEN5boost6random23additive_combine_engineINS6_26linear_congruential_engineIjLj40014ELj0ELj2147483563EEENS8_IjLj40692ELj0ELj2147483399EEEEEE16write_error_msg_ERKSt9exceptionRNS_9callbacks6loggerE"
 "_ZN4stan4mcmc16base_hamiltonianIN33model_stan_boeck_ext_HH_namespace23model_stan_boeck_ext_HHENS0_13dense_e_pointEN5boost6random23additive_combine_engineINS6_26linear_congruential_engineIjLj40014ELj0ELj2147483563EEENS8_IjLj40692ELj0ELj2147483399EEEEEE25update_potential_gradientERS4_RNS_9callbacks6loggerE"
 "_ZN4stan4mcmc16covar_adaptation16learn_covarianceERN5Eigen6MatrixIdLin1ELin1ELi0ELin1ELin1EEERKNS3_IdLin1ELi1ELi0ELin1ELi1EEE"
 "_ZN4stan4mcmc17adapt_diag_e_nutsIN24model_stan_pcm_namespace14model_stan_pcmEN5boost6random23additive_combine_engineINS5_26linear_congruential_engineIjLj40014ELj0ELj2147483563EEENS7_IjLj40692ELj0ELj2147483399EEEEEE10transitionERNS0_6sampleERNS_9callbacks6loggerE"
 "_ZN4stan4mcmc17adapt_diag_e_nutsIN24model_stan_pcm_namespace14model_stan_pcmEN5boost6random23additive_combine_engineINS5_26linear_congruential_engineIjLj40014ELj0ELj2147483563EEENS7_IjLj40692ELj0ELj2147483399EEEEEE20disengage_adaptationEv"
 "_ZN4stan4mcmc17adapt_diag_e_nutsIN24model_stan_pcm_namespace14model_stan_pcmEN5boost6random23additive_combine_engineINS5_26linear_congruential_engineIjLj40014ELj0ELj2147483563EEENS7_IjLj40692ELj0ELj2147483399EEEEEED0Ev"
 "_ZN4stan4mcmc17adapt_diag_e_nutsIN24model_stan_pcm_namespace14model_stan_pcmEN5boost6random23additive_combine_engineINS5_26linear_congruential_engineIjLj40014ELj0ELj2147483563EEENS7_IjLj40692ELj0ELj2147483399EEEEEED1Ev"
 "_ZN4stan4mcmc17adapt_diag_e_nutsIN26model_stan_steps_namespace16model_stan_stepsEN5boost6random23additive_combine_engineINS5_26linear_congruential_engineIjLj40014ELj0ELj2147483563EEENS7_IjLj40692ELj0ELj2147483399EEEEEE10transitionERNS0_6sampleERNS_9callbacks6loggerE"
 "_ZN4stan4mcmc17adapt_diag_e_nutsIN26model_stan_steps_namespace16model_stan_stepsEN5boost6random23additive_combine_engineINS5_26linear_congruential_engineIjLj40014ELj0ELj2147483563EEENS7_IjLj40692ELj0ELj2147483399EEEEEE20disengage_adaptationEv"
 "_ZN4stan4mcmc17adapt_diag_e_nutsIN26model_stan_steps_namespace16model_stan_stepsEN5boost6random23additive_combine_engineINS5_26linear_congruential_engineIjLj40014ELj0ELj2147483563EEENS7_IjLj40692ELj0ELj2147483399EEEEEED0Ev"
 "_ZN4stan4mcmc17adapt_diag_e_nutsIN26model_stan_steps_namespace16model_stan_stepsEN5boost6random23additive_combine_engineINS5_26linear_congruential_engineIjLj40014ELj0ELj2147483563EEENS7_IjLj40692ELj0ELj2147483399EEEEEED1Ev"
 "_ZN4stan4mcmc17adapt_diag_e_nutsIN30model_stan_boeck_ext_namespace20model_stan_boeck_extEN5boost6random23additive_combine_engineINS5_26linear_congruential_engineIjLj40014ELj0ELj2147483563EEENS7_IjLj40692ELj0ELj2147483399EEEEEE10transitionERNS0_6sampleERNS_9callbacks6loggerE"
 "_ZN4stan4mcmc17adapt_diag_e_nutsIN30model_stan_boeck_ext_namespace20model_stan_boeck_extEN5boost6random23additive_combine_engineINS5_26linear_congruential_engineIjLj40014ELj0ELj2147483563EEENS7_IjLj40692ELj0ELj2147483399EEEEEE20disengage_adaptationEv"
 "_ZN4stan4mcmc17adapt_diag_e_nutsIN30model_stan_boeck_ext_namespace20model_stan_boeck_extEN5boost6random23additive_combine_engineINS5_26linear_congruential_engineIjLj40014ELj0ELj2147483563EEENS7_IjLj40692ELj0ELj2147483399EEEEEED0Ev"
 "_ZN4stan4mcmc17adapt_diag_e_nutsIN30model_stan_boeck_ext_namespace20model_stan_boeck_extEN5boost6random23additive_combine_engineINS5_26linear_congruential_engineIjLj40014ELj0ELj2147483563EEENS7_IjLj40692ELj0ELj2147483399EEEEEED1Ev"
 "_ZN4stan4mcmc17adapt_diag_e_nutsIN31model_stan_boeck_2012_namespace21model_stan_boeck_2012EN5boost6random23additive_combine_engineINS5_26linear_congruential_engineIjLj40014ELj0ELj2147483563EEENS7_IjLj40692ELj0ELj2147483399EEEEEE10transitionERNS0_6sampleERNS_9callbacks6loggerE"
 "_ZN4stan4mcmc17adapt_diag_e_nutsIN31model_stan_boeck_2012_namespace21model_stan_boeck_2012EN5boost6random23additive_combine_engineINS5_26linear_congruential_engineIjLj40014ELj0ELj2147483563EEENS7_IjLj40692ELj0ELj2147483399EEEEEE20disengage_adaptationEv"
 "_ZN4stan4mcmc17adapt_diag_e_nutsIN31model_stan_boeck_2012_namespace21model_stan_boeck_2012EN5boost6random23additive_combine_engineINS5_26linear_congruential_engineIjLj40014ELj0ELj2147483563EEENS7_IjLj40692ELj0ELj2147483399EEEEEED0Ev"
 "_ZN4stan4mcmc17adapt_diag_e_nutsIN31model_stan_boeck_2012_namespace21model_stan_boeck_2012EN5boost6random23additive_combine_engineINS5_26linear_congruential_engineIjLj40014ELj0ELj2147483563EEENS7_IjLj40692ELj0ELj2147483399EEEEEED1Ev"
 "_ZN4stan4mcmc17adapt_diag_e_nutsIN31model_stan_boeck_ext2_namespace21model_stan_boeck_ext2EN5boost6random23additive_combine_engineINS5_26linear_congruential_engineIjLj40014ELj0ELj2147483563EEENS7_IjLj40692ELj0ELj2147483399EEEEEE10transitionERNS0_6sampleERNS_9callbacks6loggerE"
 "_ZN4stan4mcmc17adapt_diag_e_nutsIN31model_stan_boeck_ext2_namespace21model_stan_boeck_ext2EN5boost6random23additive_combine_engineINS5_26linear_congruential_engineIjLj40014ELj0ELj2147483563EEENS7_IjLj40692ELj0ELj2147483399EEEEEE20disengage_adaptationEv"
 "_ZN4stan4mcmc17adapt_diag_e_nutsIN31model_stan_boeck_ext2_namespace21model_stan_boeck_ext2EN5boost6random23additive_combine_engineINS5_26linear_congruential_engineIjLj40014ELj0ELj2147483563EEENS7_IjLj40692ELj0ELj2147483399EEEEEED0Ev"
 "_ZN4stan4mcmc17adapt_diag_e_nutsIN31model_stan_boeck_ext2_namespace21model_stan_boeck_ext2EN5boost6random23additive_combine_engineINS5_26linear_congruential_engineIjLj40014ELj0ELj2147483563EEENS7_IjLj40692ELj0ELj2147483399EEEEEED1Ev"
 "_ZN4stan4mcmc17adapt_diag_e_nutsIN32model_stan_boeck_shift_namespace22model_stan_boeck_shiftEN5boost6random23additive_combine_engineINS5_26linear_congruential_engineIjLj40014ELj0ELj2147483563EEENS7_IjLj40692ELj0ELj2147483399EEEEEE10transitionERNS0_6sampleERNS_9callbacks6loggerE"
 "_ZN4stan4mcmc17adapt_diag_e_nutsIN32model_stan_boeck_shift_namespace22model_stan_boeck_shiftEN5boost6random23additive_combine_engineINS5_26linear_congruential_engineIjLj40014ELj0ELj2147483563EEENS7_IjLj40692ELj0ELj2147483399EEEEEE20disengage_adaptationEv"
 "_ZN4stan4mcmc17adapt_diag_e_nutsIN32model_stan_boeck_shift_namespace22model_stan_boeck_shiftEN5boost6random23additive_combine_engineINS5_26linear_congruential_engineIjLj40014ELj0ELj2147483563EEENS7_IjLj40692ELj0ELj2147483399EEEEEED0Ev"
 "_ZN4stan4mcmc17adapt_diag_e_nutsIN32model_stan_boeck_shift_namespace22model_stan_boeck_shiftEN5boost6random23additive_combine_engineINS5_26linear_congruential_engineIjLj40014ELj0ELj2147483563EEENS7_IjLj40692ELj0ELj2147483399EEEEEED1Ev"
 "_ZN4stan4mcmc17adapt_diag_e_nutsIN33model_stan_boeck_ext_HH_namespace23model_stan_boeck_ext_HHEN5boost6random23additive_combine_engineINS5_26linear_congruential_engineIjLj40014ELj0ELj2147483563EEENS7_IjLj40692ELj0ELj2147483399EEEEEE10transitionERNS0_6sampleERNS_9callbacks6loggerE"
 "_ZN4stan4mcmc17adapt_diag_e_nutsIN33model_stan_boeck_ext_HH_namespace23model_stan_boeck_ext_HHEN5boost6random23additive_combine_engineINS5_26linear_congruential_engineIjLj40014ELj0ELj2147483563EEENS7_IjLj40692ELj0ELj2147483399EEEEEE20disengage_adaptationEv"
 "_ZN4stan4mcmc17adapt_diag_e_nutsIN33model_stan_boeck_ext_HH_namespace23model_stan_boeck_ext_HHEN5boost6random23additive_combine_engineINS5_26linear_congruential_engineIjLj40014ELj0ELj2147483563EEENS7_IjLj40692ELj0ELj2147483399EEEEEED0Ev"
 "_ZN4stan4mcmc17adapt_diag_e_nutsIN33model_stan_boeck_ext_HH_namespace23model_stan_boeck_ext_HHEN5boost6random23additive_combine_engineINS5_26linear_congruential_engineIjLj40014ELj0ELj2147483563EEENS7_IjLj40692ELj0ELj2147483399EEEEEED1Ev"
 "_ZN4stan4mcmc17adapt_unit_e_nutsIN24model_stan_pcm_namespace14model_stan_pcmEN5boost6random23additive_combine_engineINS5_26linear_congruential_engineIjLj40014ELj0ELj2147483563EEENS7_IjLj40692ELj0ELj2147483399EEEEEE10transitionERNS0_6sampleERNS_9callbacks6loggerE"
 "_ZN4stan4mcmc17adapt_unit_e_nutsIN24model_stan_pcm_namespace14model_stan_pcmEN5boost6random23additive_combine_engineINS5_26linear_congruential_engineIjLj40014ELj0ELj2147483563EEENS7_IjLj40692ELj0ELj2147483399EEEEEE20disengage_adaptationEv"
 "_ZN4stan4mcmc17adapt_unit_e_nutsIN24model_stan_pcm_namespace14model_stan_pcmEN5boost6random23additive_combine_engineINS5_26linear_congruential_engineIjLj40014ELj0ELj2147483563EEENS7_IjLj40692ELj0ELj2147483399EEEEEED0Ev"
 "_ZN4stan4mcmc17adapt_unit_e_nutsIN24model_stan_pcm_namespace14model_stan_pcmEN5boost6random23additive_combine_engineINS5_26linear_congruential_engineIjLj40014ELj0ELj2147483563EEENS7_IjLj40692ELj0ELj2147483399EEEEEED1Ev"
 "_ZN4stan4mcmc17adapt_unit_e_nutsIN26model_stan_steps_namespace16model_stan_stepsEN5boost6random23additive_combine_engineINS5_26linear_congruential_engineIjLj40014ELj0ELj2147483563EEENS7_IjLj40692ELj0ELj2147483399EEEEEE10transitionERNS0_6sampleERNS_9callbacks6loggerE"
 "_ZN4stan4mcmc17adapt_unit_e_nutsIN26model_stan_steps_namespace16model_stan_stepsEN5boost6random23additive_combine_engineINS5_26linear_congruential_engineIjLj40014ELj0ELj2147483563EEENS7_IjLj40692ELj0ELj2147483399EEEEEE20disengage_adaptationEv"
 "_ZN4stan4mcmc17adapt_unit_e_nutsIN26model_stan_steps_namespace16model_stan_stepsEN5boost6random23additive_combine_engineINS5_26linear_congruential_engineIjLj40014ELj0ELj2147483563EEENS7_IjLj40692ELj0ELj2147483399EEEEEED0Ev"
 "_ZN4stan4mcmc17adapt_unit_e_nutsIN26model_stan_steps_namespace16model_stan_stepsEN5boost6random23additive_combine_engineINS5_26linear_congruential_engineIjLj40014ELj0ELj2147483563EEENS7_IjLj40692ELj0ELj2147483399EEEEEED1Ev"
 "_ZN4stan4mcmc17adapt_unit_e_nutsIN30model_stan_boeck_ext_namespace20model_stan_boeck_extEN5boost6random23additive_combine_engineINS5_26linear_congruential_engineIjLj40014ELj0ELj2147483563EEENS7_IjLj40692ELj0ELj2147483399EEEEEE10transitionERNS0_6sampleERNS_9callbacks6loggerE"
 "_ZN4stan4mcmc17adapt_unit_e_nutsIN30model_stan_boeck_ext_namespace20model_stan_boeck_extEN5boost6random23additive_combine_engineINS5_26linear_congruential_engineIjLj40014ELj0ELj2147483563EEENS7_IjLj40692ELj0ELj2147483399EEEEEE20disengage_adaptationEv"
 "_ZN4stan4mcmc17adapt_unit_e_nutsIN30model_stan_boeck_ext_namespace20model_stan_boeck_extEN5boost6random23additive_combine_engineINS5_26linear_congruential_engineIjLj40014ELj0ELj2147483563EEENS7_IjLj40692ELj0ELj2147483399EEEEEED0Ev"
 "_ZN4stan4mcmc17adapt_unit_e_nutsIN30model_stan_boeck_ext_namespace20model_stan_boeck_extEN5boost6random23additive_combine_engineINS5_26linear_congruential_engineIjLj40014ELj0ELj2147483563EEENS7_IjLj40692ELj0ELj2147483399EEEEEED1Ev"
 "_ZN4stan4mcmc17adapt_unit_e_nutsIN31model_stan_boeck_2012_namespace21model_stan_boeck_2012EN5boost6random23additive_combine_engineINS5_26linear_congruential_engineIjLj40014ELj0ELj2147483563EEENS7_IjLj40692ELj0ELj2147483399EEEEEE10transitionERNS0_6sampleERNS_9callbacks6loggerE"
 "_ZN4stan4mcmc17adapt_unit_e_nutsIN31model_stan_boeck_2012_namespace21model_stan_boeck_2012EN5boost6random23additive_combine_engineINS5_26linear_congruential_engineIjLj40014ELj0ELj2147483563EEENS7_IjLj40692ELj0ELj2147483399EEEEEE20disengage_adaptationEv"
 "_ZN4stan4mcmc17adapt_unit_e_nutsIN31model_stan_boeck_2012_namespace21model_stan_boeck_2012EN5boost6random23additive_combine_engineINS5_26linear_congruential_engineIjLj40014ELj0ELj2147483563EEENS7_IjLj40692ELj0ELj2147483399EEEEEED0Ev"
 "_ZN4stan4mcmc17adapt_unit_e_nutsIN31model_stan_boeck_2012_namespace21model_stan_boeck_2012EN5boost6random23additive_combine_engineINS5_26linear_congruential_engineIjLj40014ELj0ELj2147483563EEENS7_IjLj40692ELj0ELj2147483399EEEEEED1Ev"
 "_ZN4stan4mcmc17adapt_unit_e_nutsIN31model_stan_boeck_ext2_namespace21model_stan_boeck_ext2EN5boost6random23additive_combine_engineINS5_26linear_congruential_engineIjLj40014ELj0ELj2147483563EEENS7_IjLj40692ELj0ELj2147483399EEEEEE10transitionERNS0_6sampleERNS_9callbacks6loggerE"
 "_ZN4stan4mcmc17adapt_unit_e_nutsIN31model_stan_boeck_ext2_namespace21model_stan_boeck_ext2EN5boost6random23additive_combine_engineINS5_26linear_congruential_engineIjLj40014ELj0ELj2147483563EEENS7_IjLj40692ELj0ELj2147483399EEEEEE20disengage_adaptationEv"
 "_ZN4stan4mcmc17adapt_unit_e_nutsIN31model_stan_boeck_ext2_namespace21model_stan_boeck_ext2EN5boost6random23additive_combine_engineINS5_26linear_congruential_engineIjLj40014ELj0ELj2147483563EEENS7_IjLj40692ELj0ELj2147483399EEEEEED0Ev"
 "_ZN4stan4mcmc17adapt_unit_e_nutsIN31model_stan_boeck_ext2_namespace21model_stan_boeck_ext2EN5boost6random23additive_combine_engineINS5_26linear_congruential_engineIjLj40014ELj0ELj2147483563EEENS7_IjLj40692ELj0ELj2147483399EEEEEED1Ev"
 "_ZN4stan4mcmc17adapt_unit_e_nutsIN32model_stan_boeck_shift_namespace22model_stan_boeck_shiftEN5boost6random23additive_combine_engineINS5_26linear_congruential_engineIjLj40014ELj0ELj2147483563EEENS7_IjLj40692ELj0ELj2147483399EEEEEE10transitionERNS0_6sampleERNS_9callbacks6loggerE"
 "_ZN4stan4mcmc17adapt_unit_e_nutsIN32model_stan_boeck_shift_namespace22model_stan_boeck_shiftEN5boost6random23additive_combine_engineINS5_26linear_congruential_engineIjLj40014ELj0ELj2147483563EEENS7_IjLj40692ELj0ELj2147483399EEEEEE20disengage_adaptationEv"
 "_ZN4stan4mcmc17adapt_unit_e_nutsIN32model_stan_boeck_shift_namespace22model_stan_boeck_shiftEN5boost6random23additive_combine_engineINS5_26linear_congruential_engineIjLj40014ELj0ELj2147483563EEENS7_IjLj40692ELj0ELj2147483399EEEEEED0Ev"
 "_ZN4stan4mcmc17adapt_unit_e_nutsIN32model_stan_boeck_shift_namespace22model_stan_boeck_shiftEN5boost6random23additive_combine_engineINS5_26linear_congruential_engineIjLj40014ELj0ELj2147483563EEENS7_IjLj40692ELj0ELj2147483399EEEEEED1Ev"
 "_ZN4stan4mcmc17adapt_unit_e_nutsIN33model_stan_boeck_ext_HH_namespace23model_stan_boeck_ext_HHEN5boost6random23additive_combine_engineINS5_26linear_congruential_engineIjLj40014ELj0ELj2147483563EEENS7_IjLj40692ELj0ELj2147483399EEEEEE10transitionERNS0_6sampleERNS_9callbacks6loggerE"
 "_ZN4stan4mcmc17adapt_unit_e_nutsIN33model_stan_boeck_ext_HH_namespace23model_stan_boeck_ext_HHEN5boost6random23additive_combine_engineINS5_26linear_congruential_engineIjLj40014ELj0ELj2147483563EEENS7_IjLj40692ELj0ELj2147483399EEEEEE20disengage_adaptationEv"
 "_ZN4stan4mcmc17adapt_unit_e_nutsIN33model_stan_boeck_ext_HH_namespace23model_stan_boeck_ext_HHEN5boost6random23additive_combine_engineINS5_26linear_congruential_engineIjLj40014ELj0ELj2147483563EEENS7_IjLj40692ELj0ELj2147483399EEEEEED0Ev"
 "_ZN4stan4mcmc17adapt_unit_e_nutsIN33model_stan_boeck_ext_HH_namespace23model_stan_boeck_ext_HHEN5boost6random23additive_combine_engineINS5_26linear_congruential_engineIjLj40014ELj0ELj2147483563EEENS7_IjLj40692ELj0ELj2147483399EEEEEED1Ev"
 "_ZN4stan4mcmc17diag_e_static_hmcIN24model_stan_pcm_namespace14model_stan_pcmEN5boost6random23additive_combine_engineINS5_26linear_congruential_engineIjLj40014ELj0ELj2147483563EEENS7_IjLj40692ELj0ELj2147483399EEEEEED0Ev"
 "_ZN4stan4mcmc17diag_e_static_hmcIN24model_stan_pcm_namespace14model_stan_pcmEN5boost6random23additive_combine_engineINS5_26linear_congruential_engineIjLj40014ELj0ELj2147483563EEENS7_IjLj40692ELj0ELj2147483399EEEEEED1Ev"
 "_ZN4stan4mcmc17diag_e_static_hmcIN26model_stan_steps_namespace16model_stan_stepsEN5boost6random23additive_combine_engineINS5_26linear_congruential_engineIjLj40014ELj0ELj2147483563EEENS7_IjLj40692ELj0ELj2147483399EEEEEED0Ev"
 "_ZN4stan4mcmc17diag_e_static_hmcIN26model_stan_steps_namespace16model_stan_stepsEN5boost6random23additive_combine_engineINS5_26linear_congruential_engineIjLj40014ELj0ELj2147483563EEENS7_IjLj40692ELj0ELj2147483399EEEEEED1Ev"
 "_ZN4stan4mcmc17diag_e_static_hmcIN30model_stan_boeck_ext_namespace20model_stan_boeck_extEN5boost6random23additive_combine_engineINS5_26linear_congruential_engineIjLj40014ELj0ELj2147483563EEENS7_IjLj40692ELj0ELj2147483399EEEEEED0Ev"
 "_ZN4stan4mcmc17diag_e_static_hmcIN30model_stan_boeck_ext_namespace20model_stan_boeck_extEN5boost6random23additive_combine_engineINS5_26linear_congruential_engineIjLj40014ELj0ELj2147483563EEENS7_IjLj40692ELj0ELj2147483399EEEEEED1Ev"
 "_ZN4stan4mcmc17diag_e_static_hmcIN31model_stan_boeck_2012_namespace21model_stan_boeck_2012EN5boost6random23additive_combine_engineINS5_26linear_congruential_engineIjLj40014ELj0ELj2147483563EEENS7_IjLj40692ELj0ELj2147483399EEEEEED0Ev"
 "_ZN4stan4mcmc17diag_e_static_hmcIN31model_stan_boeck_2012_namespace21model_stan_boeck_2012EN5boost6random23additive_combine_engineINS5_26linear_congruential_engineIjLj40014ELj0ELj2147483563EEENS7_IjLj40692ELj0ELj2147483399EEEEEED1Ev"
 "_ZN4stan4mcmc17diag_e_static_hmcIN31model_stan_boeck_ext2_namespace21model_stan_boeck_ext2EN5boost6random23additive_combine_engineINS5_26linear_congruential_engineIjLj40014ELj0ELj2147483563EEENS7_IjLj40692ELj0ELj2147483399EEEEEED0Ev"
 "_ZN4stan4mcmc17diag_e_static_hmcIN31model_stan_boeck_ext2_namespace21model_stan_boeck_ext2EN5boost6random23additive_combine_engineINS5_26linear_congruential_engineIjLj40014ELj0ELj2147483563EEENS7_IjLj40692ELj0ELj2147483399EEEEEED1Ev"
 "_ZN4stan4mcmc17diag_e_static_hmcIN32model_stan_boeck_shift_namespace22model_stan_boeck_shiftEN5boost6random23additive_combine_engineINS5_26linear_congruential_engineIjLj40014ELj0ELj2147483563EEENS7_IjLj40692ELj0ELj2147483399EEEEEED0Ev"
 "_ZN4stan4mcmc17diag_e_static_hmcIN32model_stan_boeck_shift_namespace22model_stan_boeck_shiftEN5boost6random23additive_combine_engineINS5_26linear_congruential_engineIjLj40014ELj0ELj2147483563EEENS7_IjLj40692ELj0ELj2147483399EEEEEED1Ev"
 "_ZN4stan4mcmc17diag_e_static_hmcIN33model_stan_boeck_ext_HH_namespace23model_stan_boeck_ext_HHEN5boost6random23additive_combine_engineINS5_26linear_congruential_engineIjLj40014ELj0ELj2147483563EEENS7_IjLj40692ELj0ELj2147483399EEEEEED0Ev"
 "_ZN4stan4mcmc17diag_e_static_hmcIN33model_stan_boeck_ext_HH_namespace23model_stan_boeck_ext_HHEN5boost6random23additive_combine_engineINS5_26linear_congruential_engineIjLj40014ELj0ELj2147483563EEENS7_IjLj40692ELj0ELj2147483399EEEEEED1Ev"
 "_ZN4stan4mcmc17unit_e_static_hmcIN24model_stan_pcm_namespace14model_stan_pcmEN5boost6random23additive_combine_engineINS5_26linear_congruential_engineIjLj40014ELj0ELj2147483563EEENS7_IjLj40692ELj0ELj2147483399EEEEEED0Ev"
 "_ZN4stan4mcmc17unit_e_static_hmcIN24model_stan_pcm_namespace14model_stan_pcmEN5boost6random23additive_combine_engineINS5_26linear_congruential_engineIjLj40014ELj0ELj2147483563EEENS7_IjLj40692ELj0ELj2147483399EEEEEED1Ev"
 "_ZN4stan4mcmc17unit_e_static_hmcIN26model_stan_steps_namespace16model_stan_stepsEN5boost6random23additive_combine_engineINS5_26linear_congruential_engineIjLj40014ELj0ELj2147483563EEENS7_IjLj40692ELj0ELj2147483399EEEEEED0Ev"
 "_ZN4stan4mcmc17unit_e_static_hmcIN26model_stan_steps_namespace16model_stan_stepsEN5boost6random23additive_combine_engineINS5_26linear_congruential_engineIjLj40014ELj0ELj2147483563EEENS7_IjLj40692ELj0ELj2147483399EEEEEED1Ev"
 "_ZN4stan4mcmc17unit_e_static_hmcIN30model_stan_boeck_ext_namespace20model_stan_boeck_extEN5boost6random23additive_combine_engineINS5_26linear_congruential_engineIjLj40014ELj0ELj2147483563EEENS7_IjLj40692ELj0ELj2147483399EEEEEED0Ev"
 "_ZN4stan4mcmc17unit_e_static_hmcIN30model_stan_boeck_ext_namespace20model_stan_boeck_extEN5boost6random23additive_combine_engineINS5_26linear_congruential_engineIjLj40014ELj0ELj2147483563EEENS7_IjLj40692ELj0ELj2147483399EEEEEED1Ev"
 "_ZN4stan4mcmc17unit_e_static_hmcIN31model_stan_boeck_2012_namespace21model_stan_boeck_2012EN5boost6random23additive_combine_engineINS5_26linear_congruential_engineIjLj40014ELj0ELj2147483563EEENS7_IjLj40692ELj0ELj2147483399EEEEEED0Ev"
 "_ZN4stan4mcmc17unit_e_static_hmcIN31model_stan_boeck_2012_namespace21model_stan_boeck_2012EN5boost6random23additive_combine_engineINS5_26linear_congruential_engineIjLj40014ELj0ELj2147483563EEENS7_IjLj40692ELj0ELj2147483399EEEEEED1Ev"
 "_ZN4stan4mcmc17unit_e_static_hmcIN31model_stan_boeck_ext2_namespace21model_stan_boeck_ext2EN5boost6random23additive_combine_engineINS5_26linear_congruential_engineIjLj40014ELj0ELj2147483563EEENS7_IjLj40692ELj0ELj2147483399EEEEEED0Ev"
 "_ZN4stan4mcmc17unit_e_static_hmcIN31model_stan_boeck_ext2_namespace21model_stan_boeck_ext2EN5boost6random23additive_combine_engineINS5_26linear_congruential_engineIjLj40014ELj0ELj2147483563EEENS7_IjLj40692ELj0ELj2147483399EEEEEED1Ev"
 "_ZN4stan4mcmc17unit_e_static_hmcIN32model_stan_boeck_shift_namespace22model_stan_boeck_shiftEN5boost6random23additive_combine_engineINS5_26linear_congruential_engineIjLj40014ELj0ELj2147483563EEENS7_IjLj40692ELj0ELj2147483399EEEEEED0Ev"
 "_ZN4stan4mcmc17unit_e_static_hmcIN32model_stan_boeck_shift_namespace22model_stan_boeck_shiftEN5boost6random23additive_combine_engineINS5_26linear_congruential_engineIjLj40014ELj0ELj2147483563EEENS7_IjLj40692ELj0ELj2147483399EEEEEED1Ev"
 "_ZN4stan4mcmc17unit_e_static_hmcIN33model_stan_boeck_ext_HH_namespace23model_stan_boeck_ext_HHEN5boost6random23additive_combine_engineINS5_26linear_congruential_engineIjLj40014ELj0ELj2147483563EEENS7_IjLj40692ELj0ELj2147483399EEEEEED0Ev"
 "_ZN4stan4mcmc17unit_e_static_hmcIN33model_stan_boeck_ext_HH_namespace23model_stan_boeck_ext_HHEN5boost6random23additive_combine_engineINS5_26linear_congruential_engineIjLj40014ELj0ELj2147483563EEENS7_IjLj40692ELj0ELj2147483399EEEEEED1Ev"
 "_ZN4stan4mcmc18adapt_dense_e_nutsIN24model_stan_pcm_namespace14model_stan_pcmEN5boost6random23additive_combine_engineINS5_26linear_congruential_engineIjLj40014ELj0ELj2147483563EEENS7_IjLj40692ELj0ELj2147483399EEEEEE10transitionERNS0_6sampleERNS_9callbacks6loggerE"
 "_ZN4stan4mcmc18adapt_dense_e_nutsIN24model_stan_pcm_namespace14model_stan_pcmEN5boost6random23additive_combine_engineINS5_26linear_congruential_engineIjLj40014ELj0ELj2147483563EEENS7_IjLj40692ELj0ELj2147483399EEEEEE20disengage_adaptationEv"
 "_ZN4stan4mcmc18adapt_dense_e_nutsIN24model_stan_pcm_namespace14model_stan_pcmEN5boost6random23additive_combine_engineINS5_26linear_congruential_engineIjLj40014ELj0ELj2147483563EEENS7_IjLj40692ELj0ELj2147483399EEEEEED0Ev"
 "_ZN4stan4mcmc18adapt_dense_e_nutsIN24model_stan_pcm_namespace14model_stan_pcmEN5boost6random23additive_combine_engineINS5_26linear_congruential_engineIjLj40014ELj0ELj2147483563EEENS7_IjLj40692ELj0ELj2147483399EEEEEED1Ev"
 "_ZN4stan4mcmc18adapt_dense_e_nutsIN26model_stan_steps_namespace16model_stan_stepsEN5boost6random23additive_combine_engineINS5_26linear_congruential_engineIjLj40014ELj0ELj2147483563EEENS7_IjLj40692ELj0ELj2147483399EEEEEE10transitionERNS0_6sampleERNS_9callbacks6loggerE"
 "_ZN4stan4mcmc18adapt_dense_e_nutsIN26model_stan_steps_namespace16model_stan_stepsEN5boost6random23additive_combine_engineINS5_26linear_congruential_engineIjLj40014ELj0ELj2147483563EEENS7_IjLj40692ELj0ELj2147483399EEEEEE20disengage_adaptationEv"
 "_ZN4stan4mcmc18adapt_dense_e_nutsIN26model_stan_steps_namespace16model_stan_stepsEN5boost6random23additive_combine_engineINS5_26linear_congruential_engineIjLj40014ELj0ELj2147483563EEENS7_IjLj40692ELj0ELj2147483399EEEEEED0Ev"
 "_ZN4stan4mcmc18adapt_dense_e_nutsIN26model_stan_steps_namespace16model_stan_stepsEN5boost6random23additive_combine_engineINS5_26linear_congruential_engineIjLj40014ELj0ELj2147483563EEENS7_IjLj40692ELj0ELj2147483399EEEEEED1Ev"
 "_ZN4stan4mcmc18adapt_dense_e_nutsIN30model_stan_boeck_ext_namespace20model_stan_boeck_extEN5boost6random23additive_combine_engineINS5_26linear_congruential_engineIjLj40014ELj0ELj2147483563EEENS7_IjLj40692ELj0ELj2147483399EEEEEE10transitionERNS0_6sampleERNS_9callbacks6loggerE"
 "_ZN4stan4mcmc18adapt_dense_e_nutsIN30model_stan_boeck_ext_namespace20model_stan_boeck_extEN5boost6random23additive_combine_engineINS5_26linear_congruential_engineIjLj40014ELj0ELj2147483563EEENS7_IjLj40692ELj0ELj2147483399EEEEEE20disengage_adaptationEv"
 "_ZN4stan4mcmc18adapt_dense_e_nutsIN30model_stan_boeck_ext_namespace20model_stan_boeck_extEN5boost6random23additive_combine_engineINS5_26linear_congruential_engineIjLj40014ELj0ELj2147483563EEENS7_IjLj40692ELj0ELj2147483399EEEEEED0Ev"
 "_ZN4stan4mcmc18adapt_dense_e_nutsIN30model_stan_boeck_ext_namespace20model_stan_boeck_extEN5boost6random23additive_combine_engineINS5_26linear_congruential_engineIjLj40014ELj0ELj2147483563EEENS7_IjLj40692ELj0ELj2147483399EEEEEED1Ev"
 "_ZN4stan4mcmc18adapt_dense_e_nutsIN31model_stan_boeck_2012_namespace21model_stan_boeck_2012EN5boost6random23additive_combine_engineINS5_26linear_congruential_engineIjLj40014ELj0ELj2147483563EEENS7_IjLj40692ELj0ELj2147483399EEEEEE10transitionERNS0_6sampleERNS_9callbacks6loggerE"
 "_ZN4stan4mcmc18adapt_dense_e_nutsIN31model_stan_boeck_2012_namespace21model_stan_boeck_2012EN5boost6random23additive_combine_engineINS5_26linear_congruential_engineIjLj40014ELj0ELj2147483563EEENS7_IjLj40692ELj0ELj2147483399EEEEEE20disengage_adaptationEv"
 "_ZN4stan4mcmc18adapt_dense_e_nutsIN31model_stan_boeck_2012_namespace21model_stan_boeck_2012EN5boost6random23additive_combine_engineINS5_26linear_congruential_engineIjLj40014ELj0ELj2147483563EEENS7_IjLj40692ELj0ELj2147483399EEEEEED0Ev"
 "_ZN4stan4mcmc18adapt_dense_e_nutsIN31model_stan_boeck_2012_namespace21model_stan_boeck_2012EN5boost6random23additive_combine_engineINS5_26linear_congruential_engineIjLj40014ELj0ELj2147483563EEENS7_IjLj40692ELj0ELj2147483399EEEEEED1Ev"
 "_ZN4stan4mcmc18adapt_dense_e_nutsIN31model_stan_boeck_ext2_namespace21model_stan_boeck_ext2EN5boost6random23additive_combine_engineINS5_26linear_congruential_engineIjLj40014ELj0ELj2147483563EEENS7_IjLj40692ELj0ELj2147483399EEEEEE10transitionERNS0_6sampleERNS_9callbacks6loggerE"
 "_ZN4stan4mcmc18adapt_dense_e_nutsIN31model_stan_boeck_ext2_namespace21model_stan_boeck_ext2EN5boost6random23additive_combine_engineINS5_26linear_congruential_engineIjLj40014ELj0ELj2147483563EEENS7_IjLj40692ELj0ELj2147483399EEEEEE20disengage_adaptationEv"
 "_ZN4stan4mcmc18adapt_dense_e_nutsIN31model_stan_boeck_ext2_namespace21model_stan_boeck_ext2EN5boost6random23additive_combine_engineINS5_26linear_congruential_engineIjLj40014ELj0ELj2147483563EEENS7_IjLj40692ELj0ELj2147483399EEEEEED0Ev"
 "_ZN4stan4mcmc18adapt_dense_e_nutsIN31model_stan_boeck_ext2_namespace21model_stan_boeck_ext2EN5boost6random23additive_combine_engineINS5_26linear_congruential_engineIjLj40014ELj0ELj2147483563EEENS7_IjLj40692ELj0ELj2147483399EEEEEED1Ev"
 "_ZN4stan4mcmc18adapt_dense_e_nutsIN32model_stan_boeck_shift_namespace22model_stan_boeck_shiftEN5boost6random23additive_combine_engineINS5_26linear_congruential_engineIjLj40014ELj0ELj2147483563EEENS7_IjLj40692ELj0ELj2147483399EEEEEE10transitionERNS0_6sampleERNS_9callbacks6loggerE"
 "_ZN4stan4mcmc18adapt_dense_e_nutsIN32model_stan_boeck_shift_namespace22model_stan_boeck_shiftEN5boost6random23additive_combine_engineINS5_26linear_congruential_engineIjLj40014ELj0ELj2147483563EEENS7_IjLj40692ELj0ELj2147483399EEEEEE20disengage_adaptationEv"
 "_ZN4stan4mcmc18adapt_dense_e_nutsIN32model_stan_boeck_shift_namespace22model_stan_boeck_shiftEN5boost6random23additive_combine_engineINS5_26linear_congruential_engineIjLj40014ELj0ELj2147483563EEENS7_IjLj40692ELj0ELj2147483399EEEEEED0Ev"
 "_ZN4stan4mcmc18adapt_dense_e_nutsIN32model_stan_boeck_shift_namespace22model_stan_boeck_shiftEN5boost6random23additive_combine_engineINS5_26linear_congruential_engineIjLj40014ELj0ELj2147483563EEENS7_IjLj40692ELj0ELj2147483399EEEEEED1Ev"
 "_ZN4stan4mcmc18adapt_dense_e_nutsIN33model_stan_boeck_ext_HH_namespace23model_stan_boeck_ext_HHEN5boost6random23additive_combine_engineINS5_26linear_congruential_engineIjLj40014ELj0ELj2147483563EEENS7_IjLj40692ELj0ELj2147483399EEEEEE10transitionERNS0_6sampleERNS_9callbacks6loggerE"
 "_ZN4stan4mcmc18adapt_dense_e_nutsIN33model_stan_boeck_ext_HH_namespace23model_stan_boeck_ext_HHEN5boost6random23additive_combine_engineINS5_26linear_congruential_engineIjLj40014ELj0ELj2147483563EEENS7_IjLj40692ELj0ELj2147483399EEEEEE20disengage_adaptationEv"
 "_ZN4stan4mcmc18adapt_dense_e_nutsIN33model_stan_boeck_ext_HH_namespace23model_stan_boeck_ext_HHEN5boost6random23additive_combine_engineINS5_26linear_congruential_engineIjLj40014ELj0ELj2147483563EEENS7_IjLj40692ELj0ELj2147483399EEEEEED0Ev"
 "_ZN4stan4mcmc18adapt_dense_e_nutsIN33model_stan_boeck_ext_HH_namespace23model_stan_boeck_ext_HHEN5boost6random23additive_combine_engineINS5_26linear_congruential_engineIjLj40014ELj0ELj2147483563EEENS7_IjLj40692ELj0ELj2147483399EEEEEED1Ev"
 "_ZN4stan4mcmc18dense_e_static_hmcIN24model_stan_pcm_namespace14model_stan_pcmEN5boost6random23additive_combine_engineINS5_26linear_congruential_engineIjLj40014ELj0ELj2147483563EEENS7_IjLj40692ELj0ELj2147483399EEEEEED0Ev"
 "_ZN4stan4mcmc18dense_e_static_hmcIN24model_stan_pcm_namespace14model_stan_pcmEN5boost6random23additive_combine_engineINS5_26linear_congruential_engineIjLj40014ELj0ELj2147483563EEENS7_IjLj40692ELj0ELj2147483399EEEEEED1Ev"
 "_ZN4stan4mcmc18dense_e_static_hmcIN26model_stan_steps_namespace16model_stan_stepsEN5boost6random23additive_combine_engineINS5_26linear_congruential_engineIjLj40014ELj0ELj2147483563EEENS7_IjLj40692ELj0ELj2147483399EEEEEED0Ev"
 "_ZN4stan4mcmc18dense_e_static_hmcIN26model_stan_steps_namespace16model_stan_stepsEN5boost6random23additive_combine_engineINS5_26linear_congruential_engineIjLj40014ELj0ELj2147483563EEENS7_IjLj40692ELj0ELj2147483399EEEEEED1Ev"
 "_ZN4stan4mcmc18dense_e_static_hmcIN30model_stan_boeck_ext_namespace20model_stan_boeck_extEN5boost6random23additive_combine_engineINS5_26linear_congruential_engineIjLj40014ELj0ELj2147483563EEENS7_IjLj40692ELj0ELj2147483399EEEEEED0Ev"
 "_ZN4stan4mcmc18dense_e_static_hmcIN30model_stan_boeck_ext_namespace20model_stan_boeck_extEN5boost6random23additive_combine_engineINS5_26linear_congruential_engineIjLj40014ELj0ELj2147483563EEENS7_IjLj40692ELj0ELj2147483399EEEEEED1Ev"
 "_ZN4stan4mcmc18dense_e_static_hmcIN31model_stan_boeck_2012_namespace21model_stan_boeck_2012EN5boost6random23additive_combine_engineINS5_26linear_congruential_engineIjLj40014ELj0ELj2147483563EEENS7_IjLj40692ELj0ELj2147483399EEEEEED0Ev"
 "_ZN4stan4mcmc18dense_e_static_hmcIN31model_stan_boeck_2012_namespace21model_stan_boeck_2012EN5boost6random23additive_combine_engineINS5_26linear_congruential_engineIjLj40014ELj0ELj2147483563EEENS7_IjLj40692ELj0ELj2147483399EEEEEED1Ev"
 "_ZN4stan4mcmc18dense_e_static_hmcIN31model_stan_boeck_ext2_namespace21model_stan_boeck_ext2EN5boost6random23additive_combine_engineINS5_26linear_congruential_engineIjLj40014ELj0ELj2147483563EEENS7_IjLj40692ELj0ELj2147483399EEEEEED0Ev"
 "_ZN4stan4mcmc18dense_e_static_hmcIN31model_stan_boeck_ext2_namespace21model_stan_boeck_ext2EN5boost6random23additive_combine_engineINS5_26linear_congruential_engineIjLj40014ELj0ELj2147483563EEENS7_IjLj40692ELj0ELj2147483399EEEEEED1Ev"
 "_ZN4stan4mcmc18dense_e_static_hmcIN32model_stan_boeck_shift_namespace22model_stan_boeck_shiftEN5boost6random23additive_combine_engineINS5_26linear_congruential_engineIjLj40014ELj0ELj2147483563EEENS7_IjLj40692ELj0ELj2147483399EEEEEED0Ev"
 "_ZN4stan4mcmc18dense_e_static_hmcIN32model_stan_boeck_shift_namespace22model_stan_boeck_shiftEN5boost6random23additive_combine_engineINS5_26linear_congruential_engineIjLj40014ELj0ELj2147483563EEENS7_IjLj40692ELj0ELj2147483399EEEEEED1Ev"
 "_ZN4stan4mcmc18dense_e_static_hmcIN33model_stan_boeck_ext_HH_namespace23model_stan_boeck_ext_HHEN5boost6random23additive_combine_engineINS5_26linear_congruential_engineIjLj40014ELj0ELj2147483563EEENS7_IjLj40692ELj0ELj2147483399EEEEEED0Ev"
 "_ZN4stan4mcmc18dense_e_static_hmcIN33model_stan_boeck_ext_HH_namespace23model_stan_boeck_ext_HHEN5boost6random23additive_combine_engineINS5_26linear_congruential_engineIjLj40014ELj0ELj2147483563EEENS7_IjLj40692ELj0ELj2147483399EEEEEED1Ev"
 "_ZN4stan4mcmc19fixed_param_sampler10transitionERNS0_6sampleERNS_9callbacks6loggerE"
 "_ZN4stan4mcmc19fixed_param_samplerD0Ev"
 "_ZN4stan4mcmc19fixed_param_samplerD1Ev"
 "_ZN4stan4mcmc19stepsize_adaptation14learn_stepsizeERdd"
 "_ZN4stan4mcmc19stepsize_adaptation7restartEv"
 "_ZN4stan4mcmc19windowed_adaptation17set_window_paramsEjjjjRNS_9callbacks6loggerE"
 "_ZN4stan4mcmc19windowed_adaptation7restartEv"
 "_ZN4stan4mcmc23adapt_diag_e_static_hmcIN24model_stan_pcm_namespace14model_stan_pcmEN5boost6random23additive_combine_engineINS5_26linear_congruential_engineIjLj40014ELj0ELj2147483563EEENS7_IjLj40692ELj0ELj2147483399EEEEEE10transitionERNS0_6sampleERNS_9callbacks6loggerE"
 "_ZN4stan4mcmc23adapt_diag_e_static_hmcIN24model_stan_pcm_namespace14model_stan_pcmEN5boost6random23additive_combine_engineINS5_26linear_congruential_engineIjLj40014ELj0ELj2147483563EEENS7_IjLj40692ELj0ELj2147483399EEEEEE20disengage_adaptationEv"
 "_ZN4stan4mcmc23adapt_diag_e_static_hmcIN24model_stan_pcm_namespace14model_stan_pcmEN5boost6random23additive_combine_engineINS5_26linear_congruential_engineIjLj40014ELj0ELj2147483563EEENS7_IjLj40692ELj0ELj2147483399EEEEEED0Ev"
 "_ZN4stan4mcmc23adapt_diag_e_static_hmcIN24model_stan_pcm_namespace14model_stan_pcmEN5boost6random23additive_combine_engineINS5_26linear_congruential_engineIjLj40014ELj0ELj2147483563EEENS7_IjLj40692ELj0ELj2147483399EEEEEED1Ev"
 "_ZN4stan4mcmc23adapt_diag_e_static_hmcIN26model_stan_steps_namespace16model_stan_stepsEN5boost6random23additive_combine_engineINS5_26linear_congruential_engineIjLj40014ELj0ELj2147483563EEENS7_IjLj40692ELj0ELj2147483399EEEEEE10transitionERNS0_6sampleERNS_9callbacks6loggerE"
 "_ZN4stan4mcmc23adapt_diag_e_static_hmcIN26model_stan_steps_namespace16model_stan_stepsEN5boost6random23additive_combine_engineINS5_26linear_congruential_engineIjLj40014ELj0ELj2147483563EEENS7_IjLj40692ELj0ELj2147483399EEEEEE20disengage_adaptationEv"
 "_ZN4stan4mcmc23adapt_diag_e_static_hmcIN26model_stan_steps_namespace16model_stan_stepsEN5boost6random23additive_combine_engineINS5_26linear_congruential_engineIjLj40014ELj0ELj2147483563EEENS7_IjLj40692ELj0ELj2147483399EEEEEED0Ev"
 "_ZN4stan4mcmc23adapt_diag_e_static_hmcIN26model_stan_steps_namespace16model_stan_stepsEN5boost6random23additive_combine_engineINS5_26linear_congruential_engineIjLj40014ELj0ELj2147483563EEENS7_IjLj40692ELj0ELj2147483399EEEEEED1Ev"
 "_ZN4stan4mcmc23adapt_diag_e_static_hmcIN30model_stan_boeck_ext_namespace20model_stan_boeck_extEN5boost6random23additive_combine_engineINS5_26linear_congruential_engineIjLj40014ELj0ELj2147483563EEENS7_IjLj40692ELj0ELj2147483399EEEEEE10transitionERNS0_6sampleERNS_9callbacks6loggerE"
 "_ZN4stan4mcmc23adapt_diag_e_static_hmcIN30model_stan_boeck_ext_namespace20model_stan_boeck_extEN5boost6random23additive_combine_engineINS5_26linear_congruential_engineIjLj40014ELj0ELj2147483563EEENS7_IjLj40692ELj0ELj2147483399EEEEEE20disengage_adaptationEv"
 "_ZN4stan4mcmc23adapt_diag_e_static_hmcIN30model_stan_boeck_ext_namespace20model_stan_boeck_extEN5boost6random23additive_combine_engineINS5_26linear_congruential_engineIjLj40014ELj0ELj2147483563EEENS7_IjLj40692ELj0ELj2147483399EEEEEED0Ev"
 "_ZN4stan4mcmc23adapt_diag_e_static_hmcIN30model_stan_boeck_ext_namespace20model_stan_boeck_extEN5boost6random23additive_combine_engineINS5_26linear_congruential_engineIjLj40014ELj0ELj2147483563EEENS7_IjLj40692ELj0ELj2147483399EEEEEED1Ev"
 "_ZN4stan4mcmc23adapt_diag_e_static_hmcIN31model_stan_boeck_2012_namespace21model_stan_boeck_2012EN5boost6random23additive_combine_engineINS5_26linear_congruential_engineIjLj40014ELj0ELj2147483563EEENS7_IjLj40692ELj0ELj2147483399EEEEEE10transitionERNS0_6sampleERNS_9callbacks6loggerE"
 "_ZN4stan4mcmc23adapt_diag_e_static_hmcIN31model_stan_boeck_2012_namespace21model_stan_boeck_2012EN5boost6random23additive_combine_engineINS5_26linear_congruential_engineIjLj40014ELj0ELj2147483563EEENS7_IjLj40692ELj0ELj2147483399EEEEEE20disengage_adaptationEv"
 "_ZN4stan4mcmc23adapt_diag_e_static_hmcIN31model_stan_boeck_2012_namespace21model_stan_boeck_2012EN5boost6random23additive_combine_engineINS5_26linear_congruential_engineIjLj40014ELj0ELj2147483563EEENS7_IjLj40692ELj0ELj2147483399EEEEEED0Ev"
 "_ZN4stan4mcmc23adapt_diag_e_static_hmcIN31model_stan_boeck_2012_namespace21model_stan_boeck_2012EN5boost6random23additive_combine_engineINS5_26linear_congruential_engineIjLj40014ELj0ELj2147483563EEENS7_IjLj40692ELj0ELj2147483399EEEEEED1Ev"
 "_ZN4stan4mcmc23adapt_diag_e_static_hmcIN31model_stan_boeck_ext2_namespace21model_stan_boeck_ext2EN5boost6random23additive_combine_engineINS5_26linear_congruential_engineIjLj40014ELj0ELj2147483563EEENS7_IjLj40692ELj0ELj2147483399EEEEEE10transitionERNS0_6sampleERNS_9callbacks6loggerE"
 "_ZN4stan4mcmc23adapt_diag_e_static_hmcIN31model_stan_boeck_ext2_namespace21model_stan_boeck_ext2EN5boost6random23additive_combine_engineINS5_26linear_congruential_engineIjLj40014ELj0ELj2147483563EEENS7_IjLj40692ELj0ELj2147483399EEEEEE20disengage_adaptationEv"
 "_ZN4stan4mcmc23adapt_diag_e_static_hmcIN31model_stan_boeck_ext2_namespace21model_stan_boeck_ext2EN5boost6random23additive_combine_engineINS5_26linear_congruential_engineIjLj40014ELj0ELj2147483563EEENS7_IjLj40692ELj0ELj2147483399EEEEEED0Ev"
 "_ZN4stan4mcmc23adapt_diag_e_static_hmcIN31model_stan_boeck_ext2_namespace21model_stan_boeck_ext2EN5boost6random23additive_combine_engineINS5_26linear_congruential_engineIjLj40014ELj0ELj2147483563EEENS7_IjLj40692ELj0ELj2147483399EEEEEED1Ev"
 "_ZN4stan4mcmc23adapt_diag_e_static_hmcIN32model_stan_boeck_shift_namespace22model_stan_boeck_shiftEN5boost6random23additive_combine_engineINS5_26linear_congruential_engineIjLj40014ELj0ELj2147483563EEENS7_IjLj40692ELj0ELj2147483399EEEEEE10transitionERNS0_6sampleERNS_9callbacks6loggerE"
 "_ZN4stan4mcmc23adapt_diag_e_static_hmcIN32model_stan_boeck_shift_namespace22model_stan_boeck_shiftEN5boost6random23additive_combine_engineINS5_26linear_congruential_engineIjLj40014ELj0ELj2147483563EEENS7_IjLj40692ELj0ELj2147483399EEEEEE20disengage_adaptationEv"
 "_ZN4stan4mcmc23adapt_diag_e_static_hmcIN32model_stan_boeck_shift_namespace22model_stan_boeck_shiftEN5boost6random23additive_combine_engineINS5_26linear_congruential_engineIjLj40014ELj0ELj2147483563EEENS7_IjLj40692ELj0ELj2147483399EEEEEED0Ev"
 "_ZN4stan4mcmc23adapt_diag_e_static_hmcIN32model_stan_boeck_shift_namespace22model_stan_boeck_shiftEN5boost6random23additive_combine_engineINS5_26linear_congruential_engineIjLj40014ELj0ELj2147483563EEENS7_IjLj40692ELj0ELj2147483399EEEEEED1Ev"
 "_ZN4stan4mcmc23adapt_diag_e_static_hmcIN33model_stan_boeck_ext_HH_namespace23model_stan_boeck_ext_HHEN5boost6random23additive_combine_engineINS5_26linear_congruential_engineIjLj40014ELj0ELj2147483563EEENS7_IjLj40692ELj0ELj2147483399EEEEEE10transitionERNS0_6sampleERNS_9callbacks6loggerE"
 "_ZN4stan4mcmc23adapt_diag_e_static_hmcIN33model_stan_boeck_ext_HH_namespace23model_stan_boeck_ext_HHEN5boost6random23additive_combine_engineINS5_26linear_congruential_engineIjLj40014ELj0ELj2147483563EEENS7_IjLj40692ELj0ELj2147483399EEEEEE20disengage_adaptationEv"
 "_ZN4stan4mcmc23adapt_diag_e_static_hmcIN33model_stan_boeck_ext_HH_namespace23model_stan_boeck_ext_HHEN5boost6random23additive_combine_engineINS5_26linear_congruential_engineIjLj40014ELj0ELj2147483563EEENS7_IjLj40692ELj0ELj2147483399EEEEEED0Ev"
 "_ZN4stan4mcmc23adapt_diag_e_static_hmcIN33model_stan_boeck_ext_HH_namespace23model_stan_boeck_ext_HHEN5boost6random23additive_combine_engineINS5_26linear_congruential_engineIjLj40014ELj0ELj2147483563EEENS7_IjLj40692ELj0ELj2147483399EEEEEED1Ev"
 "_ZN4stan4mcmc23adapt_unit_e_static_hmcIN24model_stan_pcm_namespace14model_stan_pcmEN5boost6random23additive_combine_engineINS5_26linear_congruential_engineIjLj40014ELj0ELj2147483563EEENS7_IjLj40692ELj0ELj2147483399EEEEEE10transitionERNS0_6sampleERNS_9callbacks6loggerE"
 "_ZN4stan4mcmc23adapt_unit_e_static_hmcIN24model_stan_pcm_namespace14model_stan_pcmEN5boost6random23additive_combine_engineINS5_26linear_congruential_engineIjLj40014ELj0ELj2147483563EEENS7_IjLj40692ELj0ELj2147483399EEEEEE20disengage_adaptationEv"
 "_ZN4stan4mcmc23adapt_unit_e_static_hmcIN24model_stan_pcm_namespace14model_stan_pcmEN5boost6random23additive_combine_engineINS5_26linear_congruential_engineIjLj40014ELj0ELj2147483563EEENS7_IjLj40692ELj0ELj2147483399EEEEEED0Ev"
 "_ZN4stan4mcmc23adapt_unit_e_static_hmcIN24model_stan_pcm_namespace14model_stan_pcmEN5boost6random23additive_combine_engineINS5_26linear_congruential_engineIjLj40014ELj0ELj2147483563EEENS7_IjLj40692ELj0ELj2147483399EEEEEED1Ev"
 "_ZN4stan4mcmc23adapt_unit_e_static_hmcIN26model_stan_steps_namespace16model_stan_stepsEN5boost6random23additive_combine_engineINS5_26linear_congruential_engineIjLj40014ELj0ELj2147483563EEENS7_IjLj40692ELj0ELj2147483399EEEEEE10transitionERNS0_6sampleERNS_9callbacks6loggerE"
 "_ZN4stan4mcmc23adapt_unit_e_static_hmcIN26model_stan_steps_namespace16model_stan_stepsEN5boost6random23additive_combine_engineINS5_26linear_congruential_engineIjLj40014ELj0ELj2147483563EEENS7_IjLj40692ELj0ELj2147483399EEEEEE20disengage_adaptationEv"
 "_ZN4stan4mcmc23adapt_unit_e_static_hmcIN26model_stan_steps_namespace16model_stan_stepsEN5boost6random23additive_combine_engineINS5_26linear_congruential_engineIjLj40014ELj0ELj2147483563EEENS7_IjLj40692ELj0ELj2147483399EEEEEED0Ev"
 "_ZN4stan4mcmc23adapt_unit_e_static_hmcIN26model_stan_steps_namespace16model_stan_stepsEN5boost6random23additive_combine_engineINS5_26linear_congruential_engineIjLj40014ELj0ELj2147483563EEENS7_IjLj40692ELj0ELj2147483399EEEEEED1Ev"
 "_ZN4stan4mcmc23adapt_unit_e_static_hmcIN30model_stan_boeck_ext_namespace20model_stan_boeck_extEN5boost6random23additive_combine_engineINS5_26linear_congruential_engineIjLj40014ELj0ELj2147483563EEENS7_IjLj40692ELj0ELj2147483399EEEEEE10transitionERNS0_6sampleERNS_9callbacks6loggerE"
 "_ZN4stan4mcmc23adapt_unit_e_static_hmcIN30model_stan_boeck_ext_namespace20model_stan_boeck_extEN5boost6random23additive_combine_engineINS5_26linear_congruential_engineIjLj40014ELj0ELj2147483563EEENS7_IjLj40692ELj0ELj2147483399EEEEEE20disengage_adaptationEv"
 "_ZN4stan4mcmc23adapt_unit_e_static_hmcIN30model_stan_boeck_ext_namespace20model_stan_boeck_extEN5boost6random23additive_combine_engineINS5_26linear_congruential_engineIjLj40014ELj0ELj2147483563EEENS7_IjLj40692ELj0ELj2147483399EEEEEED0Ev"
 "_ZN4stan4mcmc23adapt_unit_e_static_hmcIN30model_stan_boeck_ext_namespace20model_stan_boeck_extEN5boost6random23additive_combine_engineINS5_26linear_congruential_engineIjLj40014ELj0ELj2147483563EEENS7_IjLj40692ELj0ELj2147483399EEEEEED1Ev"
 "_ZN4stan4mcmc23adapt_unit_e_static_hmcIN31model_stan_boeck_2012_namespace21model_stan_boeck_2012EN5boost6random23additive_combine_engineINS5_26linear_congruential_engineIjLj40014ELj0ELj2147483563EEENS7_IjLj40692ELj0ELj2147483399EEEEEE10transitionERNS0_6sampleERNS_9callbacks6loggerE"
 "_ZN4stan4mcmc23adapt_unit_e_static_hmcIN31model_stan_boeck_2012_namespace21model_stan_boeck_2012EN5boost6random23additive_combine_engineINS5_26linear_congruential_engineIjLj40014ELj0ELj2147483563EEENS7_IjLj40692ELj0ELj2147483399EEEEEE20disengage_adaptationEv"
 "_ZN4stan4mcmc23adapt_unit_e_static_hmcIN31model_stan_boeck_2012_namespace21model_stan_boeck_2012EN5boost6random23additive_combine_engineINS5_26linear_congruential_engineIjLj40014ELj0ELj2147483563EEENS7_IjLj40692ELj0ELj2147483399EEEEEED0Ev"
 "_ZN4stan4mcmc23adapt_unit_e_static_hmcIN31model_stan_boeck_2012_namespace21model_stan_boeck_2012EN5boost6random23additive_combine_engineINS5_26linear_congruential_engineIjLj40014ELj0ELj2147483563EEENS7_IjLj40692ELj0ELj2147483399EEEEEED1Ev"
 "_ZN4stan4mcmc23adapt_unit_e_static_hmcIN31model_stan_boeck_ext2_namespace21model_stan_boeck_ext2EN5boost6random23additive_combine_engineINS5_26linear_congruential_engineIjLj40014ELj0ELj2147483563EEENS7_IjLj40692ELj0ELj2147483399EEEEEE10transitionERNS0_6sampleERNS_9callbacks6loggerE"
 "_ZN4stan4mcmc23adapt_unit_e_static_hmcIN31model_stan_boeck_ext2_namespace21model_stan_boeck_ext2EN5boost6random23additive_combine_engineINS5_26linear_congruential_engineIjLj40014ELj0ELj2147483563EEENS7_IjLj40692ELj0ELj2147483399EEEEEE20disengage_adaptationEv"
 "_ZN4stan4mcmc23adapt_unit_e_static_hmcIN31model_stan_boeck_ext2_namespace21model_stan_boeck_ext2EN5boost6random23additive_combine_engineINS5_26linear_congruential_engineIjLj40014ELj0ELj2147483563EEENS7_IjLj40692ELj0ELj2147483399EEEEEED0Ev"
 "_ZN4stan4mcmc23adapt_unit_e_static_hmcIN31model_stan_boeck_ext2_namespace21model_stan_boeck_ext2EN5boost6random23additive_combine_engineINS5_26linear_congruential_engineIjLj40014ELj0ELj2147483563EEENS7_IjLj40692ELj0ELj2147483399EEEEEED1Ev"
 "_ZN4stan4mcmc23adapt_unit_e_static_hmcIN32model_stan_boeck_shift_namespace22model_stan_boeck_shiftEN5boost6random23additive_combine_engineINS5_26linear_congruential_engineIjLj40014ELj0ELj2147483563EEENS7_IjLj40692ELj0ELj2147483399EEEEEE10transitionERNS0_6sampleERNS_9callbacks6loggerE"
 "_ZN4stan4mcmc23adapt_unit_e_static_hmcIN32model_stan_boeck_shift_namespace22model_stan_boeck_shiftEN5boost6random23additive_combine_engineINS5_26linear_congruential_engineIjLj40014ELj0ELj2147483563EEENS7_IjLj40692ELj0ELj2147483399EEEEEE20disengage_adaptationEv"
 "_ZN4stan4mcmc23adapt_unit_e_static_hmcIN32model_stan_boeck_shift_namespace22model_stan_boeck_shiftEN5boost6random23additive_combine_engineINS5_26linear_congruential_engineIjLj40014ELj0ELj2147483563EEENS7_IjLj40692ELj0ELj2147483399EEEEEED0Ev"
 "_ZN4stan4mcmc23adapt_unit_e_static_hmcIN32model_stan_boeck_shift_namespace22model_stan_boeck_shiftEN5boost6random23additive_combine_engineINS5_26linear_congruential_engineIjLj40014ELj0ELj2147483563EEENS7_IjLj40692ELj0ELj2147483399EEEEEED1Ev"
 "_ZN4stan4mcmc23adapt_unit_e_static_hmcIN33model_stan_boeck_ext_HH_namespace23model_stan_boeck_ext_HHEN5boost6random23additive_combine_engineINS5_26linear_congruential_engineIjLj40014ELj0ELj2147483563EEENS7_IjLj40692ELj0ELj2147483399EEEEEE10transitionERNS0_6sampleERNS_9callbacks6loggerE"
 "_ZN4stan4mcmc23adapt_unit_e_static_hmcIN33model_stan_boeck_ext_HH_namespace23model_stan_boeck_ext_HHEN5boost6random23additive_combine_engineINS5_26linear_congruential_engineIjLj40014ELj0ELj2147483563EEENS7_IjLj40692ELj0ELj2147483399EEEEEE20disengage_adaptationEv"
 "_ZN4stan4mcmc23adapt_unit_e_static_hmcIN33model_stan_boeck_ext_HH_namespace23model_stan_boeck_ext_HHEN5boost6random23additive_combine_engineINS5_26linear_congruential_engineIjLj40014ELj0ELj2147483563EEENS7_IjLj40692ELj0ELj2147483399EEEEEED0Ev"
 "_ZN4stan4mcmc23adapt_unit_e_static_hmcIN33model_stan_boeck_ext_HH_namespace23model_stan_boeck_ext_HHEN5boost6random23additive_combine_engineINS5_26linear_congruential_engineIjLj40014ELj0ELj2147483563EEENS7_IjLj40692ELj0ELj2147483399EEEEEED1Ev"
 "_ZN4stan4mcmc24adapt_dense_e_static_hmcIN24model_stan_pcm_namespace14model_stan_pcmEN5boost6random23additive_combine_engineINS5_26linear_congruential_engineIjLj40014ELj0ELj2147483563EEENS7_IjLj40692ELj0ELj2147483399EEEEEE10transitionERNS0_6sampleERNS_9callbacks6loggerE"
 "_ZN4stan4mcmc24adapt_dense_e_static_hmcIN24model_stan_pcm_namespace14model_stan_pcmEN5boost6random23additive_combine_engineINS5_26linear_congruential_engineIjLj40014ELj0ELj2147483563EEENS7_IjLj40692ELj0ELj2147483399EEEEEE20disengage_adaptationEv"
 "_ZN4stan4mcmc24adapt_dense_e_static_hmcIN24model_stan_pcm_namespace14model_stan_pcmEN5boost6random23additive_combine_engineINS5_26linear_congruential_engineIjLj40014ELj0ELj2147483563EEENS7_IjLj40692ELj0ELj2147483399EEEEEED0Ev"
 "_ZN4stan4mcmc24adapt_dense_e_static_hmcIN24model_stan_pcm_namespace14model_stan_pcmEN5boost6random23additive_combine_engineINS5_26linear_congruential_engineIjLj40014ELj0ELj2147483563EEENS7_IjLj40692ELj0ELj2147483399EEEEEED1Ev"
 "_ZN4stan4mcmc24adapt_dense_e_static_hmcIN26model_stan_steps_namespace16model_stan_stepsEN5boost6random23additive_combine_engineINS5_26linear_congruential_engineIjLj40014ELj0ELj2147483563EEENS7_IjLj40692ELj0ELj2147483399EEEEEE10transitionERNS0_6sampleERNS_9callbacks6loggerE"
 "_ZN4stan4mcmc24adapt_dense_e_static_hmcIN26model_stan_steps_namespace16model_stan_stepsEN5boost6random23additive_combine_engineINS5_26linear_congruential_engineIjLj40014ELj0ELj2147483563EEENS7_IjLj40692ELj0ELj2147483399EEEEEE20disengage_adaptationEv"
 "_ZN4stan4mcmc24adapt_dense_e_static_hmcIN26model_stan_steps_namespace16model_stan_stepsEN5boost6random23additive_combine_engineINS5_26linear_congruential_engineIjLj40014ELj0ELj2147483563EEENS7_IjLj40692ELj0ELj2147483399EEEEEED0Ev"
 "_ZN4stan4mcmc24adapt_dense_e_static_hmcIN26model_stan_steps_namespace16model_stan_stepsEN5boost6random23additive_combine_engineINS5_26linear_congruential_engineIjLj40014ELj0ELj2147483563EEENS7_IjLj40692ELj0ELj2147483399EEEEEED1Ev"
 "_ZN4stan4mcmc24adapt_dense_e_static_hmcIN30model_stan_boeck_ext_namespace20model_stan_boeck_extEN5boost6random23additive_combine_engineINS5_26linear_congruential_engineIjLj40014ELj0ELj2147483563EEENS7_IjLj40692ELj0ELj2147483399EEEEEE10transitionERNS0_6sampleERNS_9callbacks6loggerE"
 "_ZN4stan4mcmc24adapt_dense_e_static_hmcIN30model_stan_boeck_ext_namespace20model_stan_boeck_extEN5boost6random23additive_combine_engineINS5_26linear_congruential_engineIjLj40014ELj0ELj2147483563EEENS7_IjLj40692ELj0ELj2147483399EEEEEE20disengage_adaptationEv"
 "_ZN4stan4mcmc24adapt_dense_e_static_hmcIN30model_stan_boeck_ext_namespace20model_stan_boeck_extEN5boost6random23additive_combine_engineINS5_26linear_congruential_engineIjLj40014ELj0ELj2147483563EEENS7_IjLj40692ELj0ELj2147483399EEEEEED0Ev"
 "_ZN4stan4mcmc24adapt_dense_e_static_hmcIN30model_stan_boeck_ext_namespace20model_stan_boeck_extEN5boost6random23additive_combine_engineINS5_26linear_congruential_engineIjLj40014ELj0ELj2147483563EEENS7_IjLj40692ELj0ELj2147483399EEEEEED1Ev"
 "_ZN4stan4mcmc24adapt_dense_e_static_hmcIN31model_stan_boeck_2012_namespace21model_stan_boeck_2012EN5boost6random23additive_combine_engineINS5_26linear_congruential_engineIjLj40014ELj0ELj2147483563EEENS7_IjLj40692ELj0ELj2147483399EEEEEE10transitionERNS0_6sampleERNS_9callbacks6loggerE"
 "_ZN4stan4mcmc24adapt_dense_e_static_hmcIN31model_stan_boeck_2012_namespace21model_stan_boeck_2012EN5boost6random23additive_combine_engineINS5_26linear_congruential_engineIjLj40014ELj0ELj2147483563EEENS7_IjLj40692ELj0ELj2147483399EEEEEE20disengage_adaptationEv"
 "_ZN4stan4mcmc24adapt_dense_e_static_hmcIN31model_stan_boeck_2012_namespace21model_stan_boeck_2012EN5boost6random23additive_combine_engineINS5_26linear_congruential_engineIjLj40014ELj0ELj2147483563EEENS7_IjLj40692ELj0ELj2147483399EEEEEED0Ev"
 "_ZN4stan4mcmc24adapt_dense_e_static_hmcIN31model_stan_boeck_2012_namespace21model_stan_boeck_2012EN5boost6random23additive_combine_engineINS5_26linear_congruential_engineIjLj40014ELj0ELj2147483563EEENS7_IjLj40692ELj0ELj2147483399EEEEEED1Ev"
 "_ZN4stan4mcmc24adapt_dense_e_static_hmcIN31model_stan_boeck_ext2_namespace21model_stan_boeck_ext2EN5boost6random23additive_combine_engineINS5_26linear_congruential_engineIjLj40014ELj0ELj2147483563EEENS7_IjLj40692ELj0ELj2147483399EEEEEE10transitionERNS0_6sampleERNS_9callbacks6loggerE"
 "_ZN4stan4mcmc24adapt_dense_e_static_hmcIN31model_stan_boeck_ext2_namespace21model_stan_boeck_ext2EN5boost6random23additive_combine_engineINS5_26linear_congruential_engineIjLj40014ELj0ELj2147483563EEENS7_IjLj40692ELj0ELj2147483399EEEEEE20disengage_adaptationEv"
 "_ZN4stan4mcmc24adapt_dense_e_static_hmcIN31model_stan_boeck_ext2_namespace21model_stan_boeck_ext2EN5boost6random23additive_combine_engineINS5_26linear_congruential_engineIjLj40014ELj0ELj2147483563EEENS7_IjLj40692ELj0ELj2147483399EEEEEED0Ev"
 "_ZN4stan4mcmc24adapt_dense_e_static_hmcIN31model_stan_boeck_ext2_namespace21model_stan_boeck_ext2EN5boost6random23additive_combine_engineINS5_26linear_congruential_engineIjLj40014ELj0ELj2147483563EEENS7_IjLj40692ELj0ELj2147483399EEEEEED1Ev"
 "_ZN4stan4mcmc24adapt_dense_e_static_hmcIN32model_stan_boeck_shift_namespace22model_stan_boeck_shiftEN5boost6random23additive_combine_engineINS5_26linear_congruential_engineIjLj40014ELj0ELj2147483563EEENS7_IjLj40692ELj0ELj2147483399EEEEEE10transitionERNS0_6sampleERNS_9callbacks6loggerE"
 "_ZN4stan4mcmc24adapt_dense_e_static_hmcIN32model_stan_boeck_shift_namespace22model_stan_boeck_shiftEN5boost6random23additive_combine_engineINS5_26linear_congruential_engineIjLj40014ELj0ELj2147483563EEENS7_IjLj40692ELj0ELj2147483399EEEEEE20disengage_adaptationEv"
 "_ZN4stan4mcmc24adapt_dense_e_static_hmcIN32model_stan_boeck_shift_namespace22model_stan_boeck_shiftEN5boost6random23additive_combine_engineINS5_26linear_congruential_engineIjLj40014ELj0ELj2147483563EEENS7_IjLj40692ELj0ELj2147483399EEEEEED0Ev"
 "_ZN4stan4mcmc24adapt_dense_e_static_hmcIN32model_stan_boeck_shift_namespace22model_stan_boeck_shiftEN5boost6random23additive_combine_engineINS5_26linear_congruential_engineIjLj40014ELj0ELj2147483563EEENS7_IjLj40692ELj0ELj2147483399EEEEEED1Ev"
 "_ZN4stan4mcmc24adapt_dense_e_static_hmcIN33model_stan_boeck_ext_HH_namespace23model_stan_boeck_ext_HHEN5boost6random23additive_combine_engineINS5_26linear_congruential_engineIjLj40014ELj0ELj2147483563EEENS7_IjLj40692ELj0ELj2147483399EEEEEE10transitionERNS0_6sampleERNS_9callbacks6loggerE"
 "_ZN4stan4mcmc24adapt_dense_e_static_hmcIN33model_stan_boeck_ext_HH_namespace23model_stan_boeck_ext_HHEN5boost6random23additive_combine_engineINS5_26linear_congruential_engineIjLj40014ELj0ELj2147483563EEENS7_IjLj40692ELj0ELj2147483399EEEEEE20disengage_adaptationEv"
 "_ZN4stan4mcmc24adapt_dense_e_static_hmcIN33model_stan_boeck_ext_HH_namespace23model_stan_boeck_ext_HHEN5boost6random23additive_combine_engineINS5_26linear_congruential_engineIjLj40014ELj0ELj2147483563EEENS7_IjLj40692ELj0ELj2147483399EEEEEED0Ev"
 "_ZN4stan4mcmc24adapt_dense_e_static_hmcIN33model_stan_boeck_ext_HH_namespace23model_stan_boeck_ext_HHEN5boost6random23additive_combine_engineINS5_26linear_congruential_engineIjLj40014ELj0ELj2147483563EEENS7_IjLj40692ELj0ELj2147483399EEEEEED1Ev"
 "_ZN4stan4mcmc6sample22get_sample_param_namesERSt6vectorISsSaISsEE"
 "_ZN4stan4mcmc6sampleD0Ev"
 "_ZN4stan4mcmc6sampleD1Ev"
 "_ZN4stan4mcmc8base_hmcIN24model_stan_pcm_namespace14model_stan_pcmENS0_13diag_e_metricENS0_13expl_leapfrogEN5boost6random23additive_combine_engineINS7_26linear_congruential_engineIjLj40014ELj0ELj2147483563EEENS9_IjLj40692ELj0ELj2147483399EEEEEE13init_stepsizeERNS_9callbacks6loggerE"
 "_ZN4stan4mcmc8base_hmcIN24model_stan_pcm_namespace14model_stan_pcmENS0_13diag_e_metricENS0_13expl_leapfrogEN5boost6random23additive_combine_engineINS7_26linear_congruential_engineIjLj40014ELj0ELj2147483563EEENS9_IjLj40692ELj0ELj2147483399EEEEEE19set_stepsize_jitterEd"
 "_ZN4stan4mcmc8base_hmcIN24model_stan_pcm_namespace14model_stan_pcmENS0_13diag_e_metricENS0_13expl_leapfrogEN5boost6random23additive_combine_engineINS7_26linear_congruential_engineIjLj40014ELj0ELj2147483563EEENS9_IjLj40692ELj0ELj2147483399EEEEEE19write_sampler_stateERNS_9callbacks6writerE"
 "_ZN4stan4mcmc8base_hmcIN24model_stan_pcm_namespace14model_stan_pcmENS0_13diag_e_metricENS0_13expl_leapfrogEN5boost6random23additive_combine_engineINS7_26linear_congruential_engineIjLj40014ELj0ELj2147483563EEENS9_IjLj40692ELj0ELj2147483399EEEEEE20set_nominal_stepsizeEd"
 "_ZN4stan4mcmc8base_hmcIN24model_stan_pcm_namespace14model_stan_pcmENS0_13diag_e_metricENS0_13expl_leapfrogEN5boost6random23additive_combine_engineINS7_26linear_congruential_engineIjLj40014ELj0ELj2147483563EEENS9_IjLj40692ELj0ELj2147483399EEEEEE22write_sampler_stepsizeERNS_9callbacks6writerE"
 "_ZN4stan4mcmc8base_hmcIN24model_stan_pcm_namespace14model_stan_pcmENS0_13diag_e_metricENS0_13expl_leapfrogEN5boost6random23additive_combine_engineINS7_26linear_congruential_engineIjLj40014ELj0ELj2147483563EEENS9_IjLj40692ELj0ELj2147483399EEEEEE23get_sampler_diagnosticsERSt6vectorIdSaIdEE"
 "_ZN4stan4mcmc8base_hmcIN24model_stan_pcm_namespace14model_stan_pcmENS0_13diag_e_metricENS0_13expl_leapfrogEN5boost6random23additive_combine_engineINS7_26linear_congruential_engineIjLj40014ELj0ELj2147483563EEENS9_IjLj40692ELj0ELj2147483399EEEEEE28get_sampler_diagnostic_namesERSt6vectorISsSaISsEESH_"
 "_ZN4stan4mcmc8base_hmcIN24model_stan_pcm_namespace14model_stan_pcmENS0_13diag_e_metricENS0_13expl_leapfrogEN5boost6random23additive_combine_engineINS7_26linear_congruential_engineIjLj40014ELj0ELj2147483563EEENS9_IjLj40692ELj0ELj2147483399EEEEEED2Ev"
 "_ZN4stan4mcmc8base_hmcIN24model_stan_pcm_namespace14model_stan_pcmENS0_13unit_e_metricENS0_13expl_leapfrogEN5boost6random23additive_combine_engineINS7_26linear_congruential_engineIjLj40014ELj0ELj2147483563EEENS9_IjLj40692ELj0ELj2147483399EEEEEE13init_stepsizeERNS_9callbacks6loggerE"
 "_ZN4stan4mcmc8base_hmcIN24model_stan_pcm_namespace14model_stan_pcmENS0_13unit_e_metricENS0_13expl_leapfrogEN5boost6random23additive_combine_engineINS7_26linear_congruential_engineIjLj40014ELj0ELj2147483563EEENS9_IjLj40692ELj0ELj2147483399EEEEEE19set_stepsize_jitterEd"
 "_ZN4stan4mcmc8base_hmcIN24model_stan_pcm_namespace14model_stan_pcmENS0_13unit_e_metricENS0_13expl_leapfrogEN5boost6random23additive_combine_engineINS7_26linear_congruential_engineIjLj40014ELj0ELj2147483563EEENS9_IjLj40692ELj0ELj2147483399EEEEEE19write_sampler_stateERNS_9callbacks6writerE"
 "_ZN4stan4mcmc8base_hmcIN24model_stan_pcm_namespace14model_stan_pcmENS0_13unit_e_metricENS0_13expl_leapfrogEN5boost6random23additive_combine_engineINS7_26linear_congruential_engineIjLj40014ELj0ELj2147483563EEENS9_IjLj40692ELj0ELj2147483399EEEEEE20set_nominal_stepsizeEd"
 "_ZN4stan4mcmc8base_hmcIN24model_stan_pcm_namespace14model_stan_pcmENS0_13unit_e_metricENS0_13expl_leapfrogEN5boost6random23additive_combine_engineINS7_26linear_congruential_engineIjLj40014ELj0ELj2147483563EEENS9_IjLj40692ELj0ELj2147483399EEEEEE22write_sampler_stepsizeERNS_9callbacks6writerE"
 "_ZN4stan4mcmc8base_hmcIN24model_stan_pcm_namespace14model_stan_pcmENS0_13unit_e_metricENS0_13expl_leapfrogEN5boost6random23additive_combine_engineINS7_26linear_congruential_engineIjLj40014ELj0ELj2147483563EEENS9_IjLj40692ELj0ELj2147483399EEEEEE23get_sampler_diagnosticsERSt6vectorIdSaIdEE"
 "_ZN4stan4mcmc8base_hmcIN24model_stan_pcm_namespace14model_stan_pcmENS0_13unit_e_metricENS0_13expl_leapfrogEN5boost6random23additive_combine_engineINS7_26linear_congruential_engineIjLj40014ELj0ELj2147483563EEENS9_IjLj40692ELj0ELj2147483399EEEEEE28get_sampler_diagnostic_namesERSt6vectorISsSaISsEESH_"
 "_ZN4stan4mcmc8base_hmcIN24model_stan_pcm_namespace14model_stan_pcmENS0_14dense_e_metricENS0_13expl_leapfrogEN5boost6random23additive_combine_engineINS7_26linear_congruential_engineIjLj40014ELj0ELj2147483563EEENS9_IjLj40692ELj0ELj2147483399EEEEEE13init_stepsizeERNS_9callbacks6loggerE"
 "_ZN4stan4mcmc8base_hmcIN24model_stan_pcm_namespace14model_stan_pcmENS0_14dense_e_metricENS0_13expl_leapfrogEN5boost6random23additive_combine_engineINS7_26linear_congruential_engineIjLj40014ELj0ELj2147483563EEENS9_IjLj40692ELj0ELj2147483399EEEEEE19set_stepsize_jitterEd"
 "_ZN4stan4mcmc8base_hmcIN24model_stan_pcm_namespace14model_stan_pcmENS0_14dense_e_metricENS0_13expl_leapfrogEN5boost6random23additive_combine_engineINS7_26linear_congruential_engineIjLj40014ELj0ELj2147483563EEENS9_IjLj40692ELj0ELj2147483399EEEEEE19write_sampler_stateERNS_9callbacks6writerE"
 "_ZN4stan4mcmc8base_hmcIN24model_stan_pcm_namespace14model_stan_pcmENS0_14dense_e_metricENS0_13expl_leapfrogEN5boost6random23additive_combine_engineINS7_26linear_congruential_engineIjLj40014ELj0ELj2147483563EEENS9_IjLj40692ELj0ELj2147483399EEEEEE20set_nominal_stepsizeEd"
 "_ZN4stan4mcmc8base_hmcIN24model_stan_pcm_namespace14model_stan_pcmENS0_14dense_e_metricENS0_13expl_leapfrogEN5boost6random23additive_combine_engineINS7_26linear_congruential_engineIjLj40014ELj0ELj2147483563EEENS9_IjLj40692ELj0ELj2147483399EEEEEE22write_sampler_stepsizeERNS_9callbacks6writerE"
 "_ZN4stan4mcmc8base_hmcIN24model_stan_pcm_namespace14model_stan_pcmENS0_14dense_e_metricENS0_13expl_leapfrogEN5boost6random23additive_combine_engineINS7_26linear_congruential_engineIjLj40014ELj0ELj2147483563EEENS9_IjLj40692ELj0ELj2147483399EEEEEE23get_sampler_diagnosticsERSt6vectorIdSaIdEE"
 "_ZN4stan4mcmc8base_hmcIN24model_stan_pcm_namespace14model_stan_pcmENS0_14dense_e_metricENS0_13expl_leapfrogEN5boost6random23additive_combine_engineINS7_26linear_congruential_engineIjLj40014ELj0ELj2147483563EEENS9_IjLj40692ELj0ELj2147483399EEEEEE28get_sampler_diagnostic_namesERSt6vectorISsSaISsEESH_"
 "_ZN4stan4mcmc8base_hmcIN24model_stan_pcm_namespace14model_stan_pcmENS0_14dense_e_metricENS0_13expl_leapfrogEN5boost6random23additive_combine_engineINS7_26linear_congruential_engineIjLj40014ELj0ELj2147483563EEENS9_IjLj40692ELj0ELj2147483399EEEEEED2Ev"
 "_ZN4stan4mcmc8base_hmcIN26model_stan_steps_namespace16model_stan_stepsENS0_13diag_e_metricENS0_13expl_leapfrogEN5boost6random23additive_combine_engineINS7_26linear_congruential_engineIjLj40014ELj0ELj2147483563EEENS9_IjLj40692ELj0ELj2147483399EEEEEE13init_stepsizeERNS_9callbacks6loggerE"
 "_ZN4stan4mcmc8base_hmcIN26model_stan_steps_namespace16model_stan_stepsENS0_13diag_e_metricENS0_13expl_leapfrogEN5boost6random23additive_combine_engineINS7_26linear_congruential_engineIjLj40014ELj0ELj2147483563EEENS9_IjLj40692ELj0ELj2147483399EEEEEE19set_stepsize_jitterEd"
 "_ZN4stan4mcmc8base_hmcIN26model_stan_steps_namespace16model_stan_stepsENS0_13diag_e_metricENS0_13expl_leapfrogEN5boost6random23additive_combine_engineINS7_26linear_congruential_engineIjLj40014ELj0ELj2147483563EEENS9_IjLj40692ELj0ELj2147483399EEEEEE19write_sampler_stateERNS_9callbacks6writerE"
 "_ZN4stan4mcmc8base_hmcIN26model_stan_steps_namespace16model_stan_stepsENS0_13diag_e_metricENS0_13expl_leapfrogEN5boost6random23additive_combine_engineINS7_26linear_congruential_engineIjLj40014ELj0ELj2147483563EEENS9_IjLj40692ELj0ELj2147483399EEEEEE20set_nominal_stepsizeEd"
 "_ZN4stan4mcmc8base_hmcIN26model_stan_steps_namespace16model_stan_stepsENS0_13diag_e_metricENS0_13expl_leapfrogEN5boost6random23additive_combine_engineINS7_26linear_congruential_engineIjLj40014ELj0ELj2147483563EEENS9_IjLj40692ELj0ELj2147483399EEEEEE22write_sampler_stepsizeERNS_9callbacks6writerE"
 "_ZN4stan4mcmc8base_hmcIN26model_stan_steps_namespace16model_stan_stepsENS0_13diag_e_metricENS0_13expl_leapfrogEN5boost6random23additive_combine_engineINS7_26linear_congruential_engineIjLj40014ELj0ELj2147483563EEENS9_IjLj40692ELj0ELj2147483399EEEEEE23get_sampler_diagnosticsERSt6vectorIdSaIdEE"
 "_ZN4stan4mcmc8base_hmcIN26model_stan_steps_namespace16model_stan_stepsENS0_13diag_e_metricENS0_13expl_leapfrogEN5boost6random23additive_combine_engineINS7_26linear_congruential_engineIjLj40014ELj0ELj2147483563EEENS9_IjLj40692ELj0ELj2147483399EEEEEE28get_sampler_diagnostic_namesERSt6vectorISsSaISsEESH_"
 "_ZN4stan4mcmc8base_hmcIN26model_stan_steps_namespace16model_stan_stepsENS0_13diag_e_metricENS0_13expl_leapfrogEN5boost6random23additive_combine_engineINS7_26linear_congruential_engineIjLj40014ELj0ELj2147483563EEENS9_IjLj40692ELj0ELj2147483399EEEEEED2Ev"
 "_ZN4stan4mcmc8base_hmcIN26model_stan_steps_namespace16model_stan_stepsENS0_13unit_e_metricENS0_13expl_leapfrogEN5boost6random23additive_combine_engineINS7_26linear_congruential_engineIjLj40014ELj0ELj2147483563EEENS9_IjLj40692ELj0ELj2147483399EEEEEE13init_stepsizeERNS_9callbacks6loggerE"
 "_ZN4stan4mcmc8base_hmcIN26model_stan_steps_namespace16model_stan_stepsENS0_13unit_e_metricENS0_13expl_leapfrogEN5boost6random23additive_combine_engineINS7_26linear_congruential_engineIjLj40014ELj0ELj2147483563EEENS9_IjLj40692ELj0ELj2147483399EEEEEE19set_stepsize_jitterEd"
 "_ZN4stan4mcmc8base_hmcIN26model_stan_steps_namespace16model_stan_stepsENS0_13unit_e_metricENS0_13expl_leapfrogEN5boost6random23additive_combine_engineINS7_26linear_congruential_engineIjLj40014ELj0ELj2147483563EEENS9_IjLj40692ELj0ELj2147483399EEEEEE19write_sampler_stateERNS_9callbacks6writerE"
 "_ZN4stan4mcmc8base_hmcIN26model_stan_steps_namespace16model_stan_stepsENS0_13unit_e_metricENS0_13expl_leapfrogEN5boost6random23additive_combine_engineINS7_26linear_congruential_engineIjLj40014ELj0ELj2147483563EEENS9_IjLj40692ELj0ELj2147483399EEEEEE20set_nominal_stepsizeEd"
 "_ZN4stan4mcmc8base_hmcIN26model_stan_steps_namespace16model_stan_stepsENS0_13unit_e_metricENS0_13expl_leapfrogEN5boost6random23additive_combine_engineINS7_26linear_congruential_engineIjLj40014ELj0ELj2147483563EEENS9_IjLj40692ELj0ELj2147483399EEEEEE22write_sampler_stepsizeERNS_9callbacks6writerE"
 "_ZN4stan4mcmc8base_hmcIN26model_stan_steps_namespace16model_stan_stepsENS0_13unit_e_metricENS0_13expl_leapfrogEN5boost6random23additive_combine_engineINS7_26linear_congruential_engineIjLj40014ELj0ELj2147483563EEENS9_IjLj40692ELj0ELj2147483399EEEEEE23get_sampler_diagnosticsERSt6vectorIdSaIdEE"
 "_ZN4stan4mcmc8base_hmcIN26model_stan_steps_namespace16model_stan_stepsENS0_13unit_e_metricENS0_13expl_leapfrogEN5boost6random23additive_combine_engineINS7_26linear_congruential_engineIjLj40014ELj0ELj2147483563EEENS9_IjLj40692ELj0ELj2147483399EEEEEE28get_sampler_diagnostic_namesERSt6vectorISsSaISsEESH_"
 "_ZN4stan4mcmc8base_hmcIN26model_stan_steps_namespace16model_stan_stepsENS0_14dense_e_metricENS0_13expl_leapfrogEN5boost6random23additive_combine_engineINS7_26linear_congruential_engineIjLj40014ELj0ELj2147483563EEENS9_IjLj40692ELj0ELj2147483399EEEEEE13init_stepsizeERNS_9callbacks6loggerE"
 "_ZN4stan4mcmc8base_hmcIN26model_stan_steps_namespace16model_stan_stepsENS0_14dense_e_metricENS0_13expl_leapfrogEN5boost6random23additive_combine_engineINS7_26linear_congruential_engineIjLj40014ELj0ELj2147483563EEENS9_IjLj40692ELj0ELj2147483399EEEEEE19set_stepsize_jitterEd"
 "_ZN4stan4mcmc8base_hmcIN26model_stan_steps_namespace16model_stan_stepsENS0_14dense_e_metricENS0_13expl_leapfrogEN5boost6random23additive_combine_engineINS7_26linear_congruential_engineIjLj40014ELj0ELj2147483563EEENS9_IjLj40692ELj0ELj2147483399EEEEEE19write_sampler_stateERNS_9callbacks6writerE"
 "_ZN4stan4mcmc8base_hmcIN26model_stan_steps_namespace16model_stan_stepsENS0_14dense_e_metricENS0_13expl_leapfrogEN5boost6random23additive_combine_engineINS7_26linear_congruential_engineIjLj40014ELj0ELj2147483563EEENS9_IjLj40692ELj0ELj2147483399EEEEEE20set_nominal_stepsizeEd"
 "_ZN4stan4mcmc8base_hmcIN26model_stan_steps_namespace16model_stan_stepsENS0_14dense_e_metricENS0_13expl_leapfrogEN5boost6random23additive_combine_engineINS7_26linear_congruential_engineIjLj40014ELj0ELj2147483563EEENS9_IjLj40692ELj0ELj2147483399EEEEEE22write_sampler_stepsizeERNS_9callbacks6writerE"
 "_ZN4stan4mcmc8base_hmcIN26model_stan_steps_namespace16model_stan_stepsENS0_14dense_e_metricENS0_13expl_leapfrogEN5boost6random23additive_combine_engineINS7_26linear_congruential_engineIjLj40014ELj0ELj2147483563EEENS9_IjLj40692ELj0ELj2147483399EEEEEE23get_sampler_diagnosticsERSt6vectorIdSaIdEE"
 "_ZN4stan4mcmc8base_hmcIN26model_stan_steps_namespace16model_stan_stepsENS0_14dense_e_metricENS0_13expl_leapfrogEN5boost6random23additive_combine_engineINS7_26linear_congruential_engineIjLj40014ELj0ELj2147483563EEENS9_IjLj40692ELj0ELj2147483399EEEEEE28get_sampler_diagnostic_namesERSt6vectorISsSaISsEESH_"
 "_ZN4stan4mcmc8base_hmcIN26model_stan_steps_namespace16model_stan_stepsENS0_14dense_e_metricENS0_13expl_leapfrogEN5boost6random23additive_combine_engineINS7_26linear_congruential_engineIjLj40014ELj0ELj2147483563EEENS9_IjLj40692ELj0ELj2147483399EEEEEED2Ev"
 "_ZN4stan4mcmc8base_hmcIN30model_stan_boeck_ext_namespace20model_stan_boeck_extENS0_13diag_e_metricENS0_13expl_leapfrogEN5boost6random23additive_combine_engineINS7_26linear_congruential_engineIjLj40014ELj0ELj2147483563EEENS9_IjLj40692ELj0ELj2147483399EEEEEE13init_stepsizeERNS_9callbacks6loggerE"
 "_ZN4stan4mcmc8base_hmcIN30model_stan_boeck_ext_namespace20model_stan_boeck_extENS0_13diag_e_metricENS0_13expl_leapfrogEN5boost6random23additive_combine_engineINS7_26linear_congruential_engineIjLj40014ELj0ELj2147483563EEENS9_IjLj40692ELj0ELj2147483399EEEEEE19set_stepsize_jitterEd"
 "_ZN4stan4mcmc8base_hmcIN30model_stan_boeck_ext_namespace20model_stan_boeck_extENS0_13diag_e_metricENS0_13expl_leapfrogEN5boost6random23additive_combine_engineINS7_26linear_congruential_engineIjLj40014ELj0ELj2147483563EEENS9_IjLj40692ELj0ELj2147483399EEEEEE19write_sampler_stateERNS_9callbacks6writerE"
 "_ZN4stan4mcmc8base_hmcIN30model_stan_boeck_ext_namespace20model_stan_boeck_extENS0_13diag_e_metricENS0_13expl_leapfrogEN5boost6random23additive_combine_engineINS7_26linear_congruential_engineIjLj40014ELj0ELj2147483563EEENS9_IjLj40692ELj0ELj2147483399EEEEEE20set_nominal_stepsizeEd"
 "_ZN4stan4mcmc8base_hmcIN30model_stan_boeck_ext_namespace20model_stan_boeck_extENS0_13diag_e_metricENS0_13expl_leapfrogEN5boost6random23additive_combine_engineINS7_26linear_congruential_engineIjLj40014ELj0ELj2147483563EEENS9_IjLj40692ELj0ELj2147483399EEEEEE22write_sampler_stepsizeERNS_9callbacks6writerE"
 "_ZN4stan4mcmc8base_hmcIN30model_stan_boeck_ext_namespace20model_stan_boeck_extENS0_13diag_e_metricENS0_13expl_leapfrogEN5boost6random23additive_combine_engineINS7_26linear_congruential_engineIjLj40014ELj0ELj2147483563EEENS9_IjLj40692ELj0ELj2147483399EEEEEE23get_sampler_diagnosticsERSt6vectorIdSaIdEE"
 "_ZN4stan4mcmc8base_hmcIN30model_stan_boeck_ext_namespace20model_stan_boeck_extENS0_13diag_e_metricENS0_13expl_leapfrogEN5boost6random23additive_combine_engineINS7_26linear_congruential_engineIjLj40014ELj0ELj2147483563EEENS9_IjLj40692ELj0ELj2147483399EEEEEE28get_sampler_diagnostic_namesERSt6vectorISsSaISsEESH_"
 "_ZN4stan4mcmc8base_hmcIN30model_stan_boeck_ext_namespace20model_stan_boeck_extENS0_13diag_e_metricENS0_13expl_leapfrogEN5boost6random23additive_combine_engineINS7_26linear_congruential_engineIjLj40014ELj0ELj2147483563EEENS9_IjLj40692ELj0ELj2147483399EEEEEED2Ev"
 "_ZN4stan4mcmc8base_hmcIN30model_stan_boeck_ext_namespace20model_stan_boeck_extENS0_13unit_e_metricENS0_13expl_leapfrogEN5boost6random23additive_combine_engineINS7_26linear_congruential_engineIjLj40014ELj0ELj2147483563EEENS9_IjLj40692ELj0ELj2147483399EEEEEE13init_stepsizeERNS_9callbacks6loggerE"
 "_ZN4stan4mcmc8base_hmcIN30model_stan_boeck_ext_namespace20model_stan_boeck_extENS0_13unit_e_metricENS0_13expl_leapfrogEN5boost6random23additive_combine_engineINS7_26linear_congruential_engineIjLj40014ELj0ELj2147483563EEENS9_IjLj40692ELj0ELj2147483399EEEEEE19set_stepsize_jitterEd"
 "_ZN4stan4mcmc8base_hmcIN30model_stan_boeck_ext_namespace20model_stan_boeck_extENS0_13unit_e_metricENS0_13expl_leapfrogEN5boost6random23additive_combine_engineINS7_26linear_congruential_engineIjLj40014ELj0ELj2147483563EEENS9_IjLj40692ELj0ELj2147483399EEEEEE19write_sampler_stateERNS_9callbacks6writerE"
 "_ZN4stan4mcmc8base_hmcIN30model_stan_boeck_ext_namespace20model_stan_boeck_extENS0_13unit_e_metricENS0_13expl_leapfrogEN5boost6random23additive_combine_engineINS7_26linear_congruential_engineIjLj40014ELj0ELj2147483563EEENS9_IjLj40692ELj0ELj2147483399EEEEEE20set_nominal_stepsizeEd"
 "_ZN4stan4mcmc8base_hmcIN30model_stan_boeck_ext_namespace20model_stan_boeck_extENS0_13unit_e_metricENS0_13expl_leapfrogEN5boost6random23additive_combine_engineINS7_26linear_congruential_engineIjLj40014ELj0ELj2147483563EEENS9_IjLj40692ELj0ELj2147483399EEEEEE22write_sampler_stepsizeERNS_9callbacks6writerE"
 "_ZN4stan4mcmc8base_hmcIN30model_stan_boeck_ext_namespace20model_stan_boeck_extENS0_13unit_e_metricENS0_13expl_leapfrogEN5boost6random23additive_combine_engineINS7_26linear_congruential_engineIjLj40014ELj0ELj2147483563EEENS9_IjLj40692ELj0ELj2147483399EEEEEE23get_sampler_diagnosticsERSt6vectorIdSaIdEE"
 "_ZN4stan4mcmc8base_hmcIN30model_stan_boeck_ext_namespace20model_stan_boeck_extENS0_13unit_e_metricENS0_13expl_leapfrogEN5boost6random23additive_combine_engineINS7_26linear_congruential_engineIjLj40014ELj0ELj2147483563EEENS9_IjLj40692ELj0ELj2147483399EEEEEE28get_sampler_diagnostic_namesERSt6vectorISsSaISsEESH_"
 "_ZN4stan4mcmc8base_hmcIN30model_stan_boeck_ext_namespace20model_stan_boeck_extENS0_14dense_e_metricENS0_13expl_leapfrogEN5boost6random23additive_combine_engineINS7_26linear_congruential_engineIjLj40014ELj0ELj2147483563EEENS9_IjLj40692ELj0ELj2147483399EEEEEE13init_stepsizeERNS_9callbacks6loggerE"
 "_ZN4stan4mcmc8base_hmcIN30model_stan_boeck_ext_namespace20model_stan_boeck_extENS0_14dense_e_metricENS0_13expl_leapfrogEN5boost6random23additive_combine_engineINS7_26linear_congruential_engineIjLj40014ELj0ELj2147483563EEENS9_IjLj40692ELj0ELj2147483399EEEEEE19set_stepsize_jitterEd"
 "_ZN4stan4mcmc8base_hmcIN30model_stan_boeck_ext_namespace20model_stan_boeck_extENS0_14dense_e_metricENS0_13expl_leapfrogEN5boost6random23additive_combine_engineINS7_26linear_congruential_engineIjLj40014ELj0ELj2147483563EEENS9_IjLj40692ELj0ELj2147483399EEEEEE19write_sampler_stateERNS_9callbacks6writerE"
 "_ZN4stan4mcmc8base_hmcIN30model_stan_boeck_ext_namespace20model_stan_boeck_extENS0_14dense_e_metricENS0_13expl_leapfrogEN5boost6random23additive_combine_engineINS7_26linear_congruential_engineIjLj40014ELj0ELj2147483563EEENS9_IjLj40692ELj0ELj2147483399EEEEEE20set_nominal_stepsizeEd"
 "_ZN4stan4mcmc8base_hmcIN30model_stan_boeck_ext_namespace20model_stan_boeck_extENS0_14dense_e_metricENS0_13expl_leapfrogEN5boost6random23additive_combine_engineINS7_26linear_congruential_engineIjLj40014ELj0ELj2147483563EEENS9_IjLj40692ELj0ELj2147483399EEEEEE22write_sampler_stepsizeERNS_9callbacks6writerE"
 "_ZN4stan4mcmc8base_hmcIN30model_stan_boeck_ext_namespace20model_stan_boeck_extENS0_14dense_e_metricENS0_13expl_leapfrogEN5boost6random23additive_combine_engineINS7_26linear_congruential_engineIjLj40014ELj0ELj2147483563EEENS9_IjLj40692ELj0ELj2147483399EEEEEE23get_sampler_diagnosticsERSt6vectorIdSaIdEE"
 "_ZN4stan4mcmc8base_hmcIN30model_stan_boeck_ext_namespace20model_stan_boeck_extENS0_14dense_e_metricENS0_13expl_leapfrogEN5boost6random23additive_combine_engineINS7_26linear_congruential_engineIjLj40014ELj0ELj2147483563EEENS9_IjLj40692ELj0ELj2147483399EEEEEE28get_sampler_diagnostic_namesERSt6vectorISsSaISsEESH_"
 "_ZN4stan4mcmc8base_hmcIN30model_stan_boeck_ext_namespace20model_stan_boeck_extENS0_14dense_e_metricENS0_13expl_leapfrogEN5boost6random23additive_combine_engineINS7_26linear_congruential_engineIjLj40014ELj0ELj2147483563EEENS9_IjLj40692ELj0ELj2147483399EEEEEED2Ev"
 "_ZN4stan4mcmc8base_hmcIN31model_stan_boeck_2012_namespace21model_stan_boeck_2012ENS0_13diag_e_metricENS0_13expl_leapfrogEN5boost6random23additive_combine_engineINS7_26linear_congruential_engineIjLj40014ELj0ELj2147483563EEENS9_IjLj40692ELj0ELj2147483399EEEEEE13init_stepsizeERNS_9callbacks6loggerE"
 "_ZN4stan4mcmc8base_hmcIN31model_stan_boeck_2012_namespace21model_stan_boeck_2012ENS0_13diag_e_metricENS0_13expl_leapfrogEN5boost6random23additive_combine_engineINS7_26linear_congruential_engineIjLj40014ELj0ELj2147483563EEENS9_IjLj40692ELj0ELj2147483399EEEEEE19set_stepsize_jitterEd"
 "_ZN4stan4mcmc8base_hmcIN31model_stan_boeck_2012_namespace21model_stan_boeck_2012ENS0_13diag_e_metricENS0_13expl_leapfrogEN5boost6random23additive_combine_engineINS7_26linear_congruential_engineIjLj40014ELj0ELj2147483563EEENS9_IjLj40692ELj0ELj2147483399EEEEEE19write_sampler_stateERNS_9callbacks6writerE"
 "_ZN4stan4mcmc8base_hmcIN31model_stan_boeck_2012_namespace21model_stan_boeck_2012ENS0_13diag_e_metricENS0_13expl_leapfrogEN5boost6random23additive_combine_engineINS7_26linear_congruential_engineIjLj40014ELj0ELj2147483563EEENS9_IjLj40692ELj0ELj2147483399EEEEEE20set_nominal_stepsizeEd"
 "_ZN4stan4mcmc8base_hmcIN31model_stan_boeck_2012_namespace21model_stan_boeck_2012ENS0_13diag_e_metricENS0_13expl_leapfrogEN5boost6random23additive_combine_engineINS7_26linear_congruential_engineIjLj40014ELj0ELj2147483563EEENS9_IjLj40692ELj0ELj2147483399EEEEEE22write_sampler_stepsizeERNS_9callbacks6writerE"
 "_ZN4stan4mcmc8base_hmcIN31model_stan_boeck_2012_namespace21model_stan_boeck_2012ENS0_13diag_e_metricENS0_13expl_leapfrogEN5boost6random23additive_combine_engineINS7_26linear_congruential_engineIjLj40014ELj0ELj2147483563EEENS9_IjLj40692ELj0ELj2147483399EEEEEE23get_sampler_diagnosticsERSt6vectorIdSaIdEE"
 "_ZN4stan4mcmc8base_hmcIN31model_stan_boeck_2012_namespace21model_stan_boeck_2012ENS0_13diag_e_metricENS0_13expl_leapfrogEN5boost6random23additive_combine_engineINS7_26linear_congruential_engineIjLj40014ELj0ELj2147483563EEENS9_IjLj40692ELj0ELj2147483399EEEEEE28get_sampler_diagnostic_namesERSt6vectorISsSaISsEESH_"
 "_ZN4stan4mcmc8base_hmcIN31model_stan_boeck_2012_namespace21model_stan_boeck_2012ENS0_13diag_e_metricENS0_13expl_leapfrogEN5boost6random23additive_combine_engineINS7_26linear_congruential_engineIjLj40014ELj0ELj2147483563EEENS9_IjLj40692ELj0ELj2147483399EEEEEED2Ev"
 "_ZN4stan4mcmc8base_hmcIN31model_stan_boeck_2012_namespace21model_stan_boeck_2012ENS0_13unit_e_metricENS0_13expl_leapfrogEN5boost6random23additive_combine_engineINS7_26linear_congruential_engineIjLj40014ELj0ELj2147483563EEENS9_IjLj40692ELj0ELj2147483399EEEEEE13init_stepsizeERNS_9callbacks6loggerE"
 "_ZN4stan4mcmc8base_hmcIN31model_stan_boeck_2012_namespace21model_stan_boeck_2012ENS0_13unit_e_metricENS0_13expl_leapfrogEN5boost6random23additive_combine_engineINS7_26linear_congruential_engineIjLj40014ELj0ELj2147483563EEENS9_IjLj40692ELj0ELj2147483399EEEEEE19set_stepsize_jitterEd"
 "_ZN4stan4mcmc8base_hmcIN31model_stan_boeck_2012_namespace21model_stan_boeck_2012ENS0_13unit_e_metricENS0_13expl_leapfrogEN5boost6random23additive_combine_engineINS7_26linear_congruential_engineIjLj40014ELj0ELj2147483563EEENS9_IjLj40692ELj0ELj2147483399EEEEEE19write_sampler_stateERNS_9callbacks6writerE"
 "_ZN4stan4mcmc8base_hmcIN31model_stan_boeck_2012_namespace21model_stan_boeck_2012ENS0_13unit_e_metricENS0_13expl_leapfrogEN5boost6random23additive_combine_engineINS7_26linear_congruential_engineIjLj40014ELj0ELj2147483563EEENS9_IjLj40692ELj0ELj2147483399EEEEEE20set_nominal_stepsizeEd"
 "_ZN4stan4mcmc8base_hmcIN31model_stan_boeck_2012_namespace21model_stan_boeck_2012ENS0_13unit_e_metricENS0_13expl_leapfrogEN5boost6random23additive_combine_engineINS7_26linear_congruential_engineIjLj40014ELj0ELj2147483563EEENS9_IjLj40692ELj0ELj2147483399EEEEEE22write_sampler_stepsizeERNS_9callbacks6writerE"
 "_ZN4stan4mcmc8base_hmcIN31model_stan_boeck_2012_namespace21model_stan_boeck_2012ENS0_13unit_e_metricENS0_13expl_leapfrogEN5boost6random23additive_combine_engineINS7_26linear_congruential_engineIjLj40014ELj0ELj2147483563EEENS9_IjLj40692ELj0ELj2147483399EEEEEE23get_sampler_diagnosticsERSt6vectorIdSaIdEE"
 "_ZN4stan4mcmc8base_hmcIN31model_stan_boeck_2012_namespace21model_stan_boeck_2012ENS0_13unit_e_metricENS0_13expl_leapfrogEN5boost6random23additive_combine_engineINS7_26linear_congruential_engineIjLj40014ELj0ELj2147483563EEENS9_IjLj40692ELj0ELj2147483399EEEEEE28get_sampler_diagnostic_namesERSt6vectorISsSaISsEESH_"
 "_ZN4stan4mcmc8base_hmcIN31model_stan_boeck_2012_namespace21model_stan_boeck_2012ENS0_14dense_e_metricENS0_13expl_leapfrogEN5boost6random23additive_combine_engineINS7_26linear_congruential_engineIjLj40014ELj0ELj2147483563EEENS9_IjLj40692ELj0ELj2147483399EEEEEE13init_stepsizeERNS_9callbacks6loggerE"
 "_ZN4stan4mcmc8base_hmcIN31model_stan_boeck_2012_namespace21model_stan_boeck_2012ENS0_14dense_e_metricENS0_13expl_leapfrogEN5boost6random23additive_combine_engineINS7_26linear_congruential_engineIjLj40014ELj0ELj2147483563EEENS9_IjLj40692ELj0ELj2147483399EEEEEE19set_stepsize_jitterEd"
 "_ZN4stan4mcmc8base_hmcIN31model_stan_boeck_2012_namespace21model_stan_boeck_2012ENS0_14dense_e_metricENS0_13expl_leapfrogEN5boost6random23additive_combine_engineINS7_26linear_congruential_engineIjLj40014ELj0ELj2147483563EEENS9_IjLj40692ELj0ELj2147483399EEEEEE19write_sampler_stateERNS_9callbacks6writerE"
 "_ZN4stan4mcmc8base_hmcIN31model_stan_boeck_2012_namespace21model_stan_boeck_2012ENS0_14dense_e_metricENS0_13expl_leapfrogEN5boost6random23additive_combine_engineINS7_26linear_congruential_engineIjLj40014ELj0ELj2147483563EEENS9_IjLj40692ELj0ELj2147483399EEEEEE20set_nominal_stepsizeEd"
 "_ZN4stan4mcmc8base_hmcIN31model_stan_boeck_2012_namespace21model_stan_boeck_2012ENS0_14dense_e_metricENS0_13expl_leapfrogEN5boost6random23additive_combine_engineINS7_26linear_congruential_engineIjLj40014ELj0ELj2147483563EEENS9_IjLj40692ELj0ELj2147483399EEEEEE22write_sampler_stepsizeERNS_9callbacks6writerE"
 "_ZN4stan4mcmc8base_hmcIN31model_stan_boeck_2012_namespace21model_stan_boeck_2012ENS0_14dense_e_metricENS0_13expl_leapfrogEN5boost6random23additive_combine_engineINS7_26linear_congruential_engineIjLj40014ELj0ELj2147483563EEENS9_IjLj40692ELj0ELj2147483399EEEEEE23get_sampler_diagnosticsERSt6vectorIdSaIdEE"
 "_ZN4stan4mcmc8base_hmcIN31model_stan_boeck_2012_namespace21model_stan_boeck_2012ENS0_14dense_e_metricENS0_13expl_leapfrogEN5boost6random23additive_combine_engineINS7_26linear_congruential_engineIjLj40014ELj0ELj2147483563EEENS9_IjLj40692ELj0ELj2147483399EEEEEE28get_sampler_diagnostic_namesERSt6vectorISsSaISsEESH_"
 "_ZN4stan4mcmc8base_hmcIN31model_stan_boeck_2012_namespace21model_stan_boeck_2012ENS0_14dense_e_metricENS0_13expl_leapfrogEN5boost6random23additive_combine_engineINS7_26linear_congruential_engineIjLj40014ELj0ELj2147483563EEENS9_IjLj40692ELj0ELj2147483399EEEEEED2Ev"
 "_ZN4stan4mcmc8base_hmcIN31model_stan_boeck_ext2_namespace21model_stan_boeck_ext2ENS0_13diag_e_metricENS0_13expl_leapfrogEN5boost6random23additive_combine_engineINS7_26linear_congruential_engineIjLj40014ELj0ELj2147483563EEENS9_IjLj40692ELj0ELj2147483399EEEEEE13init_stepsizeERNS_9callbacks6loggerE"
 "_ZN4stan4mcmc8base_hmcIN31model_stan_boeck_ext2_namespace21model_stan_boeck_ext2ENS0_13diag_e_metricENS0_13expl_leapfrogEN5boost6random23additive_combine_engineINS7_26linear_congruential_engineIjLj40014ELj0ELj2147483563EEENS9_IjLj40692ELj0ELj2147483399EEEEEE19set_stepsize_jitterEd"
 "_ZN4stan4mcmc8base_hmcIN31model_stan_boeck_ext2_namespace21model_stan_boeck_ext2ENS0_13diag_e_metricENS0_13expl_leapfrogEN5boost6random23additive_combine_engineINS7_26linear_congruential_engineIjLj40014ELj0ELj2147483563EEENS9_IjLj40692ELj0ELj2147483399EEEEEE19write_sampler_stateERNS_9callbacks6writerE"
 "_ZN4stan4mcmc8base_hmcIN31model_stan_boeck_ext2_namespace21model_stan_boeck_ext2ENS0_13diag_e_metricENS0_13expl_leapfrogEN5boost6random23additive_combine_engineINS7_26linear_congruential_engineIjLj40014ELj0ELj2147483563EEENS9_IjLj40692ELj0ELj2147483399EEEEEE20set_nominal_stepsizeEd"
 "_ZN4stan4mcmc8base_hmcIN31model_stan_boeck_ext2_namespace21model_stan_boeck_ext2ENS0_13diag_e_metricENS0_13expl_leapfrogEN5boost6random23additive_combine_engineINS7_26linear_congruential_engineIjLj40014ELj0ELj2147483563EEENS9_IjLj40692ELj0ELj2147483399EEEEEE22write_sampler_stepsizeERNS_9callbacks6writerE"
 "_ZN4stan4mcmc8base_hmcIN31model_stan_boeck_ext2_namespace21model_stan_boeck_ext2ENS0_13diag_e_metricENS0_13expl_leapfrogEN5boost6random23additive_combine_engineINS7_26linear_congruential_engineIjLj40014ELj0ELj2147483563EEENS9_IjLj40692ELj0ELj2147483399EEEEEE23get_sampler_diagnosticsERSt6vectorIdSaIdEE"
 "_ZN4stan4mcmc8base_hmcIN31model_stan_boeck_ext2_namespace21model_stan_boeck_ext2ENS0_13diag_e_metricENS0_13expl_leapfrogEN5boost6random23additive_combine_engineINS7_26linear_congruential_engineIjLj40014ELj0ELj2147483563EEENS9_IjLj40692ELj0ELj2147483399EEEEEE28get_sampler_diagnostic_namesERSt6vectorISsSaISsEESH_"
 "_ZN4stan4mcmc8base_hmcIN31model_stan_boeck_ext2_namespace21model_stan_boeck_ext2ENS0_13diag_e_metricENS0_13expl_leapfrogEN5boost6random23additive_combine_engineINS7_26linear_congruential_engineIjLj40014ELj0ELj2147483563EEENS9_IjLj40692ELj0ELj2147483399EEEEEED2Ev"
 "_ZN4stan4mcmc8base_hmcIN31model_stan_boeck_ext2_namespace21model_stan_boeck_ext2ENS0_13unit_e_metricENS0_13expl_leapfrogEN5boost6random23additive_combine_engineINS7_26linear_congruential_engineIjLj40014ELj0ELj2147483563EEENS9_IjLj40692ELj0ELj2147483399EEEEEE13init_stepsizeERNS_9callbacks6loggerE"
 "_ZN4stan4mcmc8base_hmcIN31model_stan_boeck_ext2_namespace21model_stan_boeck_ext2ENS0_13unit_e_metricENS0_13expl_leapfrogEN5boost6random23additive_combine_engineINS7_26linear_congruential_engineIjLj40014ELj0ELj2147483563EEENS9_IjLj40692ELj0ELj2147483399EEEEEE19set_stepsize_jitterEd"
 "_ZN4stan4mcmc8base_hmcIN31model_stan_boeck_ext2_namespace21model_stan_boeck_ext2ENS0_13unit_e_metricENS0_13expl_leapfrogEN5boost6random23additive_combine_engineINS7_26linear_congruential_engineIjLj40014ELj0ELj2147483563EEENS9_IjLj40692ELj0ELj2147483399EEEEEE19write_sampler_stateERNS_9callbacks6writerE"
 "_ZN4stan4mcmc8base_hmcIN31model_stan_boeck_ext2_namespace21model_stan_boeck_ext2ENS0_13unit_e_metricENS0_13expl_leapfrogEN5boost6random23additive_combine_engineINS7_26linear_congruential_engineIjLj40014ELj0ELj2147483563EEENS9_IjLj40692ELj0ELj2147483399EEEEEE20set_nominal_stepsizeEd"
 "_ZN4stan4mcmc8base_hmcIN31model_stan_boeck_ext2_namespace21model_stan_boeck_ext2ENS0_13unit_e_metricENS0_13expl_leapfrogEN5boost6random23additive_combine_engineINS7_26linear_congruential_engineIjLj40014ELj0ELj2147483563EEENS9_IjLj40692ELj0ELj2147483399EEEEEE22write_sampler_stepsizeERNS_9callbacks6writerE"
 "_ZN4stan4mcmc8base_hmcIN31model_stan_boeck_ext2_namespace21model_stan_boeck_ext2ENS0_13unit_e_metricENS0_13expl_leapfrogEN5boost6random23additive_combine_engineINS7_26linear_congruential_engineIjLj40014ELj0ELj2147483563EEENS9_IjLj40692ELj0ELj2147483399EEEEEE23get_sampler_diagnosticsERSt6vectorIdSaIdEE"
 "_ZN4stan4mcmc8base_hmcIN31model_stan_boeck_ext2_namespace21model_stan_boeck_ext2ENS0_13unit_e_metricENS0_13expl_leapfrogEN5boost6random23additive_combine_engineINS7_26linear_congruential_engineIjLj40014ELj0ELj2147483563EEENS9_IjLj40692ELj0ELj2147483399EEEEEE28get_sampler_diagnostic_namesERSt6vectorISsSaISsEESH_"
 "_ZN4stan4mcmc8base_hmcIN31model_stan_boeck_ext2_namespace21model_stan_boeck_ext2ENS0_14dense_e_metricENS0_13expl_leapfrogEN5boost6random23additive_combine_engineINS7_26linear_congruential_engineIjLj40014ELj0ELj2147483563EEENS9_IjLj40692ELj0ELj2147483399EEEEEE13init_stepsizeERNS_9callbacks6loggerE"
 "_ZN4stan4mcmc8base_hmcIN31model_stan_boeck_ext2_namespace21model_stan_boeck_ext2ENS0_14dense_e_metricENS0_13expl_leapfrogEN5boost6random23additive_combine_engineINS7_26linear_congruential_engineIjLj40014ELj0ELj2147483563EEENS9_IjLj40692ELj0ELj2147483399EEEEEE19set_stepsize_jitterEd"
 "_ZN4stan4mcmc8base_hmcIN31model_stan_boeck_ext2_namespace21model_stan_boeck_ext2ENS0_14dense_e_metricENS0_13expl_leapfrogEN5boost6random23additive_combine_engineINS7_26linear_congruential_engineIjLj40014ELj0ELj2147483563EEENS9_IjLj40692ELj0ELj2147483399EEEEEE19write_sampler_stateERNS_9callbacks6writerE"
 "_ZN4stan4mcmc8base_hmcIN31model_stan_boeck_ext2_namespace21model_stan_boeck_ext2ENS0_14dense_e_metricENS0_13expl_leapfrogEN5boost6random23additive_combine_engineINS7_26linear_congruential_engineIjLj40014ELj0ELj2147483563EEENS9_IjLj40692ELj0ELj2147483399EEEEEE20set_nominal_stepsizeEd"
 "_ZN4stan4mcmc8base_hmcIN31model_stan_boeck_ext2_namespace21model_stan_boeck_ext2ENS0_14dense_e_metricENS0_13expl_leapfrogEN5boost6random23additive_combine_engineINS7_26linear_congruential_engineIjLj40014ELj0ELj2147483563EEENS9_IjLj40692ELj0ELj2147483399EEEEEE22write_sampler_stepsizeERNS_9callbacks6writerE"
 "_ZN4stan4mcmc8base_hmcIN31model_stan_boeck_ext2_namespace21model_stan_boeck_ext2ENS0_14dense_e_metricENS0_13expl_leapfrogEN5boost6random23additive_combine_engineINS7_26linear_congruential_engineIjLj40014ELj0ELj2147483563EEENS9_IjLj40692ELj0ELj2147483399EEEEEE23get_sampler_diagnosticsERSt6vectorIdSaIdEE"
 "_ZN4stan4mcmc8base_hmcIN31model_stan_boeck_ext2_namespace21model_stan_boeck_ext2ENS0_14dense_e_metricENS0_13expl_leapfrogEN5boost6random23additive_combine_engineINS7_26linear_congruential_engineIjLj40014ELj0ELj2147483563EEENS9_IjLj40692ELj0ELj2147483399EEEEEE28get_sampler_diagnostic_namesERSt6vectorISsSaISsEESH_"
 "_ZN4stan4mcmc8base_hmcIN31model_stan_boeck_ext2_namespace21model_stan_boeck_ext2ENS0_14dense_e_metricENS0_13expl_leapfrogEN5boost6random23additive_combine_engineINS7_26linear_congruential_engineIjLj40014ELj0ELj2147483563EEENS9_IjLj40692ELj0ELj2147483399EEEEEED2Ev"
 "_ZN4stan4mcmc8base_hmcIN32model_stan_boeck_shift_namespace22model_stan_boeck_shiftENS0_13diag_e_metricENS0_13expl_leapfrogEN5boost6random23additive_combine_engineINS7_26linear_congruential_engineIjLj40014ELj0ELj2147483563EEENS9_IjLj40692ELj0ELj2147483399EEEEEE13init_stepsizeERNS_9callbacks6loggerE"
 "_ZN4stan4mcmc8base_hmcIN32model_stan_boeck_shift_namespace22model_stan_boeck_shiftENS0_13diag_e_metricENS0_13expl_leapfrogEN5boost6random23additive_combine_engineINS7_26linear_congruential_engineIjLj40014ELj0ELj2147483563EEENS9_IjLj40692ELj0ELj2147483399EEEEEE19set_stepsize_jitterEd"
 "_ZN4stan4mcmc8base_hmcIN32model_stan_boeck_shift_namespace22model_stan_boeck_shiftENS0_13diag_e_metricENS0_13expl_leapfrogEN5boost6random23additive_combine_engineINS7_26linear_congruential_engineIjLj40014ELj0ELj2147483563EEENS9_IjLj40692ELj0ELj2147483399EEEEEE19write_sampler_stateERNS_9callbacks6writerE"
 "_ZN4stan4mcmc8base_hmcIN32model_stan_boeck_shift_namespace22model_stan_boeck_shiftENS0_13diag_e_metricENS0_13expl_leapfrogEN5boost6random23additive_combine_engineINS7_26linear_congruential_engineIjLj40014ELj0ELj2147483563EEENS9_IjLj40692ELj0ELj2147483399EEEEEE20set_nominal_stepsizeEd"
 "_ZN4stan4mcmc8base_hmcIN32model_stan_boeck_shift_namespace22model_stan_boeck_shiftENS0_13diag_e_metricENS0_13expl_leapfrogEN5boost6random23additive_combine_engineINS7_26linear_congruential_engineIjLj40014ELj0ELj2147483563EEENS9_IjLj40692ELj0ELj2147483399EEEEEE22write_sampler_stepsizeERNS_9callbacks6writerE"
 "_ZN4stan4mcmc8base_hmcIN32model_stan_boeck_shift_namespace22model_stan_boeck_shiftENS0_13diag_e_metricENS0_13expl_leapfrogEN5boost6random23additive_combine_engineINS7_26linear_congruential_engineIjLj40014ELj0ELj2147483563EEENS9_IjLj40692ELj0ELj2147483399EEEEEE23get_sampler_diagnosticsERSt6vectorIdSaIdEE"
 "_ZN4stan4mcmc8base_hmcIN32model_stan_boeck_shift_namespace22model_stan_boeck_shiftENS0_13diag_e_metricENS0_13expl_leapfrogEN5boost6random23additive_combine_engineINS7_26linear_congruential_engineIjLj40014ELj0ELj2147483563EEENS9_IjLj40692ELj0ELj2147483399EEEEEE28get_sampler_diagnostic_namesERSt6vectorISsSaISsEESH_"
 "_ZN4stan4mcmc8base_hmcIN32model_stan_boeck_shift_namespace22model_stan_boeck_shiftENS0_13diag_e_metricENS0_13expl_leapfrogEN5boost6random23additive_combine_engineINS7_26linear_congruential_engineIjLj40014ELj0ELj2147483563EEENS9_IjLj40692ELj0ELj2147483399EEEEEED2Ev"
 "_ZN4stan4mcmc8base_hmcIN32model_stan_boeck_shift_namespace22model_stan_boeck_shiftENS0_13unit_e_metricENS0_13expl_leapfrogEN5boost6random23additive_combine_engineINS7_26linear_congruential_engineIjLj40014ELj0ELj2147483563EEENS9_IjLj40692ELj0ELj2147483399EEEEEE13init_stepsizeERNS_9callbacks6loggerE"
 "_ZN4stan4mcmc8base_hmcIN32model_stan_boeck_shift_namespace22model_stan_boeck_shiftENS0_13unit_e_metricENS0_13expl_leapfrogEN5boost6random23additive_combine_engineINS7_26linear_congruential_engineIjLj40014ELj0ELj2147483563EEENS9_IjLj40692ELj0ELj2147483399EEEEEE19set_stepsize_jitterEd"
 "_ZN4stan4mcmc8base_hmcIN32model_stan_boeck_shift_namespace22model_stan_boeck_shiftENS0_13unit_e_metricENS0_13expl_leapfrogEN5boost6random23additive_combine_engineINS7_26linear_congruential_engineIjLj40014ELj0ELj2147483563EEENS9_IjLj40692ELj0ELj2147483399EEEEEE19write_sampler_stateERNS_9callbacks6writerE"
 "_ZN4stan4mcmc8base_hmcIN32model_stan_boeck_shift_namespace22model_stan_boeck_shiftENS0_13unit_e_metricENS0_13expl_leapfrogEN5boost6random23additive_combine_engineINS7_26linear_congruential_engineIjLj40014ELj0ELj2147483563EEENS9_IjLj40692ELj0ELj2147483399EEEEEE20set_nominal_stepsizeEd"
 "_ZN4stan4mcmc8base_hmcIN32model_stan_boeck_shift_namespace22model_stan_boeck_shiftENS0_13unit_e_metricENS0_13expl_leapfrogEN5boost6random23additive_combine_engineINS7_26linear_congruential_engineIjLj40014ELj0ELj2147483563EEENS9_IjLj40692ELj0ELj2147483399EEEEEE22write_sampler_stepsizeERNS_9callbacks6writerE"
 "_ZN4stan4mcmc8base_hmcIN32model_stan_boeck_shift_namespace22model_stan_boeck_shiftENS0_13unit_e_metricENS0_13expl_leapfrogEN5boost6random23additive_combine_engineINS7_26linear_congruential_engineIjLj40014ELj0ELj2147483563EEENS9_IjLj40692ELj0ELj2147483399EEEEEE23get_sampler_diagnosticsERSt6vectorIdSaIdEE"
 "_ZN4stan4mcmc8base_hmcIN32model_stan_boeck_shift_namespace22model_stan_boeck_shiftENS0_13unit_e_metricENS0_13expl_leapfrogEN5boost6random23additive_combine_engineINS7_26linear_congruential_engineIjLj40014ELj0ELj2147483563EEENS9_IjLj40692ELj0ELj2147483399EEEEEE28get_sampler_diagnostic_namesERSt6vectorISsSaISsEESH_"
 "_ZN4stan4mcmc8base_hmcIN32model_stan_boeck_shift_namespace22model_stan_boeck_shiftENS0_14dense_e_metricENS0_13expl_leapfrogEN5boost6random23additive_combine_engineINS7_26linear_congruential_engineIjLj40014ELj0ELj2147483563EEENS9_IjLj40692ELj0ELj2147483399EEEEEE13init_stepsizeERNS_9callbacks6loggerE"
 "_ZN4stan4mcmc8base_hmcIN32model_stan_boeck_shift_namespace22model_stan_boeck_shiftENS0_14dense_e_metricENS0_13expl_leapfrogEN5boost6random23additive_combine_engineINS7_26linear_congruential_engineIjLj40014ELj0ELj2147483563EEENS9_IjLj40692ELj0ELj2147483399EEEEEE19set_stepsize_jitterEd"
 "_ZN4stan4mcmc8base_hmcIN32model_stan_boeck_shift_namespace22model_stan_boeck_shiftENS0_14dense_e_metricENS0_13expl_leapfrogEN5boost6random23additive_combine_engineINS7_26linear_congruential_engineIjLj40014ELj0ELj2147483563EEENS9_IjLj40692ELj0ELj2147483399EEEEEE19write_sampler_stateERNS_9callbacks6writerE"
 "_ZN4stan4mcmc8base_hmcIN32model_stan_boeck_shift_namespace22model_stan_boeck_shiftENS0_14dense_e_metricENS0_13expl_leapfrogEN5boost6random23additive_combine_engineINS7_26linear_congruential_engineIjLj40014ELj0ELj2147483563EEENS9_IjLj40692ELj0ELj2147483399EEEEEE20set_nominal_stepsizeEd"
 "_ZN4stan4mcmc8base_hmcIN32model_stan_boeck_shift_namespace22model_stan_boeck_shiftENS0_14dense_e_metricENS0_13expl_leapfrogEN5boost6random23additive_combine_engineINS7_26linear_congruential_engineIjLj40014ELj0ELj2147483563EEENS9_IjLj40692ELj0ELj2147483399EEEEEE22write_sampler_stepsizeERNS_9callbacks6writerE"
 "_ZN4stan4mcmc8base_hmcIN32model_stan_boeck_shift_namespace22model_stan_boeck_shiftENS0_14dense_e_metricENS0_13expl_leapfrogEN5boost6random23additive_combine_engineINS7_26linear_congruential_engineIjLj40014ELj0ELj2147483563EEENS9_IjLj40692ELj0ELj2147483399EEEEEE23get_sampler_diagnosticsERSt6vectorIdSaIdEE"
 "_ZN4stan4mcmc8base_hmcIN32model_stan_boeck_shift_namespace22model_stan_boeck_shiftENS0_14dense_e_metricENS0_13expl_leapfrogEN5boost6random23additive_combine_engineINS7_26linear_congruential_engineIjLj40014ELj0ELj2147483563EEENS9_IjLj40692ELj0ELj2147483399EEEEEE28get_sampler_diagnostic_namesERSt6vectorISsSaISsEESH_"
 "_ZN4stan4mcmc8base_hmcIN32model_stan_boeck_shift_namespace22model_stan_boeck_shiftENS0_14dense_e_metricENS0_13expl_leapfrogEN5boost6random23additive_combine_engineINS7_26linear_congruential_engineIjLj40014ELj0ELj2147483563EEENS9_IjLj40692ELj0ELj2147483399EEEEEED2Ev"
 "_ZN4stan4mcmc8base_hmcIN33model_stan_boeck_ext_HH_namespace23model_stan_boeck_ext_HHENS0_13diag_e_metricENS0_13expl_leapfrogEN5boost6random23additive_combine_engineINS7_26linear_congruential_engineIjLj40014ELj0ELj2147483563EEENS9_IjLj40692ELj0ELj2147483399EEEEEE13init_stepsizeERNS_9callbacks6loggerE"
 "_ZN4stan4mcmc8base_hmcIN33model_stan_boeck_ext_HH_namespace23model_stan_boeck_ext_HHENS0_13diag_e_metricENS0_13expl_leapfrogEN5boost6random23additive_combine_engineINS7_26linear_congruential_engineIjLj40014ELj0ELj2147483563EEENS9_IjLj40692ELj0ELj2147483399EEEEEE19set_stepsize_jitterEd"
 "_ZN4stan4mcmc8base_hmcIN33model_stan_boeck_ext_HH_namespace23model_stan_boeck_ext_HHENS0_13diag_e_metricENS0_13expl_leapfrogEN5boost6random23additive_combine_engineINS7_26linear_congruential_engineIjLj40014ELj0ELj2147483563EEENS9_IjLj40692ELj0ELj2147483399EEEEEE19write_sampler_stateERNS_9callbacks6writerE"
 "_ZN4stan4mcmc8base_hmcIN33model_stan_boeck_ext_HH_namespace23model_stan_boeck_ext_HHENS0_13diag_e_metricENS0_13expl_leapfrogEN5boost6random23additive_combine_engineINS7_26linear_congruential_engineIjLj40014ELj0ELj2147483563EEENS9_IjLj40692ELj0ELj2147483399EEEEEE20set_nominal_stepsizeEd"
 "_ZN4stan4mcmc8base_hmcIN33model_stan_boeck_ext_HH_namespace23model_stan_boeck_ext_HHENS0_13diag_e_metricENS0_13expl_leapfrogEN5boost6random23additive_combine_engineINS7_26linear_congruential_engineIjLj40014ELj0ELj2147483563EEENS9_IjLj40692ELj0ELj2147483399EEEEEE22write_sampler_stepsizeERNS_9callbacks6writerE"
 "_ZN4stan4mcmc8base_hmcIN33model_stan_boeck_ext_HH_namespace23model_stan_boeck_ext_HHENS0_13diag_e_metricENS0_13expl_leapfrogEN5boost6random23additive_combine_engineINS7_26linear_congruential_engineIjLj40014ELj0ELj2147483563EEENS9_IjLj40692ELj0ELj2147483399EEEEEE23get_sampler_diagnosticsERSt6vectorIdSaIdEE"
 "_ZN4stan4mcmc8base_hmcIN33model_stan_boeck_ext_HH_namespace23model_stan_boeck_ext_HHENS0_13diag_e_metricENS0_13expl_leapfrogEN5boost6random23additive_combine_engineINS7_26linear_congruential_engineIjLj40014ELj0ELj2147483563EEENS9_IjLj40692ELj0ELj2147483399EEEEEE28get_sampler_diagnostic_namesERSt6vectorISsSaISsEESH_"
 "_ZN4stan4mcmc8base_hmcIN33model_stan_boeck_ext_HH_namespace23model_stan_boeck_ext_HHENS0_13diag_e_metricENS0_13expl_leapfrogEN5boost6random23additive_combine_engineINS7_26linear_congruential_engineIjLj40014ELj0ELj2147483563EEENS9_IjLj40692ELj0ELj2147483399EEEEEED2Ev"
 "_ZN4stan4mcmc8base_hmcIN33model_stan_boeck_ext_HH_namespace23model_stan_boeck_ext_HHENS0_13unit_e_metricENS0_13expl_leapfrogEN5boost6random23additive_combine_engineINS7_26linear_congruential_engineIjLj40014ELj0ELj2147483563EEENS9_IjLj40692ELj0ELj2147483399EEEEEE13init_stepsizeERNS_9callbacks6loggerE"
 "_ZN4stan4mcmc8base_hmcIN33model_stan_boeck_ext_HH_namespace23model_stan_boeck_ext_HHENS0_13unit_e_metricENS0_13expl_leapfrogEN5boost6random23additive_combine_engineINS7_26linear_congruential_engineIjLj40014ELj0ELj2147483563EEENS9_IjLj40692ELj0ELj2147483399EEEEEE19set_stepsize_jitterEd"
 "_ZN4stan4mcmc8base_hmcIN33model_stan_boeck_ext_HH_namespace23model_stan_boeck_ext_HHENS0_13unit_e_metricENS0_13expl_leapfrogEN5boost6random23additive_combine_engineINS7_26linear_congruential_engineIjLj40014ELj0ELj2147483563EEENS9_IjLj40692ELj0ELj2147483399EEEEEE19write_sampler_stateERNS_9callbacks6writerE"
 "_ZN4stan4mcmc8base_hmcIN33model_stan_boeck_ext_HH_namespace23model_stan_boeck_ext_HHENS0_13unit_e_metricENS0_13expl_leapfrogEN5boost6random23additive_combine_engineINS7_26linear_congruential_engineIjLj40014ELj0ELj2147483563EEENS9_IjLj40692ELj0ELj2147483399EEEEEE20set_nominal_stepsizeEd"
 "_ZN4stan4mcmc8base_hmcIN33model_stan_boeck_ext_HH_namespace23model_stan_boeck_ext_HHENS0_13unit_e_metricENS0_13expl_leapfrogEN5boost6random23additive_combine_engineINS7_26linear_congruential_engineIjLj40014ELj0ELj2147483563EEENS9_IjLj40692ELj0ELj2147483399EEEEEE22write_sampler_stepsizeERNS_9callbacks6writerE"
 "_ZN4stan4mcmc8base_hmcIN33model_stan_boeck_ext_HH_namespace23model_stan_boeck_ext_HHENS0_13unit_e_metricENS0_13expl_leapfrogEN5boost6random23additive_combine_engineINS7_26linear_congruential_engineIjLj40014ELj0ELj2147483563EEENS9_IjLj40692ELj0ELj2147483399EEEEEE23get_sampler_diagnosticsERSt6vectorIdSaIdEE"
 "_ZN4stan4mcmc8base_hmcIN33model_stan_boeck_ext_HH_namespace23model_stan_boeck_ext_HHENS0_13unit_e_metricENS0_13expl_leapfrogEN5boost6random23additive_combine_engineINS7_26linear_congruential_engineIjLj40014ELj0ELj2147483563EEENS9_IjLj40692ELj0ELj2147483399EEEEEE28get_sampler_diagnostic_namesERSt6vectorISsSaISsEESH_"
 "_ZN4stan4mcmc8base_hmcIN33model_stan_boeck_ext_HH_namespace23model_stan_boeck_ext_HHENS0_14dense_e_metricENS0_13expl_leapfrogEN5boost6random23additive_combine_engineINS7_26linear_congruential_engineIjLj40014ELj0ELj2147483563EEENS9_IjLj40692ELj0ELj2147483399EEEEEE13init_stepsizeERNS_9callbacks6loggerE"
 "_ZN4stan4mcmc8base_hmcIN33model_stan_boeck_ext_HH_namespace23model_stan_boeck_ext_HHENS0_14dense_e_metricENS0_13expl_leapfrogEN5boost6random23additive_combine_engineINS7_26linear_congruential_engineIjLj40014ELj0ELj2147483563EEENS9_IjLj40692ELj0ELj2147483399EEEEEE19set_stepsize_jitterEd"
 "_ZN4stan4mcmc8base_hmcIN33model_stan_boeck_ext_HH_namespace23model_stan_boeck_ext_HHENS0_14dense_e_metricENS0_13expl_leapfrogEN5boost6random23additive_combine_engineINS7_26linear_congruential_engineIjLj40014ELj0ELj2147483563EEENS9_IjLj40692ELj0ELj2147483399EEEEEE19write_sampler_stateERNS_9callbacks6writerE"
 "_ZN4stan4mcmc8base_hmcIN33model_stan_boeck_ext_HH_namespace23model_stan_boeck_ext_HHENS0_14dense_e_metricENS0_13expl_leapfrogEN5boost6random23additive_combine_engineINS7_26linear_congruential_engineIjLj40014ELj0ELj2147483563EEENS9_IjLj40692ELj0ELj2147483399EEEEEE20set_nominal_stepsizeEd"
 "_ZN4stan4mcmc8base_hmcIN33model_stan_boeck_ext_HH_namespace23model_stan_boeck_ext_HHENS0_14dense_e_metricENS0_13expl_leapfrogEN5boost6random23additive_combine_engineINS7_26linear_congruential_engineIjLj40014ELj0ELj2147483563EEENS9_IjLj40692ELj0ELj2147483399EEEEEE22write_sampler_stepsizeERNS_9callbacks6writerE"
 "_ZN4stan4mcmc8base_hmcIN33model_stan_boeck_ext_HH_namespace23model_stan_boeck_ext_HHENS0_14dense_e_metricENS0_13expl_leapfrogEN5boost6random23additive_combine_engineINS7_26linear_congruential_engineIjLj40014ELj0ELj2147483563EEENS9_IjLj40692ELj0ELj2147483399EEEEEE23get_sampler_diagnosticsERSt6vectorIdSaIdEE"
 "_ZN4stan4mcmc8base_hmcIN33model_stan_boeck_ext_HH_namespace23model_stan_boeck_ext_HHENS0_14dense_e_metricENS0_13expl_leapfrogEN5boost6random23additive_combine_engineINS7_26linear_congruential_engineIjLj40014ELj0ELj2147483563EEENS9_IjLj40692ELj0ELj2147483399EEEEEE28get_sampler_diagnostic_namesERSt6vectorISsSaISsEESH_"
 "_ZN4stan4mcmc8base_hmcIN33model_stan_boeck_ext_HH_namespace23model_stan_boeck_ext_HHENS0_14dense_e_metricENS0_13expl_leapfrogEN5boost6random23additive_combine_engineINS7_26linear_congruential_engineIjLj40014ELj0ELj2147483563EEENS9_IjLj40692ELj0ELj2147483399EEEEEED2Ev"
 "_ZN4stan4mcmc8ps_point10get_paramsERSt6vectorIdSaIdEE"
 "_ZN4stan4mcmc8ps_point12write_metricERNS_9callbacks6writerE"
 "_ZN4stan4mcmc8ps_point15get_param_namesERSt6vectorISsSaISsEES5_"
 "_ZN4stan4mcmc8ps_pointaSERKS1_"
 "_ZN4stan4mcmc8ps_pointC1ERKS1_"
 "_ZN4stan4mcmc8ps_pointC2Ei"
 "_ZN4stan4mcmc8ps_pointD1Ev"
 "_ZN4stan4mcmc8ps_pointD2Ev"
 "_ZN4stan4mcmc9base_mcmc18get_sampler_paramsERSt6vectorIdSaIdEE"
 "_ZN4stan4mcmc9base_mcmc19write_sampler_stateERNS_9callbacks6writerE"
 "_ZN4stan4mcmc9base_mcmc23get_sampler_diagnosticsERSt6vectorIdSaIdEE"
 "_ZN4stan4mcmc9base_mcmc23get_sampler_param_namesERSt6vectorISsSaISsEE"
 "_ZN4stan4mcmc9base_mcmc28get_sampler_diagnostic_namesERSt6vectorISsSaISsEES5_"
 "_ZN4stan4mcmc9base_nutsIN24model_stan_pcm_namespace14model_stan_pcmENS0_13diag_e_metricENS0_13expl_leapfrogEN5boost6random23additive_combine_engineINS7_26linear_congruential_engineIjLj40014ELj0ELj2147483563EEENS9_IjLj40692ELj0ELj2147483399EEEEEE10build_treeEiRNS0_8ps_pointERN5Eigen6MatrixIdLin1ELi1ELi0ELin1ELi1EEESJ_SJ_ddRiRdSL_RNS_9callbacks6loggerE"
 "_ZN4stan4mcmc9base_nutsIN24model_stan_pcm_namespace14model_stan_pcmENS0_13diag_e_metricENS0_13expl_leapfrogEN5boost6random23additive_combine_engineINS7_26linear_congruential_engineIjLj40014ELj0ELj2147483563EEENS9_IjLj40692ELj0ELj2147483399EEEEEE10transitionERNS0_6sampleERNS_9callbacks6loggerE"
 "_ZN4stan4mcmc9base_nutsIN24model_stan_pcm_namespace14model_stan_pcmENS0_13diag_e_metricENS0_13expl_leapfrogEN5boost6random23additive_combine_engineINS7_26linear_congruential_engineIjLj40014ELj0ELj2147483563EEENS9_IjLj40692ELj0ELj2147483399EEEEEE17compute_criterionERN5Eigen6MatrixIdLin1ELi1ELi0ELin1ELi1EEESH_SH_"
 "_ZN4stan4mcmc9base_nutsIN24model_stan_pcm_namespace14model_stan_pcmENS0_13diag_e_metricENS0_13expl_leapfrogEN5boost6random23additive_combine_engineINS7_26linear_congruential_engineIjLj40014ELj0ELj2147483563EEENS9_IjLj40692ELj0ELj2147483399EEEEEE18get_sampler_paramsERSt6vectorIdSaIdEE"
 "_ZN4stan4mcmc9base_nutsIN24model_stan_pcm_namespace14model_stan_pcmENS0_13diag_e_metricENS0_13expl_leapfrogEN5boost6random23additive_combine_engineINS7_26linear_congruential_engineIjLj40014ELj0ELj2147483563EEENS9_IjLj40692ELj0ELj2147483399EEEEEE23get_sampler_param_namesERSt6vectorISsSaISsEE"
 "_ZN4stan4mcmc9base_nutsIN24model_stan_pcm_namespace14model_stan_pcmENS0_13diag_e_metricENS0_13expl_leapfrogEN5boost6random23additive_combine_engineINS7_26linear_congruential_engineIjLj40014ELj0ELj2147483563EEENS9_IjLj40692ELj0ELj2147483399EEEEEED0Ev"
 "_ZN4stan4mcmc9base_nutsIN24model_stan_pcm_namespace14model_stan_pcmENS0_13diag_e_metricENS0_13expl_leapfrogEN5boost6random23additive_combine_engineINS7_26linear_congruential_engineIjLj40014ELj0ELj2147483563EEENS9_IjLj40692ELj0ELj2147483399EEEEEED1Ev"
 "_ZN4stan4mcmc9base_nutsIN24model_stan_pcm_namespace14model_stan_pcmENS0_13unit_e_metricENS0_13expl_leapfrogEN5boost6random23additive_combine_engineINS7_26linear_congruential_engineIjLj40014ELj0ELj2147483563EEENS9_IjLj40692ELj0ELj2147483399EEEEEE10build_treeEiRNS0_8ps_pointERN5Eigen6MatrixIdLin1ELi1ELi0ELin1ELi1EEESJ_SJ_ddRiRdSL_RNS_9callbacks6loggerE"
 "_ZN4stan4mcmc9base_nutsIN24model_stan_pcm_namespace14model_stan_pcmENS0_13unit_e_metricENS0_13expl_leapfrogEN5boost6random23additive_combine_engineINS7_26linear_congruential_engineIjLj40014ELj0ELj2147483563EEENS9_IjLj40692ELj0ELj2147483399EEEEEE10transitionERNS0_6sampleERNS_9callbacks6loggerE"
 "_ZN4stan4mcmc9base_nutsIN24model_stan_pcm_namespace14model_stan_pcmENS0_13unit_e_metricENS0_13expl_leapfrogEN5boost6random23additive_combine_engineINS7_26linear_congruential_engineIjLj40014ELj0ELj2147483563EEENS9_IjLj40692ELj0ELj2147483399EEEEEE17compute_criterionERN5Eigen6MatrixIdLin1ELi1ELi0ELin1ELi1EEESH_SH_"
 "_ZN4stan4mcmc9base_nutsIN24model_stan_pcm_namespace14model_stan_pcmENS0_13unit_e_metricENS0_13expl_leapfrogEN5boost6random23additive_combine_engineINS7_26linear_congruential_engineIjLj40014ELj0ELj2147483563EEENS9_IjLj40692ELj0ELj2147483399EEEEEE18get_sampler_paramsERSt6vectorIdSaIdEE"
 "_ZN4stan4mcmc9base_nutsIN24model_stan_pcm_namespace14model_stan_pcmENS0_13unit_e_metricENS0_13expl_leapfrogEN5boost6random23additive_combine_engineINS7_26linear_congruential_engineIjLj40014ELj0ELj2147483563EEENS9_IjLj40692ELj0ELj2147483399EEEEEE23get_sampler_param_namesERSt6vectorISsSaISsEE"
 "_ZN4stan4mcmc9base_nutsIN24model_stan_pcm_namespace14model_stan_pcmENS0_13unit_e_metricENS0_13expl_leapfrogEN5boost6random23additive_combine_engineINS7_26linear_congruential_engineIjLj40014ELj0ELj2147483563EEENS9_IjLj40692ELj0ELj2147483399EEEEEED0Ev"
 "_ZN4stan4mcmc9base_nutsIN24model_stan_pcm_namespace14model_stan_pcmENS0_13unit_e_metricENS0_13expl_leapfrogEN5boost6random23additive_combine_engineINS7_26linear_congruential_engineIjLj40014ELj0ELj2147483563EEENS9_IjLj40692ELj0ELj2147483399EEEEEED1Ev"
 "_ZN4stan4mcmc9base_nutsIN24model_stan_pcm_namespace14model_stan_pcmENS0_14dense_e_metricENS0_13expl_leapfrogEN5boost6random23additive_combine_engineINS7_26linear_congruential_engineIjLj40014ELj0ELj2147483563EEENS9_IjLj40692ELj0ELj2147483399EEEEEE10build_treeEiRNS0_8ps_pointERN5Eigen6MatrixIdLin1ELi1ELi0ELin1ELi1EEESJ_SJ_ddRiRdSL_RNS_9callbacks6loggerE"
 "_ZN4stan4mcmc9base_nutsIN24model_stan_pcm_namespace14model_stan_pcmENS0_14dense_e_metricENS0_13expl_leapfrogEN5boost6random23additive_combine_engineINS7_26linear_congruential_engineIjLj40014ELj0ELj2147483563EEENS9_IjLj40692ELj0ELj2147483399EEEEEE10transitionERNS0_6sampleERNS_9callbacks6loggerE"
 "_ZN4stan4mcmc9base_nutsIN24model_stan_pcm_namespace14model_stan_pcmENS0_14dense_e_metricENS0_13expl_leapfrogEN5boost6random23additive_combine_engineINS7_26linear_congruential_engineIjLj40014ELj0ELj2147483563EEENS9_IjLj40692ELj0ELj2147483399EEEEEE17compute_criterionERN5Eigen6MatrixIdLin1ELi1ELi0ELin1ELi1EEESH_SH_"
 "_ZN4stan4mcmc9base_nutsIN24model_stan_pcm_namespace14model_stan_pcmENS0_14dense_e_metricENS0_13expl_leapfrogEN5boost6random23additive_combine_engineINS7_26linear_congruential_engineIjLj40014ELj0ELj2147483563EEENS9_IjLj40692ELj0ELj2147483399EEEEEE18get_sampler_paramsERSt6vectorIdSaIdEE"
 "_ZN4stan4mcmc9base_nutsIN24model_stan_pcm_namespace14model_stan_pcmENS0_14dense_e_metricENS0_13expl_leapfrogEN5boost6random23additive_combine_engineINS7_26linear_congruential_engineIjLj40014ELj0ELj2147483563EEENS9_IjLj40692ELj0ELj2147483399EEEEEE23get_sampler_param_namesERSt6vectorISsSaISsEE"
 "_ZN4stan4mcmc9base_nutsIN24model_stan_pcm_namespace14model_stan_pcmENS0_14dense_e_metricENS0_13expl_leapfrogEN5boost6random23additive_combine_engineINS7_26linear_congruential_engineIjLj40014ELj0ELj2147483563EEENS9_IjLj40692ELj0ELj2147483399EEEEEED0Ev"
 "_ZN4stan4mcmc9base_nutsIN24model_stan_pcm_namespace14model_stan_pcmENS0_14dense_e_metricENS0_13expl_leapfrogEN5boost6random23additive_combine_engineINS7_26linear_congruential_engineIjLj40014ELj0ELj2147483563EEENS9_IjLj40692ELj0ELj2147483399EEEEEED1Ev"
 "_ZN4stan4mcmc9base_nutsIN26model_stan_steps_namespace16model_stan_stepsENS0_13diag_e_metricENS0_13expl_leapfrogEN5boost6random23additive_combine_engineINS7_26linear_congruential_engineIjLj40014ELj0ELj2147483563EEENS9_IjLj40692ELj0ELj2147483399EEEEEE10build_treeEiRNS0_8ps_pointERN5Eigen6MatrixIdLin1ELi1ELi0ELin1ELi1EEESJ_SJ_ddRiRdSL_RNS_9callbacks6loggerE"
 "_ZN4stan4mcmc9base_nutsIN26model_stan_steps_namespace16model_stan_stepsENS0_13diag_e_metricENS0_13expl_leapfrogEN5boost6random23additive_combine_engineINS7_26linear_congruential_engineIjLj40014ELj0ELj2147483563EEENS9_IjLj40692ELj0ELj2147483399EEEEEE10transitionERNS0_6sampleERNS_9callbacks6loggerE"
 "_ZN4stan4mcmc9base_nutsIN26model_stan_steps_namespace16model_stan_stepsENS0_13diag_e_metricENS0_13expl_leapfrogEN5boost6random23additive_combine_engineINS7_26linear_congruential_engineIjLj40014ELj0ELj2147483563EEENS9_IjLj40692ELj0ELj2147483399EEEEEE17compute_criterionERN5Eigen6MatrixIdLin1ELi1ELi0ELin1ELi1EEESH_SH_"
 "_ZN4stan4mcmc9base_nutsIN26model_stan_steps_namespace16model_stan_stepsENS0_13diag_e_metricENS0_13expl_leapfrogEN5boost6random23additive_combine_engineINS7_26linear_congruential_engineIjLj40014ELj0ELj2147483563EEENS9_IjLj40692ELj0ELj2147483399EEEEEE18get_sampler_paramsERSt6vectorIdSaIdEE"
 "_ZN4stan4mcmc9base_nutsIN26model_stan_steps_namespace16model_stan_stepsENS0_13diag_e_metricENS0_13expl_leapfrogEN5boost6random23additive_combine_engineINS7_26linear_congruential_engineIjLj40014ELj0ELj2147483563EEENS9_IjLj40692ELj0ELj2147483399EEEEEE23get_sampler_param_namesERSt6vectorISsSaISsEE"
 "_ZN4stan4mcmc9base_nutsIN26model_stan_steps_namespace16model_stan_stepsENS0_13diag_e_metricENS0_13expl_leapfrogEN5boost6random23additive_combine_engineINS7_26linear_congruential_engineIjLj40014ELj0ELj2147483563EEENS9_IjLj40692ELj0ELj2147483399EEEEEED0Ev"
 "_ZN4stan4mcmc9base_nutsIN26model_stan_steps_namespace16model_stan_stepsENS0_13diag_e_metricENS0_13expl_leapfrogEN5boost6random23additive_combine_engineINS7_26linear_congruential_engineIjLj40014ELj0ELj2147483563EEENS9_IjLj40692ELj0ELj2147483399EEEEEED1Ev"
 "_ZN4stan4mcmc9base_nutsIN26model_stan_steps_namespace16model_stan_stepsENS0_13unit_e_metricENS0_13expl_leapfrogEN5boost6random23additive_combine_engineINS7_26linear_congruential_engineIjLj40014ELj0ELj2147483563EEENS9_IjLj40692ELj0ELj2147483399EEEEEE10build_treeEiRNS0_8ps_pointERN5Eigen6MatrixIdLin1ELi1ELi0ELin1ELi1EEESJ_SJ_ddRiRdSL_RNS_9callbacks6loggerE"
 "_ZN4stan4mcmc9base_nutsIN26model_stan_steps_namespace16model_stan_stepsENS0_13unit_e_metricENS0_13expl_leapfrogEN5boost6random23additive_combine_engineINS7_26linear_congruential_engineIjLj40014ELj0ELj2147483563EEENS9_IjLj40692ELj0ELj2147483399EEEEEE10transitionERNS0_6sampleERNS_9callbacks6loggerE"
 "_ZN4stan4mcmc9base_nutsIN26model_stan_steps_namespace16model_stan_stepsENS0_13unit_e_metricENS0_13expl_leapfrogEN5boost6random23additive_combine_engineINS7_26linear_congruential_engineIjLj40014ELj0ELj2147483563EEENS9_IjLj40692ELj0ELj2147483399EEEEEE17compute_criterionERN5Eigen6MatrixIdLin1ELi1ELi0ELin1ELi1EEESH_SH_"
 "_ZN4stan4mcmc9base_nutsIN26model_stan_steps_namespace16model_stan_stepsENS0_13unit_e_metricENS0_13expl_leapfrogEN5boost6random23additive_combine_engineINS7_26linear_congruential_engineIjLj40014ELj0ELj2147483563EEENS9_IjLj40692ELj0ELj2147483399EEEEEE18get_sampler_paramsERSt6vectorIdSaIdEE"
 "_ZN4stan4mcmc9base_nutsIN26model_stan_steps_namespace16model_stan_stepsENS0_13unit_e_metricENS0_13expl_leapfrogEN5boost6random23additive_combine_engineINS7_26linear_congruential_engineIjLj40014ELj0ELj2147483563EEENS9_IjLj40692ELj0ELj2147483399EEEEEE23get_sampler_param_namesERSt6vectorISsSaISsEE"
 "_ZN4stan4mcmc9base_nutsIN26model_stan_steps_namespace16model_stan_stepsENS0_13unit_e_metricENS0_13expl_leapfrogEN5boost6random23additive_combine_engineINS7_26linear_congruential_engineIjLj40014ELj0ELj2147483563EEENS9_IjLj40692ELj0ELj2147483399EEEEEED0Ev"
 "_ZN4stan4mcmc9base_nutsIN26model_stan_steps_namespace16model_stan_stepsENS0_13unit_e_metricENS0_13expl_leapfrogEN5boost6random23additive_combine_engineINS7_26linear_congruential_engineIjLj40014ELj0ELj2147483563EEENS9_IjLj40692ELj0ELj2147483399EEEEEED1Ev"
 "_ZN4stan4mcmc9base_nutsIN26model_stan_steps_namespace16model_stan_stepsENS0_14dense_e_metricENS0_13expl_leapfrogEN5boost6random23additive_combine_engineINS7_26linear_congruential_engineIjLj40014ELj0ELj2147483563EEENS9_IjLj40692ELj0ELj2147483399EEEEEE10build_treeEiRNS0_8ps_pointERN5Eigen6MatrixIdLin1ELi1ELi0ELin1ELi1EEESJ_SJ_ddRiRdSL_RNS_9callbacks6loggerE"
 "_ZN4stan4mcmc9base_nutsIN26model_stan_steps_namespace16model_stan_stepsENS0_14dense_e_metricENS0_13expl_leapfrogEN5boost6random23additive_combine_engineINS7_26linear_congruential_engineIjLj40014ELj0ELj2147483563EEENS9_IjLj40692ELj0ELj2147483399EEEEEE10transitionERNS0_6sampleERNS_9callbacks6loggerE"
 "_ZN4stan4mcmc9base_nutsIN26model_stan_steps_namespace16model_stan_stepsENS0_14dense_e_metricENS0_13expl_leapfrogEN5boost6random23additive_combine_engineINS7_26linear_congruential_engineIjLj40014ELj0ELj2147483563EEENS9_IjLj40692ELj0ELj2147483399EEEEEE17compute_criterionERN5Eigen6MatrixIdLin1ELi1ELi0ELin1ELi1EEESH_SH_"
 "_ZN4stan4mcmc9base_nutsIN26model_stan_steps_namespace16model_stan_stepsENS0_14dense_e_metricENS0_13expl_leapfrogEN5boost6random23additive_combine_engineINS7_26linear_congruential_engineIjLj40014ELj0ELj2147483563EEENS9_IjLj40692ELj0ELj2147483399EEEEEE18get_sampler_paramsERSt6vectorIdSaIdEE"
 "_ZN4stan4mcmc9base_nutsIN26model_stan_steps_namespace16model_stan_stepsENS0_14dense_e_metricENS0_13expl_leapfrogEN5boost6random23additive_combine_engineINS7_26linear_congruential_engineIjLj40014ELj0ELj2147483563EEENS9_IjLj40692ELj0ELj2147483399EEEEEE23get_sampler_param_namesERSt6vectorISsSaISsEE"
 "_ZN4stan4mcmc9base_nutsIN26model_stan_steps_namespace16model_stan_stepsENS0_14dense_e_metricENS0_13expl_leapfrogEN5boost6random23additive_combine_engineINS7_26linear_congruential_engineIjLj40014ELj0ELj2147483563EEENS9_IjLj40692ELj0ELj2147483399EEEEEED0Ev"
 "_ZN4stan4mcmc9base_nutsIN26model_stan_steps_namespace16model_stan_stepsENS0_14dense_e_metricENS0_13expl_leapfrogEN5boost6random23additive_combine_engineINS7_26linear_congruential_engineIjLj40014ELj0ELj2147483563EEENS9_IjLj40692ELj0ELj2147483399EEEEEED1Ev"
 "_ZN4stan4mcmc9base_nutsIN30model_stan_boeck_ext_namespace20model_stan_boeck_extENS0_13diag_e_metricENS0_13expl_leapfrogEN5boost6random23additive_combine_engineINS7_26linear_congruential_engineIjLj40014ELj0ELj2147483563EEENS9_IjLj40692ELj0ELj2147483399EEEEEE10build_treeEiRNS0_8ps_pointERN5Eigen6MatrixIdLin1ELi1ELi0ELin1ELi1EEESJ_SJ_ddRiRdSL_RNS_9callbacks6loggerE"
 "_ZN4stan4mcmc9base_nutsIN30model_stan_boeck_ext_namespace20model_stan_boeck_extENS0_13diag_e_metricENS0_13expl_leapfrogEN5boost6random23additive_combine_engineINS7_26linear_congruential_engineIjLj40014ELj0ELj2147483563EEENS9_IjLj40692ELj0ELj2147483399EEEEEE10transitionERNS0_6sampleERNS_9callbacks6loggerE"
 "_ZN4stan4mcmc9base_nutsIN30model_stan_boeck_ext_namespace20model_stan_boeck_extENS0_13diag_e_metricENS0_13expl_leapfrogEN5boost6random23additive_combine_engineINS7_26linear_congruential_engineIjLj40014ELj0ELj2147483563EEENS9_IjLj40692ELj0ELj2147483399EEEEEE17compute_criterionERN5Eigen6MatrixIdLin1ELi1ELi0ELin1ELi1EEESH_SH_"
 "_ZN4stan4mcmc9base_nutsIN30model_stan_boeck_ext_namespace20model_stan_boeck_extENS0_13diag_e_metricENS0_13expl_leapfrogEN5boost6random23additive_combine_engineINS7_26linear_congruential_engineIjLj40014ELj0ELj2147483563EEENS9_IjLj40692ELj0ELj2147483399EEEEEE18get_sampler_paramsERSt6vectorIdSaIdEE"
 "_ZN4stan4mcmc9base_nutsIN30model_stan_boeck_ext_namespace20model_stan_boeck_extENS0_13diag_e_metricENS0_13expl_leapfrogEN5boost6random23additive_combine_engineINS7_26linear_congruential_engineIjLj40014ELj0ELj2147483563EEENS9_IjLj40692ELj0ELj2147483399EEEEEE23get_sampler_param_namesERSt6vectorISsSaISsEE"
 "_ZN4stan4mcmc9base_nutsIN30model_stan_boeck_ext_namespace20model_stan_boeck_extENS0_13diag_e_metricENS0_13expl_leapfrogEN5boost6random23additive_combine_engineINS7_26linear_congruential_engineIjLj40014ELj0ELj2147483563EEENS9_IjLj40692ELj0ELj2147483399EEEEEED0Ev"
 "_ZN4stan4mcmc9base_nutsIN30model_stan_boeck_ext_namespace20model_stan_boeck_extENS0_13diag_e_metricENS0_13expl_leapfrogEN5boost6random23additive_combine_engineINS7_26linear_congruential_engineIjLj40014ELj0ELj2147483563EEENS9_IjLj40692ELj0ELj2147483399EEEEEED1Ev"
 "_ZN4stan4mcmc9base_nutsIN30model_stan_boeck_ext_namespace20model_stan_boeck_extENS0_13unit_e_metricENS0_13expl_leapfrogEN5boost6random23additive_combine_engineINS7_26linear_congruential_engineIjLj40014ELj0ELj2147483563EEENS9_IjLj40692ELj0ELj2147483399EEEEEE10build_treeEiRNS0_8ps_pointERN5Eigen6MatrixIdLin1ELi1ELi0ELin1ELi1EEESJ_SJ_ddRiRdSL_RNS_9callbacks6loggerE"
 "_ZN4stan4mcmc9base_nutsIN30model_stan_boeck_ext_namespace20model_stan_boeck_extENS0_13unit_e_metricENS0_13expl_leapfrogEN5boost6random23additive_combine_engineINS7_26linear_congruential_engineIjLj40014ELj0ELj2147483563EEENS9_IjLj40692ELj0ELj2147483399EEEEEE10transitionERNS0_6sampleERNS_9callbacks6loggerE"
 "_ZN4stan4mcmc9base_nutsIN30model_stan_boeck_ext_namespace20model_stan_boeck_extENS0_13unit_e_metricENS0_13expl_leapfrogEN5boost6random23additive_combine_engineINS7_26linear_congruential_engineIjLj40014ELj0ELj2147483563EEENS9_IjLj40692ELj0ELj2147483399EEEEEE17compute_criterionERN5Eigen6MatrixIdLin1ELi1ELi0ELin1ELi1EEESH_SH_"
 "_ZN4stan4mcmc9base_nutsIN30model_stan_boeck_ext_namespace20model_stan_boeck_extENS0_13unit_e_metricENS0_13expl_leapfrogEN5boost6random23additive_combine_engineINS7_26linear_congruential_engineIjLj40014ELj0ELj2147483563EEENS9_IjLj40692ELj0ELj2147483399EEEEEE18get_sampler_paramsERSt6vectorIdSaIdEE"
 "_ZN4stan4mcmc9base_nutsIN30model_stan_boeck_ext_namespace20model_stan_boeck_extENS0_13unit_e_metricENS0_13expl_leapfrogEN5boost6random23additive_combine_engineINS7_26linear_congruential_engineIjLj40014ELj0ELj2147483563EEENS9_IjLj40692ELj0ELj2147483399EEEEEE23get_sampler_param_namesERSt6vectorISsSaISsEE"
 "_ZN4stan4mcmc9base_nutsIN30model_stan_boeck_ext_namespace20model_stan_boeck_extENS0_13unit_e_metricENS0_13expl_leapfrogEN5boost6random23additive_combine_engineINS7_26linear_congruential_engineIjLj40014ELj0ELj2147483563EEENS9_IjLj40692ELj0ELj2147483399EEEEEED0Ev"
 "_ZN4stan4mcmc9base_nutsIN30model_stan_boeck_ext_namespace20model_stan_boeck_extENS0_13unit_e_metricENS0_13expl_leapfrogEN5boost6random23additive_combine_engineINS7_26linear_congruential_engineIjLj40014ELj0ELj2147483563EEENS9_IjLj40692ELj0ELj2147483399EEEEEED1Ev"
 "_ZN4stan4mcmc9base_nutsIN30model_stan_boeck_ext_namespace20model_stan_boeck_extENS0_14dense_e_metricENS0_13expl_leapfrogEN5boost6random23additive_combine_engineINS7_26linear_congruential_engineIjLj40014ELj0ELj2147483563EEENS9_IjLj40692ELj0ELj2147483399EEEEEE10build_treeEiRNS0_8ps_pointERN5Eigen6MatrixIdLin1ELi1ELi0ELin1ELi1EEESJ_SJ_ddRiRdSL_RNS_9callbacks6loggerE"
 "_ZN4stan4mcmc9base_nutsIN30model_stan_boeck_ext_namespace20model_stan_boeck_extENS0_14dense_e_metricENS0_13expl_leapfrogEN5boost6random23additive_combine_engineINS7_26linear_congruential_engineIjLj40014ELj0ELj2147483563EEENS9_IjLj40692ELj0ELj2147483399EEEEEE10transitionERNS0_6sampleERNS_9callbacks6loggerE"
 "_ZN4stan4mcmc9base_nutsIN30model_stan_boeck_ext_namespace20model_stan_boeck_extENS0_14dense_e_metricENS0_13expl_leapfrogEN5boost6random23additive_combine_engineINS7_26linear_congruential_engineIjLj40014ELj0ELj2147483563EEENS9_IjLj40692ELj0ELj2147483399EEEEEE17compute_criterionERN5Eigen6MatrixIdLin1ELi1ELi0ELin1ELi1EEESH_SH_"
 "_ZN4stan4mcmc9base_nutsIN30model_stan_boeck_ext_namespace20model_stan_boeck_extENS0_14dense_e_metricENS0_13expl_leapfrogEN5boost6random23additive_combine_engineINS7_26linear_congruential_engineIjLj40014ELj0ELj2147483563EEENS9_IjLj40692ELj0ELj2147483399EEEEEE18get_sampler_paramsERSt6vectorIdSaIdEE"
 "_ZN4stan4mcmc9base_nutsIN30model_stan_boeck_ext_namespace20model_stan_boeck_extENS0_14dense_e_metricENS0_13expl_leapfrogEN5boost6random23additive_combine_engineINS7_26linear_congruential_engineIjLj40014ELj0ELj2147483563EEENS9_IjLj40692ELj0ELj2147483399EEEEEE23get_sampler_param_namesERSt6vectorISsSaISsEE"
 "_ZN4stan4mcmc9base_nutsIN30model_stan_boeck_ext_namespace20model_stan_boeck_extENS0_14dense_e_metricENS0_13expl_leapfrogEN5boost6random23additive_combine_engineINS7_26linear_congruential_engineIjLj40014ELj0ELj2147483563EEENS9_IjLj40692ELj0ELj2147483399EEEEEED0Ev"
 "_ZN4stan4mcmc9base_nutsIN30model_stan_boeck_ext_namespace20model_stan_boeck_extENS0_14dense_e_metricENS0_13expl_leapfrogEN5boost6random23additive_combine_engineINS7_26linear_congruential_engineIjLj40014ELj0ELj2147483563EEENS9_IjLj40692ELj0ELj2147483399EEEEEED1Ev"
 "_ZN4stan4mcmc9base_nutsIN31model_stan_boeck_2012_namespace21model_stan_boeck_2012ENS0_13diag_e_metricENS0_13expl_leapfrogEN5boost6random23additive_combine_engineINS7_26linear_congruential_engineIjLj40014ELj0ELj2147483563EEENS9_IjLj40692ELj0ELj2147483399EEEEEE10build_treeEiRNS0_8ps_pointERN5Eigen6MatrixIdLin1ELi1ELi0ELin1ELi1EEESJ_SJ_ddRiRdSL_RNS_9callbacks6loggerE"
 "_ZN4stan4mcmc9base_nutsIN31model_stan_boeck_2012_namespace21model_stan_boeck_2012ENS0_13diag_e_metricENS0_13expl_leapfrogEN5boost6random23additive_combine_engineINS7_26linear_congruential_engineIjLj40014ELj0ELj2147483563EEENS9_IjLj40692ELj0ELj2147483399EEEEEE10transitionERNS0_6sampleERNS_9callbacks6loggerE"
 "_ZN4stan4mcmc9base_nutsIN31model_stan_boeck_2012_namespace21model_stan_boeck_2012ENS0_13diag_e_metricENS0_13expl_leapfrogEN5boost6random23additive_combine_engineINS7_26linear_congruential_engineIjLj40014ELj0ELj2147483563EEENS9_IjLj40692ELj0ELj2147483399EEEEEE17compute_criterionERN5Eigen6MatrixIdLin1ELi1ELi0ELin1ELi1EEESH_SH_"
 "_ZN4stan4mcmc9base_nutsIN31model_stan_boeck_2012_namespace21model_stan_boeck_2012ENS0_13diag_e_metricENS0_13expl_leapfrogEN5boost6random23additive_combine_engineINS7_26linear_congruential_engineIjLj40014ELj0ELj2147483563EEENS9_IjLj40692ELj0ELj2147483399EEEEEE18get_sampler_paramsERSt6vectorIdSaIdEE"
 "_ZN4stan4mcmc9base_nutsIN31model_stan_boeck_2012_namespace21model_stan_boeck_2012ENS0_13diag_e_metricENS0_13expl_leapfrogEN5boost6random23additive_combine_engineINS7_26linear_congruential_engineIjLj40014ELj0ELj2147483563EEENS9_IjLj40692ELj0ELj2147483399EEEEEE23get_sampler_param_namesERSt6vectorISsSaISsEE"
 "_ZN4stan4mcmc9base_nutsIN31model_stan_boeck_2012_namespace21model_stan_boeck_2012ENS0_13diag_e_metricENS0_13expl_leapfrogEN5boost6random23additive_combine_engineINS7_26linear_congruential_engineIjLj40014ELj0ELj2147483563EEENS9_IjLj40692ELj0ELj2147483399EEEEEED0Ev"
 "_ZN4stan4mcmc9base_nutsIN31model_stan_boeck_2012_namespace21model_stan_boeck_2012ENS0_13diag_e_metricENS0_13expl_leapfrogEN5boost6random23additive_combine_engineINS7_26linear_congruential_engineIjLj40014ELj0ELj2147483563EEENS9_IjLj40692ELj0ELj2147483399EEEEEED1Ev"
 "_ZN4stan4mcmc9base_nutsIN31model_stan_boeck_2012_namespace21model_stan_boeck_2012ENS0_13unit_e_metricENS0_13expl_leapfrogEN5boost6random23additive_combine_engineINS7_26linear_congruential_engineIjLj40014ELj0ELj2147483563EEENS9_IjLj40692ELj0ELj2147483399EEEEEE10build_treeEiRNS0_8ps_pointERN5Eigen6MatrixIdLin1ELi1ELi0ELin1ELi1EEESJ_SJ_ddRiRdSL_RNS_9callbacks6loggerE"
 "_ZN4stan4mcmc9base_nutsIN31model_stan_boeck_2012_namespace21model_stan_boeck_2012ENS0_13unit_e_metricENS0_13expl_leapfrogEN5boost6random23additive_combine_engineINS7_26linear_congruential_engineIjLj40014ELj0ELj2147483563EEENS9_IjLj40692ELj0ELj2147483399EEEEEE10transitionERNS0_6sampleERNS_9callbacks6loggerE"
 "_ZN4stan4mcmc9base_nutsIN31model_stan_boeck_2012_namespace21model_stan_boeck_2012ENS0_13unit_e_metricENS0_13expl_leapfrogEN5boost6random23additive_combine_engineINS7_26linear_congruential_engineIjLj40014ELj0ELj2147483563EEENS9_IjLj40692ELj0ELj2147483399EEEEEE17compute_criterionERN5Eigen6MatrixIdLin1ELi1ELi0ELin1ELi1EEESH_SH_"
 "_ZN4stan4mcmc9base_nutsIN31model_stan_boeck_2012_namespace21model_stan_boeck_2012ENS0_13unit_e_metricENS0_13expl_leapfrogEN5boost6random23additive_combine_engineINS7_26linear_congruential_engineIjLj40014ELj0ELj2147483563EEENS9_IjLj40692ELj0ELj2147483399EEEEEE18get_sampler_paramsERSt6vectorIdSaIdEE"
 "_ZN4stan4mcmc9base_nutsIN31model_stan_boeck_2012_namespace21model_stan_boeck_2012ENS0_13unit_e_metricENS0_13expl_leapfrogEN5boost6random23additive_combine_engineINS7_26linear_congruential_engineIjLj40014ELj0ELj2147483563EEENS9_IjLj40692ELj0ELj2147483399EEEEEE23get_sampler_param_namesERSt6vectorISsSaISsEE"
 "_ZN4stan4mcmc9base_nutsIN31model_stan_boeck_2012_namespace21model_stan_boeck_2012ENS0_13unit_e_metricENS0_13expl_leapfrogEN5boost6random23additive_combine_engineINS7_26linear_congruential_engineIjLj40014ELj0ELj2147483563EEENS9_IjLj40692ELj0ELj2147483399EEEEEED0Ev"
 "_ZN4stan4mcmc9base_nutsIN31model_stan_boeck_2012_namespace21model_stan_boeck_2012ENS0_13unit_e_metricENS0_13expl_leapfrogEN5boost6random23additive_combine_engineINS7_26linear_congruential_engineIjLj40014ELj0ELj2147483563EEENS9_IjLj40692ELj0ELj2147483399EEEEEED1Ev"
 "_ZN4stan4mcmc9base_nutsIN31model_stan_boeck_2012_namespace21model_stan_boeck_2012ENS0_14dense_e_metricENS0_13expl_leapfrogEN5boost6random23additive_combine_engineINS7_26linear_congruential_engineIjLj40014ELj0ELj2147483563EEENS9_IjLj40692ELj0ELj2147483399EEEEEE10build_treeEiRNS0_8ps_pointERN5Eigen6MatrixIdLin1ELi1ELi0ELin1ELi1EEESJ_SJ_ddRiRdSL_RNS_9callbacks6loggerE"
 "_ZN4stan4mcmc9base_nutsIN31model_stan_boeck_2012_namespace21model_stan_boeck_2012ENS0_14dense_e_metricENS0_13expl_leapfrogEN5boost6random23additive_combine_engineINS7_26linear_congruential_engineIjLj40014ELj0ELj2147483563EEENS9_IjLj40692ELj0ELj2147483399EEEEEE10transitionERNS0_6sampleERNS_9callbacks6loggerE"
 "_ZN4stan4mcmc9base_nutsIN31model_stan_boeck_2012_namespace21model_stan_boeck_2012ENS0_14dense_e_metricENS0_13expl_leapfrogEN5boost6random23additive_combine_engineINS7_26linear_congruential_engineIjLj40014ELj0ELj2147483563EEENS9_IjLj40692ELj0ELj2147483399EEEEEE17compute_criterionERN5Eigen6MatrixIdLin1ELi1ELi0ELin1ELi1EEESH_SH_"
 "_ZN4stan4mcmc9base_nutsIN31model_stan_boeck_2012_namespace21model_stan_boeck_2012ENS0_14dense_e_metricENS0_13expl_leapfrogEN5boost6random23additive_combine_engineINS7_26linear_congruential_engineIjLj40014ELj0ELj2147483563EEENS9_IjLj40692ELj0ELj2147483399EEEEEE18get_sampler_paramsERSt6vectorIdSaIdEE"
 "_ZN4stan4mcmc9base_nutsIN31model_stan_boeck_2012_namespace21model_stan_boeck_2012ENS0_14dense_e_metricENS0_13expl_leapfrogEN5boost6random23additive_combine_engineINS7_26linear_congruential_engineIjLj40014ELj0ELj2147483563EEENS9_IjLj40692ELj0ELj2147483399EEEEEE23get_sampler_param_namesERSt6vectorISsSaISsEE"
 "_ZN4stan4mcmc9base_nutsIN31model_stan_boeck_2012_namespace21model_stan_boeck_2012ENS0_14dense_e_metricENS0_13expl_leapfrogEN5boost6random23additive_combine_engineINS7_26linear_congruential_engineIjLj40014ELj0ELj2147483563EEENS9_IjLj40692ELj0ELj2147483399EEEEEED0Ev"
 "_ZN4stan4mcmc9base_nutsIN31model_stan_boeck_2012_namespace21model_stan_boeck_2012ENS0_14dense_e_metricENS0_13expl_leapfrogEN5boost6random23additive_combine_engineINS7_26linear_congruential_engineIjLj40014ELj0ELj2147483563EEENS9_IjLj40692ELj0ELj2147483399EEEEEED1Ev"
 "_ZN4stan4mcmc9base_nutsIN31model_stan_boeck_ext2_namespace21model_stan_boeck_ext2ENS0_13diag_e_metricENS0_13expl_leapfrogEN5boost6random23additive_combine_engineINS7_26linear_congruential_engineIjLj40014ELj0ELj2147483563EEENS9_IjLj40692ELj0ELj2147483399EEEEEE10build_treeEiRNS0_8ps_pointERN5Eigen6MatrixIdLin1ELi1ELi0ELin1ELi1EEESJ_SJ_ddRiRdSL_RNS_9callbacks6loggerE"
 "_ZN4stan4mcmc9base_nutsIN31model_stan_boeck_ext2_namespace21model_stan_boeck_ext2ENS0_13diag_e_metricENS0_13expl_leapfrogEN5boost6random23additive_combine_engineINS7_26linear_congruential_engineIjLj40014ELj0ELj2147483563EEENS9_IjLj40692ELj0ELj2147483399EEEEEE10transitionERNS0_6sampleERNS_9callbacks6loggerE"
 "_ZN4stan4mcmc9base_nutsIN31model_stan_boeck_ext2_namespace21model_stan_boeck_ext2ENS0_13diag_e_metricENS0_13expl_leapfrogEN5boost6random23additive_combine_engineINS7_26linear_congruential_engineIjLj40014ELj0ELj2147483563EEENS9_IjLj40692ELj0ELj2147483399EEEEEE17compute_criterionERN5Eigen6MatrixIdLin1ELi1ELi0ELin1ELi1EEESH_SH_"
 "_ZN4stan4mcmc9base_nutsIN31model_stan_boeck_ext2_namespace21model_stan_boeck_ext2ENS0_13diag_e_metricENS0_13expl_leapfrogEN5boost6random23additive_combine_engineINS7_26linear_congruential_engineIjLj40014ELj0ELj2147483563EEENS9_IjLj40692ELj0ELj2147483399EEEEEE18get_sampler_paramsERSt6vectorIdSaIdEE"
 "_ZN4stan4mcmc9base_nutsIN31model_stan_boeck_ext2_namespace21model_stan_boeck_ext2ENS0_13diag_e_metricENS0_13expl_leapfrogEN5boost6random23additive_combine_engineINS7_26linear_congruential_engineIjLj40014ELj0ELj2147483563EEENS9_IjLj40692ELj0ELj2147483399EEEEEE23get_sampler_param_namesERSt6vectorISsSaISsEE"
 "_ZN4stan4mcmc9base_nutsIN31model_stan_boeck_ext2_namespace21model_stan_boeck_ext2ENS0_13diag_e_metricENS0_13expl_leapfrogEN5boost6random23additive_combine_engineINS7_26linear_congruential_engineIjLj40014ELj0ELj2147483563EEENS9_IjLj40692ELj0ELj2147483399EEEEEED0Ev"
 "_ZN4stan4mcmc9base_nutsIN31model_stan_boeck_ext2_namespace21model_stan_boeck_ext2ENS0_13diag_e_metricENS0_13expl_leapfrogEN5boost6random23additive_combine_engineINS7_26linear_congruential_engineIjLj40014ELj0ELj2147483563EEENS9_IjLj40692ELj0ELj2147483399EEEEEED1Ev"
 "_ZN4stan4mcmc9base_nutsIN31model_stan_boeck_ext2_namespace21model_stan_boeck_ext2ENS0_13unit_e_metricENS0_13expl_leapfrogEN5boost6random23additive_combine_engineINS7_26linear_congruential_engineIjLj40014ELj0ELj2147483563EEENS9_IjLj40692ELj0ELj2147483399EEEEEE10build_treeEiRNS0_8ps_pointERN5Eigen6MatrixIdLin1ELi1ELi0ELin1ELi1EEESJ_SJ_ddRiRdSL_RNS_9callbacks6loggerE"
 "_ZN4stan4mcmc9base_nutsIN31model_stan_boeck_ext2_namespace21model_stan_boeck_ext2ENS0_13unit_e_metricENS0_13expl_leapfrogEN5boost6random23additive_combine_engineINS7_26linear_congruential_engineIjLj40014ELj0ELj2147483563EEENS9_IjLj40692ELj0ELj2147483399EEEEEE10transitionERNS0_6sampleERNS_9callbacks6loggerE"
 "_ZN4stan4mcmc9base_nutsIN31model_stan_boeck_ext2_namespace21model_stan_boeck_ext2ENS0_13unit_e_metricENS0_13expl_leapfrogEN5boost6random23additive_combine_engineINS7_26linear_congruential_engineIjLj40014ELj0ELj2147483563EEENS9_IjLj40692ELj0ELj2147483399EEEEEE17compute_criterionERN5Eigen6MatrixIdLin1ELi1ELi0ELin1ELi1EEESH_SH_"
 "_ZN4stan4mcmc9base_nutsIN31model_stan_boeck_ext2_namespace21model_stan_boeck_ext2ENS0_13unit_e_metricENS0_13expl_leapfrogEN5boost6random23additive_combine_engineINS7_26linear_congruential_engineIjLj40014ELj0ELj2147483563EEENS9_IjLj40692ELj0ELj2147483399EEEEEE18get_sampler_paramsERSt6vectorIdSaIdEE"
 "_ZN4stan4mcmc9base_nutsIN31model_stan_boeck_ext2_namespace21model_stan_boeck_ext2ENS0_13unit_e_metricENS0_13expl_leapfrogEN5boost6random23additive_combine_engineINS7_26linear_congruential_engineIjLj40014ELj0ELj2147483563EEENS9_IjLj40692ELj0ELj2147483399EEEEEE23get_sampler_param_namesERSt6vectorISsSaISsEE"
 "_ZN4stan4mcmc9base_nutsIN31model_stan_boeck_ext2_namespace21model_stan_boeck_ext2ENS0_13unit_e_metricENS0_13expl_leapfrogEN5boost6random23additive_combine_engineINS7_26linear_congruential_engineIjLj40014ELj0ELj2147483563EEENS9_IjLj40692ELj0ELj2147483399EEEEEED0Ev"
 "_ZN4stan4mcmc9base_nutsIN31model_stan_boeck_ext2_namespace21model_stan_boeck_ext2ENS0_13unit_e_metricENS0_13expl_leapfrogEN5boost6random23additive_combine_engineINS7_26linear_congruential_engineIjLj40014ELj0ELj2147483563EEENS9_IjLj40692ELj0ELj2147483399EEEEEED1Ev"
 "_ZN4stan4mcmc9base_nutsIN31model_stan_boeck_ext2_namespace21model_stan_boeck_ext2ENS0_14dense_e_metricENS0_13expl_leapfrogEN5boost6random23additive_combine_engineINS7_26linear_congruential_engineIjLj40014ELj0ELj2147483563EEENS9_IjLj40692ELj0ELj2147483399EEEEEE10build_treeEiRNS0_8ps_pointERN5Eigen6MatrixIdLin1ELi1ELi0ELin1ELi1EEESJ_SJ_ddRiRdSL_RNS_9callbacks6loggerE"
 "_ZN4stan4mcmc9base_nutsIN31model_stan_boeck_ext2_namespace21model_stan_boeck_ext2ENS0_14dense_e_metricENS0_13expl_leapfrogEN5boost6random23additive_combine_engineINS7_26linear_congruential_engineIjLj40014ELj0ELj2147483563EEENS9_IjLj40692ELj0ELj2147483399EEEEEE10transitionERNS0_6sampleERNS_9callbacks6loggerE"
 "_ZN4stan4mcmc9base_nutsIN31model_stan_boeck_ext2_namespace21model_stan_boeck_ext2ENS0_14dense_e_metricENS0_13expl_leapfrogEN5boost6random23additive_combine_engineINS7_26linear_congruential_engineIjLj40014ELj0ELj2147483563EEENS9_IjLj40692ELj0ELj2147483399EEEEEE17compute_criterionERN5Eigen6MatrixIdLin1ELi1ELi0ELin1ELi1EEESH_SH_"
 "_ZN4stan4mcmc9base_nutsIN31model_stan_boeck_ext2_namespace21model_stan_boeck_ext2ENS0_14dense_e_metricENS0_13expl_leapfrogEN5boost6random23additive_combine_engineINS7_26linear_congruential_engineIjLj40014ELj0ELj2147483563EEENS9_IjLj40692ELj0ELj2147483399EEEEEE18get_sampler_paramsERSt6vectorIdSaIdEE"
 "_ZN4stan4mcmc9base_nutsIN31model_stan_boeck_ext2_namespace21model_stan_boeck_ext2ENS0_14dense_e_metricENS0_13expl_leapfrogEN5boost6random23additive_combine_engineINS7_26linear_congruential_engineIjLj40014ELj0ELj2147483563EEENS9_IjLj40692ELj0ELj2147483399EEEEEE23get_sampler_param_namesERSt6vectorISsSaISsEE"
 "_ZN4stan4mcmc9base_nutsIN31model_stan_boeck_ext2_namespace21model_stan_boeck_ext2ENS0_14dense_e_metricENS0_13expl_leapfrogEN5boost6random23additive_combine_engineINS7_26linear_congruential_engineIjLj40014ELj0ELj2147483563EEENS9_IjLj40692ELj0ELj2147483399EEEEEED0Ev"
 "_ZN4stan4mcmc9base_nutsIN31model_stan_boeck_ext2_namespace21model_stan_boeck_ext2ENS0_14dense_e_metricENS0_13expl_leapfrogEN5boost6random23additive_combine_engineINS7_26linear_congruential_engineIjLj40014ELj0ELj2147483563EEENS9_IjLj40692ELj0ELj2147483399EEEEEED1Ev"
 "_ZN4stan4mcmc9base_nutsIN32model_stan_boeck_shift_namespace22model_stan_boeck_shiftENS0_13diag_e_metricENS0_13expl_leapfrogEN5boost6random23additive_combine_engineINS7_26linear_congruential_engineIjLj40014ELj0ELj2147483563EEENS9_IjLj40692ELj0ELj2147483399EEEEEE10build_treeEiRNS0_8ps_pointERN5Eigen6MatrixIdLin1ELi1ELi0ELin1ELi1EEESJ_SJ_ddRiRdSL_RNS_9callbacks6loggerE"
 "_ZN4stan4mcmc9base_nutsIN32model_stan_boeck_shift_namespace22model_stan_boeck_shiftENS0_13diag_e_metricENS0_13expl_leapfrogEN5boost6random23additive_combine_engineINS7_26linear_congruential_engineIjLj40014ELj0ELj2147483563EEENS9_IjLj40692ELj0ELj2147483399EEEEEE10transitionERNS0_6sampleERNS_9callbacks6loggerE"
 "_ZN4stan4mcmc9base_nutsIN32model_stan_boeck_shift_namespace22model_stan_boeck_shiftENS0_13diag_e_metricENS0_13expl_leapfrogEN5boost6random23additive_combine_engineINS7_26linear_congruential_engineIjLj40014ELj0ELj2147483563EEENS9_IjLj40692ELj0ELj2147483399EEEEEE17compute_criterionERN5Eigen6MatrixIdLin1ELi1ELi0ELin1ELi1EEESH_SH_"
 "_ZN4stan4mcmc9base_nutsIN32model_stan_boeck_shift_namespace22model_stan_boeck_shiftENS0_13diag_e_metricENS0_13expl_leapfrogEN5boost6random23additive_combine_engineINS7_26linear_congruential_engineIjLj40014ELj0ELj2147483563EEENS9_IjLj40692ELj0ELj2147483399EEEEEE18get_sampler_paramsERSt6vectorIdSaIdEE"
 "_ZN4stan4mcmc9base_nutsIN32model_stan_boeck_shift_namespace22model_stan_boeck_shiftENS0_13diag_e_metricENS0_13expl_leapfrogEN5boost6random23additive_combine_engineINS7_26linear_congruential_engineIjLj40014ELj0ELj2147483563EEENS9_IjLj40692ELj0ELj2147483399EEEEEE23get_sampler_param_namesERSt6vectorISsSaISsEE"
 "_ZN4stan4mcmc9base_nutsIN32model_stan_boeck_shift_namespace22model_stan_boeck_shiftENS0_13diag_e_metricENS0_13expl_leapfrogEN5boost6random23additive_combine_engineINS7_26linear_congruential_engineIjLj40014ELj0ELj2147483563EEENS9_IjLj40692ELj0ELj2147483399EEEEEED0Ev"
 "_ZN4stan4mcmc9base_nutsIN32model_stan_boeck_shift_namespace22model_stan_boeck_shiftENS0_13diag_e_metricENS0_13expl_leapfrogEN5boost6random23additive_combine_engineINS7_26linear_congruential_engineIjLj40014ELj0ELj2147483563EEENS9_IjLj40692ELj0ELj2147483399EEEEEED1Ev"
 "_ZN4stan4mcmc9base_nutsIN32model_stan_boeck_shift_namespace22model_stan_boeck_shiftENS0_13unit_e_metricENS0_13expl_leapfrogEN5boost6random23additive_combine_engineINS7_26linear_congruential_engineIjLj40014ELj0ELj2147483563EEENS9_IjLj40692ELj0ELj2147483399EEEEEE10build_treeEiRNS0_8ps_pointERN5Eigen6MatrixIdLin1ELi1ELi0ELin1ELi1EEESJ_SJ_ddRiRdSL_RNS_9callbacks6loggerE"
 "_ZN4stan4mcmc9base_nutsIN32model_stan_boeck_shift_namespace22model_stan_boeck_shiftENS0_13unit_e_metricENS0_13expl_leapfrogEN5boost6random23additive_combine_engineINS7_26linear_congruential_engineIjLj40014ELj0ELj2147483563EEENS9_IjLj40692ELj0ELj2147483399EEEEEE10transitionERNS0_6sampleERNS_9callbacks6loggerE"
 "_ZN4stan4mcmc9base_nutsIN32model_stan_boeck_shift_namespace22model_stan_boeck_shiftENS0_13unit_e_metricENS0_13expl_leapfrogEN5boost6random23additive_combine_engineINS7_26linear_congruential_engineIjLj40014ELj0ELj2147483563EEENS9_IjLj40692ELj0ELj2147483399EEEEEE17compute_criterionERN5Eigen6MatrixIdLin1ELi1ELi0ELin1ELi1EEESH_SH_"
 "_ZN4stan4mcmc9base_nutsIN32model_stan_boeck_shift_namespace22model_stan_boeck_shiftENS0_13unit_e_metricENS0_13expl_leapfrogEN5boost6random23additive_combine_engineINS7_26linear_congruential_engineIjLj40014ELj0ELj2147483563EEENS9_IjLj40692ELj0ELj2147483399EEEEEE18get_sampler_paramsERSt6vectorIdSaIdEE"
 "_ZN4stan4mcmc9base_nutsIN32model_stan_boeck_shift_namespace22model_stan_boeck_shiftENS0_13unit_e_metricENS0_13expl_leapfrogEN5boost6random23additive_combine_engineINS7_26linear_congruential_engineIjLj40014ELj0ELj2147483563EEENS9_IjLj40692ELj0ELj2147483399EEEEEE23get_sampler_param_namesERSt6vectorISsSaISsEE"
 "_ZN4stan4mcmc9base_nutsIN32model_stan_boeck_shift_namespace22model_stan_boeck_shiftENS0_13unit_e_metricENS0_13expl_leapfrogEN5boost6random23additive_combine_engineINS7_26linear_congruential_engineIjLj40014ELj0ELj2147483563EEENS9_IjLj40692ELj0ELj2147483399EEEEEED0Ev"
 "_ZN4stan4mcmc9base_nutsIN32model_stan_boeck_shift_namespace22model_stan_boeck_shiftENS0_13unit_e_metricENS0_13expl_leapfrogEN5boost6random23additive_combine_engineINS7_26linear_congruential_engineIjLj40014ELj0ELj2147483563EEENS9_IjLj40692ELj0ELj2147483399EEEEEED1Ev"
 "_ZN4stan4mcmc9base_nutsIN32model_stan_boeck_shift_namespace22model_stan_boeck_shiftENS0_14dense_e_metricENS0_13expl_leapfrogEN5boost6random23additive_combine_engineINS7_26linear_congruential_engineIjLj40014ELj0ELj2147483563EEENS9_IjLj40692ELj0ELj2147483399EEEEEE10build_treeEiRNS0_8ps_pointERN5Eigen6MatrixIdLin1ELi1ELi0ELin1ELi1EEESJ_SJ_ddRiRdSL_RNS_9callbacks6loggerE"
 "_ZN4stan4mcmc9base_nutsIN32model_stan_boeck_shift_namespace22model_stan_boeck_shiftENS0_14dense_e_metricENS0_13expl_leapfrogEN5boost6random23additive_combine_engineINS7_26linear_congruential_engineIjLj40014ELj0ELj2147483563EEENS9_IjLj40692ELj0ELj2147483399EEEEEE10transitionERNS0_6sampleERNS_9callbacks6loggerE"
 "_ZN4stan4mcmc9base_nutsIN32model_stan_boeck_shift_namespace22model_stan_boeck_shiftENS0_14dense_e_metricENS0_13expl_leapfrogEN5boost6random23additive_combine_engineINS7_26linear_congruential_engineIjLj40014ELj0ELj2147483563EEENS9_IjLj40692ELj0ELj2147483399EEEEEE17compute_criterionERN5Eigen6MatrixIdLin1ELi1ELi0ELin1ELi1EEESH_SH_"
 "_ZN4stan4mcmc9base_nutsIN32model_stan_boeck_shift_namespace22model_stan_boeck_shiftENS0_14dense_e_metricENS0_13expl_leapfrogEN5boost6random23additive_combine_engineINS7_26linear_congruential_engineIjLj40014ELj0ELj2147483563EEENS9_IjLj40692ELj0ELj2147483399EEEEEE18get_sampler_paramsERSt6vectorIdSaIdEE"
 "_ZN4stan4mcmc9base_nutsIN32model_stan_boeck_shift_namespace22model_stan_boeck_shiftENS0_14dense_e_metricENS0_13expl_leapfrogEN5boost6random23additive_combine_engineINS7_26linear_congruential_engineIjLj40014ELj0ELj2147483563EEENS9_IjLj40692ELj0ELj2147483399EEEEEE23get_sampler_param_namesERSt6vectorISsSaISsEE"
 "_ZN4stan4mcmc9base_nutsIN32model_stan_boeck_shift_namespace22model_stan_boeck_shiftENS0_14dense_e_metricENS0_13expl_leapfrogEN5boost6random23additive_combine_engineINS7_26linear_congruential_engineIjLj40014ELj0ELj2147483563EEENS9_IjLj40692ELj0ELj2147483399EEEEEED0Ev"
 "_ZN4stan4mcmc9base_nutsIN32model_stan_boeck_shift_namespace22model_stan_boeck_shiftENS0_14dense_e_metricENS0_13expl_leapfrogEN5boost6random23additive_combine_engineINS7_26linear_congruential_engineIjLj40014ELj0ELj2147483563EEENS9_IjLj40692ELj0ELj2147483399EEEEEED1Ev"
 "_ZN4stan4mcmc9base_nutsIN33model_stan_boeck_ext_HH_namespace23model_stan_boeck_ext_HHENS0_13diag_e_metricENS0_13expl_leapfrogEN5boost6random23additive_combine_engineINS7_26linear_congruential_engineIjLj40014ELj0ELj2147483563EEENS9_IjLj40692ELj0ELj2147483399EEEEEE10build_treeEiRNS0_8ps_pointERN5Eigen6MatrixIdLin1ELi1ELi0ELin1ELi1EEESJ_SJ_ddRiRdSL_RNS_9callbacks6loggerE"
 "_ZN4stan4mcmc9base_nutsIN33model_stan_boeck_ext_HH_namespace23model_stan_boeck_ext_HHENS0_13diag_e_metricENS0_13expl_leapfrogEN5boost6random23additive_combine_engineINS7_26linear_congruential_engineIjLj40014ELj0ELj2147483563EEENS9_IjLj40692ELj0ELj2147483399EEEEEE10transitionERNS0_6sampleERNS_9callbacks6loggerE"
 "_ZN4stan4mcmc9base_nutsIN33model_stan_boeck_ext_HH_namespace23model_stan_boeck_ext_HHENS0_13diag_e_metricENS0_13expl_leapfrogEN5boost6random23additive_combine_engineINS7_26linear_congruential_engineIjLj40014ELj0ELj2147483563EEENS9_IjLj40692ELj0ELj2147483399EEEEEE17compute_criterionERN5Eigen6MatrixIdLin1ELi1ELi0ELin1ELi1EEESH_SH_"
